
/home/khj/Desktop/hello_standalone/src/debug/hello.elf:     file format elf32-littleriscv
/home/khj/Desktop/hello_standalone/src/debug/hello.elf
architecture: riscv:rv32, flags 0x00000112:
EXEC_P, HAS_SYMS, D_PAGED
start address 0x20400000

Program Header:
    LOAD off    0x00001000 vaddr 0x20400000 paddr 0x20400000 align 2**12
         filesz 0x00000f48 memsz 0x00000f48 flags rwx
    LOAD off    0x00002000 vaddr 0x80000000 paddr 0x20406638 align 2**12
         filesz 0x000007f0 memsz 0x000007f0 flags rw-
     TLS off    0x00000000 vaddr 0x00000000 paddr 0x00000000 align 2**2
         filesz 0x00000000 memsz 0x00000000 flags ---
    LOAD off    0x000027f0 vaddr 0x800007f0 paddr 0x800007f0 align 2**12
         filesz 0x00000000 memsz 0x00000cb0 flags rw-
    LOAD off    0x000027f0 vaddr 0x00000000 paddr 0x00000000 align 2**12
         filesz 0x00000000 memsz 0x00000000 flags ---
    LOAD off    0x00002f80 vaddr 0x20400f80 paddr 0x20400f80 align 2**12
         filesz 0x000056b6 memsz 0x000056b6 flags r-x

Sections:
Idx Name              Size      VMA       LMA       File off  Algn  Flags
  0 .init             000002d6  20400000  20400000  00001000  2**4  CONTENTS, ALLOC, LOAD, READONLY, CODE
  1 .init_array       0000000c  204002d8  204002d8  000012d8  2**3  CONTENTS, ALLOC, LOAD, DATA
  2 .ctors            0000007a  204002e4  204002e4  000012e4  2**1  CONTENTS, ALLOC, LOAD, READONLY, CODE
  3 .rodata           00000be8  20400360  20400360  00001360  2**2  CONTENTS, ALLOC, LOAD, READONLY, DATA
  4 .text             000056b6  20400f80  20400f80  00002f80  2**7  CONTENTS, ALLOC, LOAD, READONLY, CODE
  5 .data             000007f0  80000000  20406638  00002000  2**3  CONTENTS, ALLOC, LOAD, DATA
  6 .bss              000000a4  800007f0  800007f0  000027f0  2**3  ALLOC
  7 .stack            00000400  800008a0  800008a0  000027f0  2**4  ALLOC
  8 .heap             00000800  80000ca0  80000ca0  000027f0  2**2  ALLOC
  9 .debug_info       00029de3  00000000  00000000  00008636  2**0  CONTENTS, READONLY, DEBUGGING
 10 .debug_abbrev     000034ea  00000000  00000000  00032419  2**0  CONTENTS, READONLY, DEBUGGING
 11 .debug_aranges    00000b80  00000000  00000000  00035908  2**3  CONTENTS, READONLY, DEBUGGING
 12 .debug_ranges     00000990  00000000  00000000  00036488  2**3  CONTENTS, READONLY, DEBUGGING
 13 .debug_line       0000a273  00000000  00000000  00036e18  2**0  CONTENTS, READONLY, DEBUGGING
 14 .debug_str        00004c97  00000000  00000000  0004108b  2**0  CONTENTS, READONLY, DEBUGGING
 15 .comment          00000028  00000000  00000000  00045d22  2**0  CONTENTS, READONLY
 16 .riscv.attributes 0000002b  00000000  00000000  00045d4a  2**0  CONTENTS, READONLY
 17 .debug_frame      00002dfc  00000000  00000000  00045d78  2**2  CONTENTS, READONLY, DEBUGGING
SYMBOL TABLE:
20400000 l    d  .init	00000000 .init
204002d8 l    d  .init_array	00000000 .init_array
204002e4 l    d  .ctors	00000000 .ctors
20400360 l    d  .rodata	00000000 .rodata
20400f80 l    d  .text	00000000 .text
80000000 l    d  .data	00000000 .data
800007f0 l    d  .bss	00000000 .bss
800008a0 l    d  .stack	00000000 .stack
80000ca0 l    d  .heap	00000000 .heap
00000000 l    d  .debug_info	00000000 .debug_info
00000000 l    d  .debug_abbrev	00000000 .debug_abbrev
00000000 l    d  .debug_aranges	00000000 .debug_aranges
00000000 l    d  .debug_ranges	00000000 .debug_ranges
00000000 l    d  .debug_line	00000000 .debug_line
00000000 l    d  .debug_str	00000000 .debug_str
00000000 l    d  .comment	00000000 .comment
00000000 l    d  .riscv.attributes	00000000 .riscv.attributes
00000000 l    d  .debug_frame	00000000 .debug_frame
00000000 l    df *ABS*	00000000 scrub.o
20400092 l     F .init	00000000 _metal_memory_scrub
20400172 l       .init	00000000 skip_scrub
2040016a l       .init	00000000 wait_scrub
204000ee l       .init	00000000 dtim_scrub
20400104 l       .init	00000000 ils_scrub
2040011a l       .init	00000000 dls_scrub
20400130 l       .init	00000000 sram_scrub
20400146 l       .init	00000000 memory_scrub
2040015c l       .init	00000000 done_scrub
00000000 l    df *ABS*	00000000 synchronize_harts.c
00000000 l    df *ABS*	00000000 crt0.o
20400250 l       .init	00000000 _skip_init
204003e4 l       .rodata	00000000 argv
204003e8 l       .rodata	00000000 envp
204003ec l       .rodata	00000000 name
00000000 l    df *ABS*	00000000 tty.c
00000000 l    df *ABS*	00000000 sifive_fe310-g000_pll.c
20404b9a l     F .text	0000001a __metal_driver_sifive_fe310_g000_pll_pllsel0
20404bb4 l     F .text	0000001a __metal_driver_sifive_fe310_g000_pll_pllref
20404bce l     F .text	00000016 __metal_driver_sifive_fe310_g000_pll_divider_base
20404be4 l     F .text	00000014 __metal_driver_sifive_fe310_g000_pll_divider_offset
20404bf8 l     F .text	00000012 __metal_driver_sifive_fe310_g000_pll_config_base
20404c0a l     F .text	00000010 __metal_driver_sifive_fe310_g000_pll_config_offset
20404c1a l     F .text	00000016 __metal_driver_sifive_fe310_g000_pll_init_rate
20404c30 l     F .text	00000012 __metal_driver_sifive_fe310_g000_prci_base
20404c42 l     F .text	00000012 __metal_driver_sifive_fe310_g000_prci_vtable
204005fc l     O .rodata	00000880 pll_configs
20404c54 l     F .text	0000004e get_pll_config_freq
20404eb6 l     F .text	000000aa find_closest_config
20404f60 l     F .text	000001a4 configure_pll
00000000 l    df *ABS*	00000000 hello.c
00000000 l    df *ABS*	00000000 findfp.c
2040140e l     F .text	00000068 std
00000000 l    df *ABS*	00000000 riscv_clint0.c
20402068 l     F .text	00000026 __metal_driver_sifive_clint0_control_base
2040208e l     F .text	00000024 __metal_driver_sifive_clint0_num_interrupts
204020b2 l     F .text	0000003c __metal_driver_sifive_clint0_interrupt_parents
204020ee l     F .text	00000030 __metal_driver_sifive_clint0_interrupt_lines
2040224e l     F .text	00000036 _get_cpu_intc
00000000 l    df *ABS*	00000000 riscv_cpu.c
20402780 l     F .text	00000024 __metal_driver_cpu_hartid
204027a4 l     F .text	0000002a __metal_driver_cpu_timebase
204027ce l     F .text	0000002a __metal_driver_cpu_interrupt_controller
204027f8 l     F .text	00000024 __metal_driver_cpu_buserror
00000000 l    df *ABS*	00000000 riscv_plic0.c
204040fe l     F .text	0000002a __metal_driver_sifive_plic0_control_base
20404128 l     F .text	00000028 __metal_driver_sifive_plic0_num_interrupts
20404150 l     F .text	00000028 __metal_driver_sifive_plic0_max_priority
20404178 l     F .text	00000028 __metal_driver_sifive_plic0_interrupt_parents
204041a0 l     F .text	00000022 __metal_driver_sifive_plic0_interrupt_lines
204041c2 l     F .text	0000001e __metal_driver_sifive_plic0_context_ids
00000000 l    df *ABS*	00000000 sifive_gpio0.c
204052e2 l     F .text	00000026 __metal_driver_sifive_gpio0_base
20405308 l     F .text	0000002a __metal_driver_sifive_gpio0_interrupt_parent
20405332 l     F .text	000001b4 __metal_driver_sifive_gpio0_interrupt_lines
00000000 l    df *ABS*	00000000 sifive_uart0.c
20405c04 l     F .text	0000002a __metal_driver_sifive_uart0_control_base
20405c2e l     F .text	0000002e __metal_driver_sifive_uart0_interrupt_parent
20405c5c l     F .text	00000028 __metal_driver_sifive_uart0_interrupt_line
20405c84 l     F .text	0000002e __metal_driver_sifive_uart0_clock
20405cb2 l     F .text	0000002a __metal_driver_sifive_uart0_pinmux
20405cdc l     F .text	00000028 __metal_driver_sifive_uart0_pinmux_output_selector
20405d04 l     F .text	0000002a __metal_driver_sifive_uart0_pinmux_source_selector
204060c4 l     F .text	000000d8 pre_rate_change_callback_func
2040619c l     F .text	00000030 post_rate_change_callback_func
00000000 l    df *ABS*	00000000 puts.c
00000000 l    df *ABS*	00000000 wbuf.c
00000000 l    df *ABS*	00000000 wsetup.c
00000000 l    df *ABS*	00000000 fflush.c
00000000 l    df *ABS*	00000000 fwalk.c
00000000 l    df *ABS*	00000000 makebuf.c
00000000 l    df *ABS*	00000000 nano-mallocr.c
00000000 l    df *ABS*	00000000 nano-mallocr.c
00000000 l    df *ABS*	00000000 sbrkr.c
00000000 l    df *ABS*	00000000 stdio.c
00000000 l    df *ABS*	00000000 writer.c
00000000 l    df *ABS*	00000000 closer.c
00000000 l    df *ABS*	00000000 fstatr.c
00000000 l    df *ABS*	00000000 isattyr.c
00000000 l    df *ABS*	00000000 lseekr.c
00000000 l    df *ABS*	00000000 mlock.c
00000000 l    df *ABS*	00000000 readr.c
00000000 l    df *ABS*	00000000 sys_close.c
00000000 l    df *ABS*	00000000 sys_fstat.c
00000000 l    df *ABS*	00000000 sys_isatty.c
00000000 l    df *ABS*	00000000 sys_lseek.c
00000000 l    df *ABS*	00000000 sys_read.c
00000000 l    df *ABS*	00000000 sys_sbrk.c
800007a8 l     O .data	00000004 __brk
00000000 l    df *ABS*	00000000 sys_write.c
00000000 l    df *ABS*	00000000 atexit.c
00000000 l    df *ABS*	00000000 errno.c
00000000 l    df *ABS*	00000000 exit.c
00000000 l    df *ABS*	00000000 fini.c
00000000 l    df *ABS*	00000000 init.c
00000000 l    df *ABS*	00000000 __atexit.c
80000804 l     O .bss	0000008c _global_atexit0
00000000 l    df *ABS*	00000000 __call_atexit.c
00000000 l    df *ABS*	00000000 init.c
800007fc l     O .bss	00000004 init_done.1531
80000800 l     O .bss	00000004 fini_done.1540
00000000 l    df *ABS*	00000000 uart.c
00000000 l    df *ABS*	00000000 sifive_fe310-g000_hfrosc.c
204049b2 l     F .text	0000001a __metal_driver_sifive_fe310_g000_hfrosc_ref
204049cc l     F .text	00000016 __metal_driver_sifive_fe310_g000_hfrosc_config_base
204049e2 l     F .text	00000014 __metal_driver_sifive_fe310_g000_hfrosc_config_offset
204049f6 l     F .text	00000012 __metal_driver_sifive_fe310_g000_prci_vtable
00000000 l    df *ABS*	00000000 sifive_fe310-g000_hfxosc.c
20404aae l     F .text	0000001a __metal_driver_sifive_fe310_g000_hfxosc_ref
20404ac8 l     F .text	00000016 __metal_driver_sifive_fe310_g000_hfxosc_config_base
20404ade l     F .text	00000014 __metal_driver_sifive_fe310_g000_hfxosc_config_offset
20404af2 l     F .text	00000012 __metal_driver_sifive_fe310_g000_prci_vtable
00000000 l    df *ABS*	00000000 sifive_fe310-g000_prci.c
2040526a l     F .text	00000012 __metal_driver_sifive_fe310_g000_prci_base
00000000 l    df *ABS*	00000000 sifive_test0.c
20405b94 l     F .text	00000026 __metal_driver_sifive_test0_base
00000000 l    df *ABS*	00000000 clock.c
00000000 l    df *ABS*	00000000 cpu.c
00000000 l    df *ABS*	00000000 shutdown.c
00000000 l    df *ABS*	00000000 vector.o
20406500 l       .text	00000000 IRQ_0
20406504 l       .text	00000000 IRQ_1
20406508 l       .text	00000000 IRQ_2
2040650c l       .text	00000000 IRQ_3
20406510 l       .text	00000000 IRQ_4
20406514 l       .text	00000000 IRQ_5
20406518 l       .text	00000000 IRQ_6
2040651c l       .text	00000000 IRQ_7
20406520 l       .text	00000000 IRQ_8
20406524 l       .text	00000000 IRQ_9
20406528 l       .text	00000000 IRQ_10
2040652c l       .text	00000000 IRQ_11
20406530 l       .text	00000000 IRQ_12
20406534 l       .text	00000000 IRQ_13
20406538 l       .text	00000000 IRQ_14
2040653c l       .text	00000000 IRQ_15
20406540 l       .text	00000000 IRQ_LC0
20406544 l       .text	00000000 IRQ_LC1
20406548 l       .text	00000000 IRQ_LC2
2040654c l       .text	00000000 IRQ_LC3
20406550 l       .text	00000000 IRQ_LC4
20406554 l       .text	00000000 IRQ_LC5
20406558 l       .text	00000000 IRQ_LC6
2040655c l       .text	00000000 IRQ_LC7
20406560 l       .text	00000000 IRQ_LC8
20406564 l       .text	00000000 IRQ_LC9
20406568 l       .text	00000000 IRQ_LC10
2040656c l       .text	00000000 IRQ_LC11
20406570 l       .text	00000000 IRQ_LC12
20406574 l       .text	00000000 IRQ_LC13
20406578 l       .text	00000000 IRQ_LC14
2040657c l       .text	00000000 IRQ_LC15
00000000 l    df *ABS*	00000000 fixed-clock.c
20406580 l     F .text	00000062 __metal_driver_fixed_clock_rate
00000000 l    df *ABS*	00000000 sys_exit.c
00000000 l    df *ABS*	00000000 impure.c
80000000 l     O .data	00000060 impure_data
00000000 l    df *ABS*	00000000 inline.c
00000000 l    df *ABS*	00000000 
204002e4 l       .init_array	00000000 metal_constructors_end
204002e8 l       .init_array	00000000 __fini_array_end
204002e8 l       .init_array	00000000 metal_destructors_end
204002e8 l       .init_array	00000000 metal_destructors_start
204002e8 l       .init_array	00000000 __fini_array_start
204002d8 l       .init_array	00000000 __init_array_end
204002d8 l       .init_array	00000000 __preinit_array_end
204002d8 l       .init_array	00000000 __init_array_start
204002d8 l       .init_array	00000000 metal_constructors_start
204002d8 l       .init_array	00000000 __preinit_array_start
20400f04 g     O .rodata	00000040 __metal_driver_vtable_sifive_uart0
20401a26 g     F .text	00000028 _isatty_r
2040303a  w    F .text	00000092 metal_lc4_interrupt_vector_handler
20400fa8 g     F .text	000000da _puts_r
80010000 g       *ABS*	00000000 metal_dtim_0_memory_end
20401a4e g     F .text	0000002c _lseek_r
20406332 g     F .text	00000026 metal_clock_get_rate_hz
20406024 g     F .text	000000a0 __metal_driver_sifive_uart0_set_baud_rate
2040242a g     F .text	00000058 __metal_driver_riscv_clint0_set_vector_mode
20405e7a g     F .text	0000004a __metal_driver_sifive_uart0_set_tx_watermark
20402fa8  w    F .text	00000092 metal_lc3_interrupt_vector_handler
204037fa g     F .text	00000064 __metal_valid_interrupt_id
204002e0 g     O .init_array	00000004 _use_hfxosc_ptr
20403c74 g     F .text	0000001c __metal_driver_riscv_cpu_controller_get_vector_mode
80000fa0 g       .data	00000000 __global_pointer$
204002e4 g     F .ctors	00000024 metal_tty_init
204062de g     F .text	00000054 _metal_clock_append_to_callbacks
2040421c g     F .text	00000046 __metal_plic0_complete_interrupt
20403a4a g     F .text	000001d6 __metal_driver_riscv_cpu_controller_interrupt_register
204002dc g     O .init_array	00000004 _metal_sifive_fe310_g000_pll_init_ptr
2040196c g     F .text	00000036 __sseek
204014c4 g     F .text	0000006a __sinit
20401090 g     F .text	000000c0 __swbuf_r
800007f0 g       .data	00000000 __tls_base
20401480 g     F .text	00000044 __sfmoreglue
20401a7c g     F .text	00000002 __malloc_unlock
20406426 g     F .text	0000002a metal_cpu_get
80000758 g     O .data	00000020 __metal_dt_serial_10013000
2040576e g     F .text	0000004a __metal_driver_sifive_gpio0_disable_io
204003f8 g     O .rodata	00000064 __metal_driver_vtable_riscv_clint0
80000894 g       .bss	00000000 metal_segment_bss_target_end
2040211e g     F .text	0000009a __metal_clint0_mtime_get
20404072 g     F .text	0000002e __metal_driver_cpu_get_instruction_length
00000001 g       *ABS*	00000000 __metal_chicken_bit
20405f3e g     F .text	00000030 __metal_driver_sifive_uart0_get_rx_watermark
20405524 g     F .text	00000046 __metal_driver_sifive_gpio0_disable_input
20405bba g     F .text	0000004a __metal_driver_sifive_test0_exit
20401c4c g     F .text	0000000c __errno
80000000 g       .rodata	00000000 metal_segment_itim_target_start
20405e4a g     F .text	00000030 __metal_driver_sifive_uart0_txready
20405dd8 g     F .text	0000003a __metal_driver_sifive_uart0_rx_interrupt_enable
20400186 g     F .init	0000000e __metal_synchronize_harts
800007f0 g       .data	00000000 metal_segment_bss_target_start
204021b8 g     F .text	00000096 __metal_driver_riscv_clint0_mtimecmp_set
204019fc g     F .text	0000002a _fstat_r
204059be g     F .text	00000188 __metal_driver_sifive_gpio0_clear_int
80000890 g     O .bss	00000004 errno
20404d46 g     F .text	00000170 __metal_driver_sifive_fe310_g000_pll_get_rate_hz
00000400 g       *ABS*	00000000 __stack_size
204063a0 g     F .text	00000030 metal_clock_register_pre_rate_change_callback
20403314  w    F .text	00000092 metal_lc9_interrupt_vector_handler
2040009e  w    F .init	00000000 __metal_before_start
20401f66  w    F .text	00000014 metal_init_run
20400598 g     O .rodata	00000064 __metal_driver_vtable_riscv_plic0
20400554 g     O .rodata	00000044 __metal_driver_vtable_cpu
2040203a g     F .text	0000002e metal_uart_set_baud_rate
204061cc g     F .text	000000d2 __metal_driver_sifive_uart0_init
00000000 g       *ABS*	00000000 __metal_eccscrub_bit
20403d00 g     F .text	00000072 __metal_driver_cpu_mcycle_get
20400e7c g     O .rodata	0000000c __metal_driver_vtable_sifive_fe310_g000_pll
80000ca0 g       .heap	00000000 metal_segment_heap_target_start
20401476 g     F .text	0000000a _cleanup_r
800007b8 g     O .data	00000008 __metal_dt_cpu_0
20403282  w    F .text	00000092 metal_lc8_interrupt_vector_handler
20405104 g     F .text	00000166 __metal_driver_sifive_fe310_g000_pll_set_rate_hz
20404916 g     F .text	00000074 __metal_driver_riscv_plic0_affinity_set_threshold
20401082 g     F .text	0000000e puts
2040355c  w    F .text	00000092 metal_lc13_interrupt_vector_handler
20402986 g     F .text	00000018 __metal_default_exception_handler
20401acc g     F .text	00000026 _fstat
2040274c g     F .text	00000034 __metal_driver_riscv_clint0_set_interrupt
20403c90 g     F .text	00000054 __metal_driver_riscv_cpu_controller_set_vector_mode
2040281c g     F .text	0000002c __metal_driver_cpu_get
204004f0 g     O .rodata	00000064 __metal_driver_vtable_riscv_cpu_intc
2040287a g     F .text	00000018 __metal_interrupt_global_disable
2040498a g     F .text	00000028 __metal_driver_riscv_plic0_affinity_get_threshold
204031f0  w    F .text	00000092 metal_lc7_interrupt_vector_handler
204033a6  w    F .text	00000092 metal_lc10_interrupt_vector_handler
204018c6 g     F .text	00000028 _sbrk_r
20404736 g     F .text	00000050 __metal_driver_riscv_plic0_disable
2040391a g     F .text	0000004e __metal_exception_register
20401e76 g     F .text	00000078 metal_init
20401a7e g     F .text	0000002c _read_r
20403e94 g     F .text	00000016 __metal_driver_cpu_timer_controller_interrupt
20405606 g     F .text	00000040 __metal_driver_sifive_gpio0_enable_output
20402a72 g     F .text	00000064 __metal_default_sw_handler
204063d0 g     F .text	00000030 metal_clock_register_post_rate_change_callback
8000006c g     O .data	0000000c __metal_dt_clock_2
20405d2e g     F .text	0000001e __metal_driver_sifive_uart0_interrupt_controller
20401af2 g     F .text	00000020 _isatty
204056cc g     F .text	00000040 __metal_driver_sifive_gpio0_output_toggle
20405d6a g     F .text	00000038 __metal_driver_sifive_uart0_tx_interrupt_enable
800007e8 g     O .data	00000008 __metal_driver_vtable_fixed_clock
800007a4 g     O .data	00000004 _global_impure_ptr
20402ad6  w    F .text	0000008e metal_timer_interrupt_vector_handler
20401cbc g     F .text	0000006a __libc_init_array
20405646 g     F .text	00000040 __metal_driver_sifive_gpio0_output_set
20403438  w    F .text	00000092 metal_lc11_interrupt_vector_handler
20404b78 g     F .text	00000022 __metal_driver_sifive_fe310_g000_hfxosc_set_rate_hz
20403c20 g     F .text	0000002a __metal_driver_riscv_cpu_controller_interrupt_enable
20401b66 g     F .text	0000006e _sbrk
204055c0 g     F .text	00000046 __metal_driver_sifive_gpio0_disable_output
2040629e g     F .text	00000040 _metal_clock_call_all_callbacks
204002b4 g     F .init	00000002 _init
204028dc g     F .text	0000001a __metal_interrupt_timer_disable
204057b8 g     F .text	00000206 __metal_driver_sifive_gpio0_config_int
20403f4a g     F .text	00000062 __metal_driver_cpu_clear_sw_ipi
20400ec8 g     O .rodata	0000003c __metal_driver_vtable_sifive_gpio0
20405da2 g     F .text	00000036 __metal_driver_sifive_uart0_tx_interrupt_disable
2040570c g     F .text	00000062 __metal_driver_sifive_gpio0_enable_io
20401c84 g     F .text	00000038 __libc_fini_array
80000790 g     O .data	0000000c __metal_dt_clock_4
20405b46 g     F .text	00000020 __metal_driver_gpio_interrupt_controller
20401eee g     F .text	00000078 metal_fini
20403ed4 g     F .text	00000014 __metal_driver_cpu_get_sw_interrupt_id
204040de g     F .text	00000020 __metal_driver_cpu_get_buserror
80000000 g       .data	00000000 metal_segment_data_target_start
2040292e g     F .text	0000002c __metal_interrupt_local_enable
20402718 g     F .text	00000034 __metal_driver_riscv_clint0_clear_interrupt
20401f8e g     F .text	0000002c metal_tty_putc
2040441a g     F .text	00000018 __metal_plic0_default_handler
20401bd4  w    F .text	0000006e write
00000000 g       *ABS*	00000000 __tbss_size
80000060 g     O .data	0000000c __metal_dt_clock_0
00000800 g       *ABS*	00000000 __heap_size
20404786 g     F .text	00000030 __metal_driver_riscv_plic0_set_threshold
20402b64 g     F .text	00000016 __metal_default_beu_handler
20400384 g     O .rodata	00000020 __sf_fake_stderr
20402912 g     F .text	0000001c __metal_interrupt_external_disable
20405d4c g     F .text	0000001e __metal_driver_sifive_uart0_get_interrupt_id
20403ce4 g     F .text	0000001c __metal_driver_riscv_cpu_controller_command_request
20403968 g     F .text	000000e2 __metal_driver_riscv_cpu_controller_interrupt_init
2040402c g     F .text	00000046 __metal_driver_cpu_exception_register
20402892 g     F .text	00000018 __metal_interrupt_software_enable
20402e84  w    F .text	00000092 metal_lc1_interrupt_vector_handler
2040173c g     F .text	000000ac _free_r
800007f8 g     O .bss	00000004 _global_atexit
204042e2 g     F .text	00000062 __metal_driver_riscv_plic0_set_priority
20403712 g     F .text	00000050 __metal_controller_interrupt_vector_mode
20401dae g     F .text	000000c8 __call_exitprocs
80000ca0 g       .stack	00000000 _sp
204002d8 g     O .init_array	00000004 _metal_tty_init_ptr
20400194 g     F .init	00000000 _start
20404a08 g     F .text	00000084 __metal_driver_sifive_fe310_g000_hfrosc_get_rate_hz
20401b12 g     F .text	0000002a _lseek
2040400c g     F .text	00000020 __metal_driver_cpu_controller_interrupt
204040a0 g     F .text	0000001e __metal_driver_cpu_get_exception_pc
204028f6 g     F .text	0000001c __metal_interrupt_external_enable
20401d26 g     F .text	00000088 __register_exitproc
20405f6e g     F .text	00000040 __metal_driver_sifive_uart0_putc
204044d6 g     F .text	00000150 __metal_driver_riscv_plic0_init
204046e6 g     F .text	00000050 __metal_driver_riscv_plic0_enable
20405594 g     F .text	0000002c __metal_driver_sifive_gpio0_output
2040315e  w    F .text	00000092 metal_lc6_interrupt_vector_handler
20402848 g     F .text	0000001a __metal_myhart_id
20405b66 g     F .text	0000002e __metal_driver_gpio_get_interrupt_id
204029e4  w    F .text	0000008e metal_software_interrupt_vector_handler
20403c4a g     F .text	0000002a __metal_driver_riscv_cpu_controller_interrupt_disable
204019d4 g     F .text	00000028 _close_r
20406004 g     F .text	00000020 __metal_driver_sifive_uart0_get_baud_rate
2040230c g     F .text	000000da __metal_driver_riscv_clint0_register
800007b0 g     O .data	00000008 __metal_dt_clint_2000000
20401150 g     F .text	00000110 __swsetup_r
2040152e g     F .text	0000009e __sfp
20406358 g     F .text	00000048 metal_clock_set_rate_hz
204018ee g     F .text	00000030 __sread
204054e6 g     F .text	0000003e __metal_driver_sifive_gpio0_enable_input
204002b6  w    F .init	00000000 secondary_main
204029b6  w    F .text	0000002e metal_interrupt_vector_handler
20401a7a g     F .text	00000002 __malloc_lock
20405e12 g     F .text	00000038 __metal_driver_sifive_uart0_rx_interrupt_disable
204013aa g     F .text	00000064 _fflush_r
204042a8 g     F .text	0000003a __metal_plic0_get_threshold
2040527c g     F .text	0000002e __metal_driver_sifive_fe310_g000_prci_get_reg
204003a4 g     O .rodata	00000020 __sf_fake_stdin
2040385e g     F .text	000000bc __metal_local_interrupt_enable
204025e6 g     F .text	00000132 __metal_driver_riscv_clint0_command_request
2040172c g     F .text	00000010 memset
204030cc  w    F .text	00000092 metal_lc5_interrupt_vector_handler
20400f80 g     F .text	00000028 main
800007f0 g       .data	00000000 metal_segment_data_target_end
20405ef4 g     F .text	0000004a __metal_driver_sifive_uart0_set_rx_watermark
800007cc g     O .data	00000008 __metal_driver_vtable_sifive_fe310_g000_hfrosc
20403ee8 g     F .text	00000062 __metal_driver_cpu_set_sw_ipi
20403fac g     F .text	00000060 __metal_driver_cpu_get_msip
2040648c g     F .text	00000016 metal_shutdown
80000000 g       .rodata	00000000 metal_segment_itim_target_end
204040be g     F .text	00000020 __metal_driver_cpu_set_exception_pc
204041e0 g     F .text	0000003c __metal_plic0_claim_interrupt
20405ec4 g     F .text	00000030 __metal_driver_sifive_uart0_get_tx_watermark
204019a2 g     F .text	00000006 __sclose
204034ca  w    F .text	00000092 metal_lc12_interrupt_vector_handler
204017e8 g     F .text	000000de _malloc_r
2040240e g     F .text	0000001c __metal_driver_riscv_clint0_get_vector_mode
800007c8 g     O .data	00000004 __metal_dt_prci_10008000
20403d72 g     F .text	00000046 __metal_driver_cpu_timebase_get
2040487a g     F .text	0000009c __metal_driver_riscv_plic0_affinity_disable
20400000 g       .init	00000000 _enter
20406450 g     F .text	0000001a metal_cpu_get_current_hartid
20404b04 g     F .text	00000074 __metal_driver_sifive_fe310_g000_hfxosc_get_rate_hz
20406500 g       .text	00000000 __metal_vector_table
20400f48 g       *ABS*	00000000 metal_segment_itim_source_start
800007ac  w    O .data	00000004 __metal_cpu_table
80000088 g     O .data	000003d0 __metal_dt_cpu_0_interrupt_controller
204002b4 g     F .init	00000002 _fini
20404344 g     F .text	00000034 __metal_driver_riscv_plic0_get_priority
20400334 g     F .ctors	0000002a use_hfxosc
20402862 g     F .text	00000018 __metal_interrupt_global_enable
20401c42 g     F .text	0000000a atexit
20401fba g     F .text	00000026 metal_tty_putc_raw
204019a8 g     F .text	0000002c _write_r
204028c2 g     F .text	0000001a __metal_interrupt_timer_enable
20405fae g     F .text	00000056 __metal_driver_sifive_uart0_getc
20402534 g     F .text	000000b2 __metal_driver_riscv_clint0_disable
800007a0 g     O .data	00000004 _impure_ptr
20403e1e g     F .text	00000076 __metal_driver_cpu_mtimecmp_set
20401260 g     F .text	0000014a __sflush_r
2040646a g     F .text	00000022 __metal_shutdown_exit
204047b6 g     F .text	00000028 __metal_driver_riscv_plic0_get_threshold
20404ca2 g     F .text	000000a4 __metal_driver_sifive_fe310_g000_pll_init
80000078 g     O .data	0000000c __metal_dt_clock_5
80000000 g       *ABS*	00000000 metal_dtim_0_memory_start
204052aa g     F .text	00000038 __metal_driver_sifive_fe310_g000_prci_set_reg
204065e2 g     F .text	0000001e __metal_driver_fixed_clock_get_rate_hz
20402482 g     F .text	000000b2 __metal_driver_riscv_clint0_enable
800007e4 g     O .data	00000004 __metal_driver_vtable_sifive_test0
20406638 g       *ABS*	00000000 metal_segment_data_source_start
20400178 g       .init	00000000 early_trap_vector
800014a0 g       .heap	00000000 metal_segment_heap_target_end
20403762 g     F .text	00000098 __metal_controller_interrupt_vector
80000784 g     O .data	0000000c __metal_dt_clock_1
80000458 g     O .data	00000300 __metal_dt_interrupt_controller_c000000
20401638 g     F .text	00000058 __swhatbuf_r
20405686 g     F .text	00000046 __metal_driver_sifive_gpio0_output_clear
20402b7a g     F .text	00000066 __metal_default_timer_handler
20401bd4 g     F .text	0000006e _write
20404432 g     F .text	000000a4 __metal_plic0_handler
20402f16  w    F .text	00000092 metal_lc2_interrupt_vector_handler
20403680  w    F .text	00000092 metal_lc15_interrupt_vector_handler
20406400 g     F .text	00000026 metal_cpu_interrupt_controller
800007c4 g     O .data	00000004 __metal_dt_test_100000
2040191e g     F .text	0000004e __swrite
20401c58 g     F .text	0000002c exit
204015cc g     F .text	0000006c _fwalk_reent
20406600 g     F .text	00000022 __metal_driver_fixed_clock_set_rate_hz
204003c4 g     O .rodata	00000020 __sf_fake_stdout
800007c0 g     O .data	00000004 __metal_dt_gpio_10012000
2040299e g     F .text	00000018 __metal_default_interrupt_handler
2040200c g     F .text	0000002e metal_uart_putc
20401b3c g     F .text	0000002a _read
20401f7a  w    F .text	00000014 metal_fini_run
2040556a g     F .text	0000002a __metal_driver_sifive_gpio0_input
20402c00 g     F .text	00000178 __metal_exception_handler
20402df2  w    F .text	00000092 metal_lc0_interrupt_vector_handler
20406622 g     F .text	00000014 _exit
20403db8 g     F .text	00000066 __metal_driver_cpu_mtime_get
20401690 g     F .text	0000009c __smakebuf_r
204023e6 g     F .text	00000028 __metal_driver_riscv_clint0_vector_register
800007f4 g     O .bss	00000004 __malloc_sbrk_start
204035ee  w    F .text	00000092 metal_lc14_interrupt_vector_handler
800007d4 g     O .data	00000008 __metal_driver_vtable_sifive_fe310_g000_hfxosc
20402284 g     F .text	00000088 __metal_driver_riscv_clint0_init
800007f0 g     O .bss	00000004 __malloc_free_list
20400308 g     F .ctors	0000002c metal_sifive_fe310_g000_pll_init
20403eaa g     F .text	00000014 __metal_driver_cpu_get_timer_interrupt_id
20404378 g     F .text	000000a2 __metal_plic0_enable
20400090  w      .init	00000000 __register_frame_info
20404a8c g     F .text	00000022 __metal_driver_sifive_fe310_g000_hfrosc_set_rate_hz
20403ebe g     F .text	00000016 __metal_driver_cpu_sw_controller_interrupt
2040295a g     F .text	0000002c __metal_interrupt_local_disable
204028aa g     F .text	00000018 __metal_interrupt_software_disable
20401fe0 g     F .text	0000002c metal_uart_init
80000778 g     O .data	0000000c __metal_dt_clock_3
20404262 g     F .text	00000046 __metal_plic0_set_threshold
204047de g     F .text	0000009c __metal_driver_riscv_plic0_affinity_enable
20401aaa g     F .text	00000022 _close
800007dc g     O .data	00000008 __metal_driver_vtable_sifive_fe310_g000_prci
00000000 g       *ABS*	00000000 __metal_boot_hart
20404626 g     F .text	000000c0 __metal_driver_riscv_plic0_register



Disassembly of section .init:

20400000 <_enter>:
_enter():
/home/khj/Desktop/hello_standalone/freedom-metal/src/entry.S:24
     * it's not valid to obtain the address of any symbol without GP
     * configured.  The C environment might go ahead and do this again, but
     * that's safe as it's a fixed register. */
.option push
.option norelax
    la gp, __global_pointer$
20400000:	5fc01197          	auipc	gp,0x5fc01
20400004:	fa018193          	addi	gp,gp,-96 # 80000fa0 <__global_pointer$>
/home/khj/Desktop/hello_standalone/freedom-metal/src/entry.S:28
.option pop

    /* trap over the chicken bit register clearing, aloe & fe310 dont have it */
    la t0, 1f
20400008:	00000297          	auipc	t0,0x0
2040000c:	01828293          	addi	t0,t0,24 # 20400020 <_enter+0x20>
/home/khj/Desktop/hello_standalone/freedom-metal/src/entry.S:29
    csrw mtvec, t0
20400010:	30529073          	csrw	mtvec,t0
/home/khj/Desktop/hello_standalone/freedom-metal/src/entry.S:31
    /* chicken bit is enable if core are sifive series. */
    la t0, __metal_chicken_bit
20400014:	00100293          	li	t0,1
/home/khj/Desktop/hello_standalone/freedom-metal/src/entry.S:32
    beqz t0, 1f
20400018:	00028463          	beqz	t0,20400020 <_enter+0x20>
/home/khj/Desktop/hello_standalone/freedom-metal/src/entry.S:34
    /* If set, always clear the feature disable register for all cores series */
    csrwi 0x7C1, 0
2040001c:	7c105073          	csrwi	0x7c1,0
/home/khj/Desktop/hello_standalone/freedom-metal/src/entry.S:39
.align 4
1:
    /* Set up a simple trap vector to catch anything that goes wrong early in
     * the boot process. */
    la t0, early_trap_vector
20400020:	00000297          	auipc	t0,0x0
20400024:	15828293          	addi	t0,t0,344 # 20400178 <early_trap_vector>
/home/khj/Desktop/hello_standalone/freedom-metal/src/entry.S:40
    csrw mtvec, t0
20400028:	30529073          	csrw	mtvec,t0
/home/khj/Desktop/hello_standalone/freedom-metal/src/entry.S:48
     * C, so here we set up a C environment. First we set up a stack pointer,
     * which is left as a weak reference in order to allow initialization
     * routines that do not need a stack to be set up to transparently be
     * called. */
    .weak __metal_stack_pointer
    la sp, __metal_stack_pointer
2040002c:	dfc00117          	auipc	sp,0xdfc00
20400030:	fd410113          	addi	sp,sp,-44 # 0 <__metal_boot_hart>
/home/khj/Desktop/hello_standalone/freedom-metal/src/entry.S:55
   /* The METAL is designed for a bare-metal environment and therefore is expected
    * to define its own stack pointer. We also align the stack pointer here
    * because the only RISC-V ABI that's currently defined, mandates 16-byte
    * stack alignment. */

    bne sp, zero, 1f
20400034:	00011463          	bnez	sp,2040003c <_enter+0x3c>
/home/khj/Desktop/hello_standalone/freedom-metal/src/entry.S:56
    la sp, _sp
20400038:	d0018113          	addi	sp,gp,-768 # 80000ca0 <_sp>
/home/khj/Desktop/hello_standalone/freedom-metal/src/entry.S:59
1:
    /* Increment by hartid number of stack sizes */
    csrr a0, mhartid
2040003c:	f1402573          	csrr	a0,mhartid
/home/khj/Desktop/hello_standalone/freedom-metal/src/entry.S:60
    li t0, 0
20400040:	4281                	li	t0,0
/home/khj/Desktop/hello_standalone/freedom-metal/src/entry.S:61
    la t1, __stack_size
20400042:	40000313          	li	t1,1024
/home/khj/Desktop/hello_standalone/freedom-metal/src/entry.S:63
1:
    andi sp, sp, -16
20400046:	ff017113          	andi	sp,sp,-16
/home/khj/Desktop/hello_standalone/freedom-metal/src/entry.S:64
    beq t0, a0, 1f
2040004a:	00a28563          	beq	t0,a0,20400054 <_enter+0x54>
/home/khj/Desktop/hello_standalone/freedom-metal/src/entry.S:65
    add sp, sp, t1
2040004e:	911a                	add	sp,sp,t1
/home/khj/Desktop/hello_standalone/freedom-metal/src/entry.S:66
    addi t0, t0, 1
20400050:	0285                	addi	t0,t0,1
/home/khj/Desktop/hello_standalone/freedom-metal/src/entry.S:67
    j 1b
20400052:	bfd5                	j	20400046 <_enter+0x46>
/home/khj/Desktop/hello_standalone/freedom-metal/src/entry.S:76
     * just skip over the call entirely.   Note that __metal_initialize isn't
     * actually a full C function, as it doesn't end up with the .bss or .data
     * segments having been initialized.  This is done to avoid putting a
     * burden on systems that can be initialized without having a C environment
     * set up. */
    la ra, __metal_before_start
20400054:	00000097          	auipc	ra,0x0
20400058:	04a08093          	addi	ra,ra,74 # 2040009e <__metal_before_start>
/home/khj/Desktop/hello_standalone/freedom-metal/src/entry.S:77
    beqz ra, 1f
2040005c:	00008363          	beqz	ra,20400062 <_enter+0x62>
/home/khj/Desktop/hello_standalone/freedom-metal/src/entry.S:78
    jalr ra
20400060:	9082                	jalr	ra
/home/khj/Desktop/hello_standalone/freedom-metal/src/entry.S:84
1:

    /* At this point we can enter the C runtime's startup file.  The arguments
     * to this function are designed to match those provided to the SEE, just
     * so we don't have to write another ABI. */
    csrr a0, mhartid
20400062:	f1402573          	csrr	a0,mhartid
/home/khj/Desktop/hello_standalone/freedom-metal/src/entry.S:85
    li a1, 0
20400066:	4581                	li	a1,0
/home/khj/Desktop/hello_standalone/freedom-metal/src/entry.S:86
    li a2, 0
20400068:	4601                	li	a2,0
/home/khj/Desktop/hello_standalone/freedom-metal/src/entry.S:87
    call _start
2040006a:	222d                	jal	20400194 <_start>
/home/khj/Desktop/hello_standalone/freedom-metal/src/entry.S:92

    /* If we've made it back here then there's probably something wrong.  We
     * allow the METAL to register a handler here. */
    .weak __metal_after_main
    la ra, __metal_after_main
2040006c:	dfc00097          	auipc	ra,0xdfc00
20400070:	f9408093          	addi	ra,ra,-108 # 0 <__metal_boot_hart>
/home/khj/Desktop/hello_standalone/freedom-metal/src/entry.S:93
    beqz ra, 1f
20400074:	00008363          	beqz	ra,2040007a <_enter+0x7a>
/home/khj/Desktop/hello_standalone/freedom-metal/src/entry.S:94
    jalr ra
20400078:	9082                	jalr	ra
/home/khj/Desktop/hello_standalone/freedom-metal/src/entry.S:99
1:

    /* If that handler returns then there's not a whole lot we can do.  Just
     * try to make some noise. */
     la t0, 1f
2040007a:	00000297          	auipc	t0,0x0
2040007e:	00c28293          	addi	t0,t0,12 # 20400086 <_enter+0x86>
/home/khj/Desktop/hello_standalone/freedom-metal/src/entry.S:100
     csrw mtvec, t0
20400082:	30529073          	csrw	mtvec,t0
/home/khj/Desktop/hello_standalone/freedom-metal/src/entry.S:102
1:
     lw t1, 0(x0)
20400086:	00002303          	lw	t1,0(zero) # 0 <__metal_boot_hart>
/home/khj/Desktop/hello_standalone/freedom-metal/src/entry.S:103
     j 1b
2040008a:	bff5                	j	20400086 <_enter+0x86>
2040008c:	0000                	unimp
	...

20400090 <__register_frame_info>:
__register_frame_info():
/home/khj/Desktop/hello_standalone/freedom-metal/src/entry.S:117
.weak __register_frame_info
.global __register_frame_info
.section .text.metal.init.__register_frame_info
__register_frame_info:
    .cfi_startproc
    ret
20400090:	8082                	ret

20400092 <_metal_memory_scrub>:
_metal_memory_scrub():
/home/khj/Desktop/hello_standalone/freedom-metal/src/scrub.S:19
.type _metal_memory_scrub, @function
_metal_memory_scrub:
    /* Zero out memory */
1:
#if __riscv_xlen == 32
    sw      x0, 0(t1)
20400092:	00032023          	sw	zero,0(t1)
/home/khj/Desktop/hello_standalone/freedom-metal/src/scrub.S:20
    addi    t1, t1, 4
20400096:	0311                	addi	t1,t1,4
/home/khj/Desktop/hello_standalone/freedom-metal/src/scrub.S:21
    blt     t1, t2, 1b
20400098:	fe734de3          	blt	t1,t2,20400092 <_metal_memory_scrub>
/home/khj/Desktop/hello_standalone/freedom-metal/src/scrub.S:27
#else
    sd      x0, 0(t1)
    addi    t1, t1, 8
    blt     t1, t2, 1b
#endif
    ret
2040009c:	8082                	ret

2040009e <__metal_before_start>:
__metal_before_start():
/home/khj/Desktop/hello_standalone/freedom-metal/src/scrub.S:38
.weak __metal_before_start
.global __metal_before_start
.type __metal_before_start, @function
__metal_before_start:
    /* Save caller ra */
    mv      s0, ra
2040009e:	8406                	mv	s0,ra
/home/khj/Desktop/hello_standalone/freedom-metal/src/scrub.S:40

    la      t0, __metal_eccscrub_bit
204000a0:	dfc00297          	auipc	t0,0xdfc00
204000a4:	f6028293          	addi	t0,t0,-160 # 0 <__metal_boot_hart>
/home/khj/Desktop/hello_standalone/freedom-metal/src/scrub.S:41
    beqz    t0, skip_scrub
204000a8:	0c028563          	beqz	t0,20400172 <skip_scrub>
/home/khj/Desktop/hello_standalone/freedom-metal/src/scrub.S:43

    la      t0, __metal_boot_hart
204000ac:	dfc00297          	auipc	t0,0xdfc00
204000b0:	f5428293          	addi	t0,t0,-172 # 0 <__metal_boot_hart>
/home/khj/Desktop/hello_standalone/freedom-metal/src/scrub.S:44
    csrr    a5, mhartid
204000b4:	f14027f3          	csrr	a5,mhartid
/home/khj/Desktop/hello_standalone/freedom-metal/src/scrub.S:46
    /* Disable machine interrupts to be safe */
    li      a3, 8
204000b8:	46a1                	li	a3,8
/home/khj/Desktop/hello_standalone/freedom-metal/src/scrub.S:47
    csrc    mstatus, a3
204000ba:	3006b073          	csrc	mstatus,a3
/home/khj/Desktop/hello_standalone/freedom-metal/src/scrub.S:48
    bne     a5, t0, wait_scrub
204000be:	0a579663          	bne	a5,t0,2040016a <wait_scrub>
/home/khj/Desktop/hello_standalone/freedom-metal/src/scrub.S:53

    /* Zero out itim memory. */
    .weak metal_itim_0_memory_start
    .weak metal_itim_0_memory_end
    la      t1, metal_itim_0_memory_start
204000c2:	dfc00317          	auipc	t1,0xdfc00
204000c6:	f3e30313          	addi	t1,t1,-194 # 0 <__metal_boot_hart>
/home/khj/Desktop/hello_standalone/freedom-metal/src/scrub.S:54
    la      t2, metal_itim_0_memory_end
204000ca:	dfc00397          	auipc	t2,0xdfc00
204000ce:	f3638393          	addi	t2,t2,-202 # 0 <__metal_boot_hart>
/home/khj/Desktop/hello_standalone/freedom-metal/src/scrub.S:55
    beq     t1, t2, dtim_scrub
204000d2:	00730e63          	beq	t1,t2,204000ee <dtim_scrub>
/home/khj/Desktop/hello_standalone/freedom-metal/src/scrub.S:56
    jal     _metal_memory_scrub
204000d6:	3f75                	jal	20400092 <_metal_memory_scrub>
/home/khj/Desktop/hello_standalone/freedom-metal/src/scrub.S:59
    .weak metal_itim_1_memory_start
    .weak metal_itim_1_memory_end
    la      t1, metal_itim_1_memory_start
204000d8:	dfc00317          	auipc	t1,0xdfc00
204000dc:	f2830313          	addi	t1,t1,-216 # 0 <__metal_boot_hart>
/home/khj/Desktop/hello_standalone/freedom-metal/src/scrub.S:60
    la      t2, metal_itim_1_memory_end
204000e0:	dfc00397          	auipc	t2,0xdfc00
204000e4:	f2038393          	addi	t2,t2,-224 # 0 <__metal_boot_hart>
/home/khj/Desktop/hello_standalone/freedom-metal/src/scrub.S:61
    beq     t1, t2, dtim_scrub
204000e8:	00730363          	beq	t1,t2,204000ee <dtim_scrub>
/home/khj/Desktop/hello_standalone/freedom-metal/src/scrub.S:62
    jal     _metal_memory_scrub
204000ec:	375d                	jal	20400092 <_metal_memory_scrub>

204000ee <dtim_scrub>:
dtim_scrub():
/home/khj/Desktop/hello_standalone/freedom-metal/src/scrub.S:68

dtim_scrub:
    /* Zero out dtim memory. */
    .weak metal_dtim_0_memory_start
    .weak metal_dtim_0_memory_end
    la      t1, metal_dtim_0_memory_start
204000ee:	5fc00317          	auipc	t1,0x5fc00
204000f2:	f1230313          	addi	t1,t1,-238 # 80000000 <metal_dtim_0_memory_start>
/home/khj/Desktop/hello_standalone/freedom-metal/src/scrub.S:69
    la      t2, metal_dtim_0_memory_end
204000f6:	5fc10397          	auipc	t2,0x5fc10
204000fa:	f0a38393          	addi	t2,t2,-246 # 80010000 <metal_dtim_0_memory_end>
/home/khj/Desktop/hello_standalone/freedom-metal/src/scrub.S:70
    beq     t1, t2, ils_scrub
204000fe:	00730363          	beq	t1,t2,20400104 <ils_scrub>
/home/khj/Desktop/hello_standalone/freedom-metal/src/scrub.S:71
    jal     _metal_memory_scrub
20400102:	3f41                	jal	20400092 <_metal_memory_scrub>

20400104 <ils_scrub>:
ils_scrub():
/home/khj/Desktop/hello_standalone/freedom-metal/src/scrub.S:77

ils_scrub:
    /* Zero out ils memory. */
    .weak metal_ils_0_memory_start
    .weak metal_ils_0_memory_end
    la      t1, metal_ils_0_memory_start
20400104:	dfc00317          	auipc	t1,0xdfc00
20400108:	efc30313          	addi	t1,t1,-260 # 0 <__metal_boot_hart>
/home/khj/Desktop/hello_standalone/freedom-metal/src/scrub.S:78
    la      t2, metal_ils_0_memory_end
2040010c:	dfc00397          	auipc	t2,0xdfc00
20400110:	ef438393          	addi	t2,t2,-268 # 0 <__metal_boot_hart>
/home/khj/Desktop/hello_standalone/freedom-metal/src/scrub.S:79
    beq     t1, t2, dls_scrub
20400114:	00730363          	beq	t1,t2,2040011a <dls_scrub>
/home/khj/Desktop/hello_standalone/freedom-metal/src/scrub.S:80
    jal     _metal_memory_scrub
20400118:	3fad                	jal	20400092 <_metal_memory_scrub>

2040011a <dls_scrub>:
dls_scrub():
/home/khj/Desktop/hello_standalone/freedom-metal/src/scrub.S:86

dls_scrub:
    /* Zero out dls memory. */
    .weak metal_dls_0_memory_start
    .weak metal_dls_0_memory_end
    la      t1, metal_dls_0_memory_start
2040011a:	dfc00317          	auipc	t1,0xdfc00
2040011e:	ee630313          	addi	t1,t1,-282 # 0 <__metal_boot_hart>
/home/khj/Desktop/hello_standalone/freedom-metal/src/scrub.S:87
    la      t2, metal_dls_0_memory_end
20400122:	dfc00397          	auipc	t2,0xdfc00
20400126:	ede38393          	addi	t2,t2,-290 # 0 <__metal_boot_hart>
/home/khj/Desktop/hello_standalone/freedom-metal/src/scrub.S:88
    beq     t1, t2, sram_scrub
2040012a:	00730363          	beq	t1,t2,20400130 <sram_scrub>
/home/khj/Desktop/hello_standalone/freedom-metal/src/scrub.S:89
    jal     _metal_memory_scrub
2040012e:	3795                	jal	20400092 <_metal_memory_scrub>

20400130 <sram_scrub>:
sram_scrub():
/home/khj/Desktop/hello_standalone/freedom-metal/src/scrub.S:95

sram_scrub:
    /* Zero out sram memory. */
    .weak metal_sys_sram_0_memory_start
    .weak metal_sys_sram_0_memory_end
    la      t1, metal_sys_sram_0_memory_start
20400130:	dfc00317          	auipc	t1,0xdfc00
20400134:	ed030313          	addi	t1,t1,-304 # 0 <__metal_boot_hart>
/home/khj/Desktop/hello_standalone/freedom-metal/src/scrub.S:96
    la      t2, metal_sys_sram_0_memory_end
20400138:	dfc00397          	auipc	t2,0xdfc00
2040013c:	ec838393          	addi	t2,t2,-312 # 0 <__metal_boot_hart>
/home/khj/Desktop/hello_standalone/freedom-metal/src/scrub.S:97
    beq     t1, t2, memory_scrub
20400140:	00730363          	beq	t1,t2,20400146 <memory_scrub>
/home/khj/Desktop/hello_standalone/freedom-metal/src/scrub.S:98
    jal     _metal_memory_scrub
20400144:	37b9                	jal	20400092 <_metal_memory_scrub>

20400146 <memory_scrub>:
memory_scrub():
/home/khj/Desktop/hello_standalone/freedom-metal/src/scrub.S:104

memory_scrub:
    /* Zero out main memory. */
    .weak metal_memory_0_memory_start
    .weak metal_memory_0_memory_end
    la      t1, metal_memory_0_memory_start
20400146:	dfc00317          	auipc	t1,0xdfc00
2040014a:	eba30313          	addi	t1,t1,-326 # 0 <__metal_boot_hart>
/home/khj/Desktop/hello_standalone/freedom-metal/src/scrub.S:105
    la      t2, metal_memory_0_memory_end
2040014e:	dfc00397          	auipc	t2,0xdfc00
20400152:	eb238393          	addi	t2,t2,-334 # 0 <__metal_boot_hart>
/home/khj/Desktop/hello_standalone/freedom-metal/src/scrub.S:106
    beq     t1, t2, done_scrub
20400156:	00730363          	beq	t1,t2,2040015c <done_scrub>
/home/khj/Desktop/hello_standalone/freedom-metal/src/scrub.S:107
    jal     _metal_memory_scrub
2040015a:	3f25                	jal	20400092 <_metal_memory_scrub>

2040015c <done_scrub>:
done_scrub():
/home/khj/Desktop/hello_standalone/freedom-metal/src/scrub.S:110

done_scrub:
    lui     a4, 0x2000
2040015c:	02000737          	lui	a4,0x2000
/home/khj/Desktop/hello_standalone/freedom-metal/src/scrub.S:111
    li      a5,1
20400160:	4785                	li	a5,1
/home/khj/Desktop/hello_standalone/freedom-metal/src/scrub.S:112
    sw      a5,0(a4)
20400162:	c31c                	sw	a5,0(a4)
/home/khj/Desktop/hello_standalone/freedom-metal/src/scrub.S:113
    fence   w,rw
20400164:	0130000f          	fence	w,rw
/home/khj/Desktop/hello_standalone/freedom-metal/src/scrub.S:114
    j skip_scrub
20400168:	a029                	j	20400172 <skip_scrub>

2040016a <wait_scrub>:
wait_scrub():
/home/khj/Desktop/hello_standalone/freedom-metal/src/scrub.S:117

wait_scrub:
    lui     a4, 0x2000
2040016a:	02000737          	lui	a4,0x2000
/home/khj/Desktop/hello_standalone/freedom-metal/src/scrub.S:118
    lw      a5, 0(a4)
2040016e:	431c                	lw	a5,0(a4)
/home/khj/Desktop/hello_standalone/freedom-metal/src/scrub.S:119
    beqz    a5, wait_scrub
20400170:	dfed                	beqz	a5,2040016a <wait_scrub>

20400172 <skip_scrub>:
skip_scrub():
/home/khj/Desktop/hello_standalone/freedom-metal/src/scrub.S:123

skip_scrub:
    /* Restore caller ra */
    mv      ra, s0
20400172:	80a2                	mv	ra,s0
/home/khj/Desktop/hello_standalone/freedom-metal/src/scrub.S:124
    ret
20400174:	8082                	ret
	...

20400178 <early_trap_vector>:
early_trap_vector():
/home/khj/Desktop/hello_standalone/freedom-metal/src/trap.S:64
.section .text.metal.init.trapvec
.global early_trap_vector
.align 2
early_trap_vector:
    .cfi_startproc
    csrr t0, mcause
20400178:	342022f3          	csrr	t0,mcause
/home/khj/Desktop/hello_standalone/freedom-metal/src/trap.S:65
    csrr t1, mepc
2040017c:	34102373          	csrr	t1,mepc
/home/khj/Desktop/hello_standalone/freedom-metal/src/trap.S:66
    csrr t2, mtval
20400180:	343023f3          	csrr	t2,mtval
/home/khj/Desktop/hello_standalone/freedom-metal/src/trap.S:67
    j early_trap_vector
20400184:	bfd5                	j	20400178 <early_trap_vector>

20400186 <__metal_synchronize_harts>:
__metal_synchronize_harts():
/home/khj/Desktop/hello_standalone/freedom-metal/src/synchronize_harts.c:19
/*
 * _synchronize_harts() is called by crt0.S to cause harts > 0 to wait for
 * hart 0 to finish copying the datat section, zeroing the BSS, and running
 * the libc contstructors.
 */
__attribute__((section(".init"))) void __metal_synchronize_harts() {
20400186:	1141                	addi	sp,sp,-16
20400188:	c622                	sw	s0,12(sp)
2040018a:	0800                	addi	s0,sp,16
/home/khj/Desktop/hello_standalone/freedom-metal/src/synchronize_harts.c:66
        while (METAL_MSIP(msip_base, hart) == 1)
            ;
    }

#endif /* __METAL_DT_MAX_HARTS > 1 */
}
2040018c:	0001                	nop
2040018e:	4432                	lw	s0,12(sp)
20400190:	0141                	addi	sp,sp,16
20400192:	8082                	ret

20400194 <_start>:
_start():
/home/khj/Desktop/hello_standalone/freedom-metal/gloss/crt0.S:36
.cfi_startproc
.cfi_undefined ra

  /* This is a bit funky: it's not usually sane for _start to return, but in
   * this case we actually want to in order to signal an error to the METAL. */
  mv s0, ra
20400194:	8406                	mv	s0,ra
/home/khj/Desktop/hello_standalone/freedom-metal/gloss/crt0.S:44
   * safely perform any access that may be relaxed without GP being set.  This
   * is done with relaxation disabled to avoid relaxing the address calculation
   * to just "addi gp, gp, 0". */
.option push
.option norelax
  la gp, __global_pointer$
20400196:	5fc01197          	auipc	gp,0x5fc01
2040019a:	e0a18193          	addi	gp,gp,-502 # 80000fa0 <__global_pointer$>
/home/khj/Desktop/hello_standalone/freedom-metal/gloss/crt0.S:50
.option pop

  /* Stack pointer is expected to be initialized before _start */

  /* If we're not hart 0, skip the initialization work */
  la t0, __metal_boot_hart
2040019e:	00000293          	li	t0,0
/home/khj/Desktop/hello_standalone/freedom-metal/gloss/crt0.S:51
  bne a0, t0, _skip_init
204001a2:	0a551763          	bne	a0,t0,20400250 <_skip_init>
/home/khj/Desktop/hello_standalone/freedom-metal/gloss/crt0.S:60
   * boot and then need to get relocated into a non-persistant writable memory
   * before C code can execute.  If this is the case we do so here.  This step
   * is optional: if the METAL provides an environment in which this relocation
   * is not necessary then it must simply set metal_segment_data_source_start to
   * be equal to metal_segment_data_target_start. */
  la t0, metal_segment_data_source_start
204001a6:	00006297          	auipc	t0,0x6
204001aa:	49228293          	addi	t0,t0,1170 # 20406638 <metal_segment_data_source_start>
/home/khj/Desktop/hello_standalone/freedom-metal/gloss/crt0.S:61
  la t1, metal_segment_data_target_start
204001ae:	5fc00317          	auipc	t1,0x5fc00
204001b2:	e5230313          	addi	t1,t1,-430 # 80000000 <metal_dtim_0_memory_start>
/home/khj/Desktop/hello_standalone/freedom-metal/gloss/crt0.S:62
  la t2, metal_segment_data_target_end
204001b6:	5fc00397          	auipc	t2,0x5fc00
204001ba:	63a38393          	addi	t2,t2,1594 # 800007f0 <__tls_base>
/home/khj/Desktop/hello_standalone/freedom-metal/gloss/crt0.S:64

  beq t0, t1, 2f
204001be:	00628c63          	beq	t0,t1,204001d6 <_start+0x42>
/home/khj/Desktop/hello_standalone/freedom-metal/gloss/crt0.S:65
  bge t1, t2, 2f
204001c2:	00735a63          	bge	t1,t2,204001d6 <_start+0x42>
/home/khj/Desktop/hello_standalone/freedom-metal/gloss/crt0.S:69

1:
#if __riscv_xlen == 32
  lw   a0, 0(t0)
204001c6:	0002a503          	lw	a0,0(t0)
/home/khj/Desktop/hello_standalone/freedom-metal/gloss/crt0.S:70
  addi t0, t0, 4
204001ca:	0291                	addi	t0,t0,4
/home/khj/Desktop/hello_standalone/freedom-metal/gloss/crt0.S:71
  sw   a0, 0(t1)
204001cc:	00a32023          	sw	a0,0(t1)
/home/khj/Desktop/hello_standalone/freedom-metal/gloss/crt0.S:72
  addi t1, t1, 4
204001d0:	0311                	addi	t1,t1,4
/home/khj/Desktop/hello_standalone/freedom-metal/gloss/crt0.S:73
  blt  t1, t2, 1b
204001d2:	fe734ae3          	blt	t1,t2,204001c6 <_start+0x32>
/home/khj/Desktop/hello_standalone/freedom-metal/gloss/crt0.S:84
  blt  t1, t2, 1b
#endif
2:

  /* Copy the ITIM section */
  la t0, metal_segment_itim_source_start
204001d6:	00001297          	auipc	t0,0x1
204001da:	d7228293          	addi	t0,t0,-654 # 20400f48 <metal_segment_itim_source_start>
/home/khj/Desktop/hello_standalone/freedom-metal/gloss/crt0.S:85
  la t1, metal_segment_itim_target_start
204001de:	5fc00317          	auipc	t1,0x5fc00
204001e2:	e2230313          	addi	t1,t1,-478 # 80000000 <metal_dtim_0_memory_start>
/home/khj/Desktop/hello_standalone/freedom-metal/gloss/crt0.S:86
  la t2, metal_segment_itim_target_end
204001e6:	5fc00397          	auipc	t2,0x5fc00
204001ea:	e1a38393          	addi	t2,t2,-486 # 80000000 <metal_dtim_0_memory_start>
/home/khj/Desktop/hello_standalone/freedom-metal/gloss/crt0.S:88

  beq t0, t1, 2f
204001ee:	00628c63          	beq	t0,t1,20400206 <_start+0x72>
/home/khj/Desktop/hello_standalone/freedom-metal/gloss/crt0.S:89
  bge t1, t2, 2f
204001f2:	00735a63          	bge	t1,t2,20400206 <_start+0x72>
/home/khj/Desktop/hello_standalone/freedom-metal/gloss/crt0.S:93

1:
#if __riscv_xlen == 32
  lw   a0, 0(t0)
204001f6:	0002a503          	lw	a0,0(t0)
/home/khj/Desktop/hello_standalone/freedom-metal/gloss/crt0.S:94
  addi t0, t0, 4
204001fa:	0291                	addi	t0,t0,4
/home/khj/Desktop/hello_standalone/freedom-metal/gloss/crt0.S:95
  sw   a0, 0(t1)
204001fc:	00a32023          	sw	a0,0(t1)
/home/khj/Desktop/hello_standalone/freedom-metal/gloss/crt0.S:96
  addi t1, t1, 4
20400200:	0311                	addi	t1,t1,4
/home/khj/Desktop/hello_standalone/freedom-metal/gloss/crt0.S:97
  blt  t1, t2, 1b
20400202:	fe734ae3          	blt	t1,t2,204001f6 <_start+0x62>
/home/khj/Desktop/hello_standalone/freedom-metal/gloss/crt0.S:109
#endif
2:

  /* Fence all subsequent instruction fetches until after the ITIM writes
     complete */
  fence.i
20400206:	0000100f          	fence.i
/home/khj/Desktop/hello_standalone/freedom-metal/gloss/crt0.S:112

  /* Zero the BSS segment. */
  la t1, metal_segment_bss_target_start
2040020a:	5fc00317          	auipc	t1,0x5fc00
2040020e:	5e630313          	addi	t1,t1,1510 # 800007f0 <__tls_base>
/home/khj/Desktop/hello_standalone/freedom-metal/gloss/crt0.S:113
  la t2, metal_segment_bss_target_end
20400212:	8f418393          	addi	t2,gp,-1804 # 80000894 <metal_segment_bss_target_end>
/home/khj/Desktop/hello_standalone/freedom-metal/gloss/crt0.S:115

  bge t1, t2, 2f
20400216:	00735763          	bge	t1,t2,20400224 <_start+0x90>
/home/khj/Desktop/hello_standalone/freedom-metal/gloss/crt0.S:119

1:
#if __riscv_xlen == 32
  sw   x0, 0(t1)
2040021a:	00032023          	sw	zero,0(t1)
/home/khj/Desktop/hello_standalone/freedom-metal/gloss/crt0.S:120
  addi t1, t1, 4
2040021e:	0311                	addi	t1,t1,4
/home/khj/Desktop/hello_standalone/freedom-metal/gloss/crt0.S:121
  blt  t1, t2, 1b
20400220:	fe734de3          	blt	t1,t2,2040021a <_start+0x86>
/home/khj/Desktop/hello_standalone/freedom-metal/gloss/crt0.S:131
#endif
2:

  /* Set TLS pointer */
  .weak __tls_base	
  la tp, __tls_base
20400224:	5fc00217          	auipc	tp,0x5fc00
20400228:	5cc20213          	addi	tp,tp,1484 # 800007f0 <__tls_base>
/home/khj/Desktop/hello_standalone/freedom-metal/gloss/crt0.S:136

  /* At this point we're in an environment that can execute C code.  The first
   * thing to do is to make the callback to the parent environment if it's been
   * requested to do so. */
  beqz a2, 1f
2040022c:	c211                	beqz	a2,20400230 <_start+0x9c>
/home/khj/Desktop/hello_standalone/freedom-metal/gloss/crt0.S:137
  jalr a2
2040022e:	9602                	jalr	a2
/home/khj/Desktop/hello_standalone/freedom-metal/gloss/crt0.S:141
1:

  /* The RISC-V port only uses new-style constructors and destructors. */
  la a0, __libc_fini_array
20400230:	00002517          	auipc	a0,0x2
20400234:	a5450513          	addi	a0,a0,-1452 # 20401c84 <__libc_fini_array>
/home/khj/Desktop/hello_standalone/freedom-metal/gloss/crt0.S:142
  call atexit
20400238:	20b010ef          	jal	ra,20401c42 <atexit>
/home/khj/Desktop/hello_standalone/freedom-metal/gloss/crt0.S:143
  call __libc_init_array
2040023c:	281010ef          	jal	ra,20401cbc <__libc_init_array>
/home/khj/Desktop/hello_standalone/freedom-metal/gloss/crt0.S:147

  /* Register metal_fini_run as a destructor and call metal_init_run to
   * run and setup Metal constructors */
  la a0, metal_fini_run
20400240:	00002517          	auipc	a0,0x2
20400244:	d3a50513          	addi	a0,a0,-710 # 20401f7a <metal_fini_run>
/home/khj/Desktop/hello_standalone/freedom-metal/gloss/crt0.S:148
  call atexit
20400248:	1fb010ef          	jal	ra,20401c42 <atexit>
/home/khj/Desktop/hello_standalone/freedom-metal/gloss/crt0.S:149
  call metal_init_run
2040024c:	51b010ef          	jal	ra,20401f66 <metal_init_run>

20400250 <_skip_init>:
_skip_init():
/home/khj/Desktop/hello_standalone/freedom-metal/gloss/crt0.S:155

_skip_init:

  /* Synchronize harts so that secondary harts wait until hart 0 finishes
     initializing */
  call __metal_synchronize_harts
20400250:	3f1d                	jal	20400186 <__metal_synchronize_harts>
/home/khj/Desktop/hello_standalone/freedom-metal/gloss/crt0.S:158

  /* Disable and clear all interrupt sources */
  li   a3, -1
20400252:	56fd                	li	a3,-1
/home/khj/Desktop/hello_standalone/freedom-metal/gloss/crt0.S:159
  csrc mie, a3
20400254:	3046b073          	csrc	mie,a3
/home/khj/Desktop/hello_standalone/freedom-metal/gloss/crt0.S:160
  csrc mip, a3
20400258:	3446b073          	csrc	mip,a3
/home/khj/Desktop/hello_standalone/freedom-metal/gloss/crt0.S:164

  /* The delegation CSRs exist if user mode interrupts (N extension) or
   * supervisor mode (S extension) are supported */
  csrr a5, misa
2040025c:	301027f3          	csrr	a5,misa
/home/khj/Desktop/hello_standalone/freedom-metal/gloss/crt0.S:165
  lui  a4, 0x42
20400260:	00042737          	lui	a4,0x42
/home/khj/Desktop/hello_standalone/freedom-metal/gloss/crt0.S:166
  and  a4, a4, a5
20400264:	8f7d                	and	a4,a4,a5
/home/khj/Desktop/hello_standalone/freedom-metal/gloss/crt0.S:167
  beqz a4, 1f
20400266:	c709                	beqz	a4,20400270 <_skip_init+0x20>
/home/khj/Desktop/hello_standalone/freedom-metal/gloss/crt0.S:168
  csrc mideleg, a3
20400268:	3036b073          	csrc	mideleg,a3
/home/khj/Desktop/hello_standalone/freedom-metal/gloss/crt0.S:169
  csrc medeleg, a3
2040026c:	3026b073          	csrc	medeleg,a3
/home/khj/Desktop/hello_standalone/freedom-metal/gloss/crt0.S:173
1:

  /* The satp CSR exists if supervisor mode (S extension) is supported */
  lui  a4, 0x40
20400270:	00040737          	lui	a4,0x40
/home/khj/Desktop/hello_standalone/freedom-metal/gloss/crt0.S:174
  and  a4, a4, a5
20400274:	8f7d                	and	a4,a4,a5
/home/khj/Desktop/hello_standalone/freedom-metal/gloss/crt0.S:175
  beqz a4, 1f
20400276:	c319                	beqz	a4,2040027c <_skip_init+0x2c>
/home/khj/Desktop/hello_standalone/freedom-metal/gloss/crt0.S:176
  csrc satp, a3
20400278:	1806b073          	csrc	satp,a3
/home/khj/Desktop/hello_standalone/freedom-metal/gloss/crt0.S:180
1:

  /* Check RISC-V isa and enable FS bits if Floating Point architecture. */
  li   a4, 0x10028
2040027c:	00010737          	lui	a4,0x10
20400280:	02870713          	addi	a4,a4,40 # 10028 <__heap_size+0xf828>
/home/khj/Desktop/hello_standalone/freedom-metal/gloss/crt0.S:181
  and  a5, a5, a4
20400284:	8ff9                	and	a5,a5,a4
/home/khj/Desktop/hello_standalone/freedom-metal/gloss/crt0.S:182
  beqz a5, 1f
20400286:	cb89                	beqz	a5,20400298 <_skip_init+0x48>
/home/khj/Desktop/hello_standalone/freedom-metal/gloss/crt0.S:183
  csrr a5, mstatus
20400288:	300027f3          	csrr	a5,mstatus
/home/khj/Desktop/hello_standalone/freedom-metal/gloss/crt0.S:184
  lui  a4, 0x2
2040028c:	6709                	lui	a4,0x2
/home/khj/Desktop/hello_standalone/freedom-metal/gloss/crt0.S:185
  or   a5, a5, a4
2040028e:	8fd9                	or	a5,a5,a4
/home/khj/Desktop/hello_standalone/freedom-metal/gloss/crt0.S:186
  csrw mstatus, a5
20400290:	30079073          	csrw	mstatus,a5
/home/khj/Desktop/hello_standalone/freedom-metal/gloss/crt0.S:187
  csrwi fcsr, 0
20400294:	00305073          	csrwi	fcsr,0
/home/khj/Desktop/hello_standalone/freedom-metal/gloss/crt0.S:193
1:

  /* This is a C runtime, so main() is defined to have some arguments.  Since
   * there's nothing sane the METAL can pass we don't bother with that but
   * instead just setup as close to a NOP as we can. */
  li a0, 1     /* argc=1 */
20400298:	4505                	li	a0,1
/home/khj/Desktop/hello_standalone/freedom-metal/gloss/crt0.S:194
  la a1, argv  /* argv = {"libgloss", NULL} */
2040029a:	00000597          	auipc	a1,0x0
2040029e:	14a58593          	addi	a1,a1,330 # 204003e4 <argv>
/home/khj/Desktop/hello_standalone/freedom-metal/gloss/crt0.S:195
  la a2, envp  /* envp = {NULL} */
204002a2:	00000617          	auipc	a2,0x0
204002a6:	14660613          	addi	a2,a2,326 # 204003e8 <envp>
/home/khj/Desktop/hello_standalone/freedom-metal/gloss/crt0.S:196
  call secondary_main
204002aa:	2031                	jal	204002b6 <secondary_main>
/home/khj/Desktop/hello_standalone/freedom-metal/gloss/crt0.S:202

  /* Call exit to handle libc's cleanup routines.  Under normal contains this
   * shouldn't even get called, but I'm still not using a tail call here
   * because returning to the METAL is the right thing to do in pathological
   * situations. */
  call exit
204002ac:	1ad010ef          	jal	ra,20401c58 <exit>
/home/khj/Desktop/hello_standalone/freedom-metal/gloss/crt0.S:207

  /* And here's where we return.  Again, it's a bit odd but the METAL defines
   * this as a bad idea (ie, as opposed to leaving it undefined) and at this
   * point it's really the only thing left to do. */
  mv ra, s0
204002b0:	80a2                	mv	ra,s0
/home/khj/Desktop/hello_standalone/freedom-metal/gloss/crt0.S:208
  ret
204002b2:	8082                	ret

204002b4 <_fini>:
_init():
/home/khj/Desktop/hello_standalone/freedom-metal/gloss/crt0.S:220
.type   _init, @function
.global _fini
.type   _fini, @function
_init:
_fini:
  ret
204002b4:	8082                	ret

204002b6 <secondary_main>:
secondary_main():
/home/khj/Desktop/hello_standalone/freedom-metal/gloss/crt0.S:231
.weak   secondary_main
.global secondary_main
.type   secondary_main, @function

secondary_main:
  addi sp, sp, -16
204002b6:	1141                	addi	sp,sp,-16
/home/khj/Desktop/hello_standalone/freedom-metal/gloss/crt0.S:233
#if __riscv_xlen == 32
  sw ra, 4(sp)
204002b8:	c206                	sw	ra,4(sp)
/home/khj/Desktop/hello_standalone/freedom-metal/gloss/crt0.S:237
#else
  sd ra, 8(sp)
#endif
  csrr t0, mhartid
204002ba:	f14022f3          	csrr	t0,mhartid
/home/khj/Desktop/hello_standalone/freedom-metal/gloss/crt0.S:238
  la t1, __metal_boot_hart
204002be:	00000313          	li	t1,0
/home/khj/Desktop/hello_standalone/freedom-metal/gloss/crt0.S:239
  beq t0, t1, 2f
204002c2:	00628563          	beq	t0,t1,204002cc <secondary_main+0x16>
/home/khj/Desktop/hello_standalone/freedom-metal/gloss/crt0.S:241
1:
  wfi
204002c6:	10500073          	wfi
/home/khj/Desktop/hello_standalone/freedom-metal/gloss/crt0.S:242
  j 1b
204002ca:	bff5                	j	204002c6 <secondary_main+0x10>
/home/khj/Desktop/hello_standalone/freedom-metal/gloss/crt0.S:244
2:
  call main
204002cc:	4b5000ef          	jal	ra,20400f80 <main>
/home/khj/Desktop/hello_standalone/freedom-metal/gloss/crt0.S:246
#if __riscv_xlen == 32
  lw ra, 4(sp)
204002d0:	4092                	lw	ra,4(sp)
/home/khj/Desktop/hello_standalone/freedom-metal/gloss/crt0.S:250
#else
  ld ra, 8(sp)
#endif
  addi sp, sp, 16
204002d2:	0141                	addi	sp,sp,16
/home/khj/Desktop/hello_standalone/freedom-metal/gloss/crt0.S:251
  ret
204002d4:	8082                	ret

Disassembly of section .ctors:

204002e4 <metal_tty_init>:
metal_tty_init():
/home/khj/Desktop/hello_standalone/freedom-metal/src/tty.c:35

#ifndef __METAL_DT_STDOUT_UART_BAUD
#define __METAL_DT_STDOUT_UART_BAUD 115200
#endif

METAL_CONSTRUCTOR(metal_tty_init) {
204002e4:	1141                	addi	sp,sp,-16
204002e6:	c606                	sw	ra,12(sp)
204002e8:	c422                	sw	s0,8(sp)
204002ea:	0800                	addi	s0,sp,16
/home/khj/Desktop/hello_standalone/freedom-metal/src/tty.c:36
    metal_uart_init(__METAL_DT_STDOUT_UART_HANDLE, __METAL_DT_STDOUT_UART_BAUD);
204002ec:	67f1                	lui	a5,0x1c
204002ee:	20078593          	addi	a1,a5,512 # 1c200 <__heap_size+0x1ba00>
204002f2:	800007b7          	lui	a5,0x80000
204002f6:	75878513          	addi	a0,a5,1880 # 80000758 <metal_dtim_0_memory_end+0xffff0758>
204002fa:	4e7010ef          	jal	ra,20401fe0 <metal_uart_init>
/home/khj/Desktop/hello_standalone/freedom-metal/src/tty.c:37
}
204002fe:	0001                	nop
20400300:	40b2                	lw	ra,12(sp)
20400302:	4422                	lw	s0,8(sp)
20400304:	0141                	addi	sp,sp,16
20400306:	8082                	ret

20400308 <metal_sifive_fe310_g000_pll_init>:
metal_sifive_fe310_g000_pll_init():
/home/khj/Desktop/hello_standalone/freedom-metal/src/drivers/sifive_fe310-g000_pll.c:151
    return pll_input_rate * config->multiplier / config->divisor;
}

#ifdef __METAL_DT_SIFIVE_FE310_G000_PLL_HANDLE

METAL_CONSTRUCTOR(metal_sifive_fe310_g000_pll_init) {
20400308:	1101                	addi	sp,sp,-32
2040030a:	ce06                	sw	ra,28(sp)
2040030c:	cc22                	sw	s0,24(sp)
2040030e:	1000                	addi	s0,sp,32
/home/khj/Desktop/hello_standalone/freedom-metal/src/drivers/sifive_fe310-g000_pll.c:152
    long init_rate = __metal_driver_sifive_fe310_g000_pll_init_rate();
20400310:	10b040ef          	jal	ra,20404c1a <__metal_driver_sifive_fe310_g000_pll_init_rate>
20400314:	fea42623          	sw	a0,-20(s0)
/home/khj/Desktop/hello_standalone/freedom-metal/src/drivers/sifive_fe310-g000_pll.c:154
    /* If the PLL init_rate is zero, don't initialize the PLL */
    if (init_rate != 0)
20400318:	fec42783          	lw	a5,-20(s0)
2040031c:	c799                	beqz	a5,2040032a <metal_sifive_fe310_g000_pll_init+0x22>
/home/khj/Desktop/hello_standalone/freedom-metal/src/drivers/sifive_fe310-g000_pll.c:155
        __metal_driver_sifive_fe310_g000_pll_init(
2040031e:	800007b7          	lui	a5,0x80000
20400322:	79078513          	addi	a0,a5,1936 # 80000790 <metal_dtim_0_memory_end+0xffff0790>
20400326:	17d040ef          	jal	ra,20404ca2 <__metal_driver_sifive_fe310_g000_pll_init>
/home/khj/Desktop/hello_standalone/freedom-metal/src/drivers/sifive_fe310-g000_pll.c:157
            __METAL_DT_SIFIVE_FE310_G000_PLL_HANDLE);
}
2040032a:	0001                	nop
2040032c:	40f2                	lw	ra,28(sp)
2040032e:	4462                	lw	s0,24(sp)
20400330:	6105                	addi	sp,sp,32
20400332:	8082                	ret

20400334 <use_hfxosc>:
use_hfxosc():
/home/khj/Desktop/hello_standalone/freedom-metal/src/drivers/sifive_fe310-g000_pll.c:388

    return __metal_driver_sifive_fe310_g000_pll_get_rate_hz(clock);
}

#ifdef __METAL_DT_SIFIVE_FE310_G000_PLL_HANDLE
METAL_CONSTRUCTOR(use_hfxosc) {
20400334:	1101                	addi	sp,sp,-32
20400336:	ce06                	sw	ra,28(sp)
20400338:	cc22                	sw	s0,24(sp)
2040033a:	1000                	addi	s0,sp,32
/home/khj/Desktop/hello_standalone/freedom-metal/src/drivers/sifive_fe310-g000_pll.c:389
    long init_rate = __metal_driver_sifive_fe310_g000_pll_init_rate();
2040033c:	0df040ef          	jal	ra,20404c1a <__metal_driver_sifive_fe310_g000_pll_init_rate>
20400340:	fea42623          	sw	a0,-20(s0)
/home/khj/Desktop/hello_standalone/freedom-metal/src/drivers/sifive_fe310-g000_pll.c:390
    metal_clock_set_rate_hz(&__METAL_DT_SIFIVE_FE310_G000_PLL_HANDLE->clock,
20400344:	fec42583          	lw	a1,-20(s0)
20400348:	800007b7          	lui	a5,0x80000
2040034c:	79078513          	addi	a0,a5,1936 # 80000790 <metal_dtim_0_memory_end+0xffff0790>
20400350:	008060ef          	jal	ra,20406358 <metal_clock_set_rate_hz>
/home/khj/Desktop/hello_standalone/freedom-metal/src/drivers/sifive_fe310-g000_pll.c:392
                            init_rate);
}
20400354:	0001                	nop
20400356:	40f2                	lw	ra,28(sp)
20400358:	4462                	lw	s0,24(sp)
2040035a:	6105                	addi	sp,sp,32
2040035c:	8082                	ret

Disassembly of section .text:

20400f80 <main>:
main():
/home/khj/Desktop/hello_standalone/src/hello.c:6
/* Copyright 2019 SiFive, Inc */
/* SPDX-License-Identifier: Apache-2.0 */

#include <stdio.h>

int main() {
20400f80:	1141                	addi	sp,sp,-16
20400f82:	c606                	sw	ra,12(sp)
20400f84:	c422                	sw	s0,8(sp)
20400f86:	0800                	addi	s0,sp,16
/home/khj/Desktop/hello_standalone/src/hello.c:7
    printf("Hello, World!\n");
20400f88:	204007b7          	lui	a5,0x20400
20400f8c:	36078513          	addi	a0,a5,864 # 20400360 <use_hfxosc+0x2c>
20400f90:	28cd                	jal	20401082 <puts>
/home/khj/Desktop/hello_standalone/src/hello.c:8
    printf("Hello, SemiFive!\n");
20400f92:	204007b7          	lui	a5,0x20400
20400f96:	37078513          	addi	a0,a5,880 # 20400370 <use_hfxosc+0x3c>
20400f9a:	20e5                	jal	20401082 <puts>
20400f9c:	4781                	li	a5,0
/home/khj/Desktop/hello_standalone/src/hello.c:9
}
20400f9e:	853e                	mv	a0,a5
20400fa0:	40b2                	lw	ra,12(sp)
20400fa2:	4422                	lw	s0,8(sp)
20400fa4:	0141                	addi	sp,sp,16
20400fa6:	8082                	ret

20400fa8 <_puts_r>:
_puts_r():
20400fa8:	1101                	addi	sp,sp,-32
20400faa:	ca26                	sw	s1,20(sp)
20400fac:	c84a                	sw	s2,16(sp)
20400fae:	ce06                	sw	ra,28(sp)
20400fb0:	cc22                	sw	s0,24(sp)
20400fb2:	c64e                	sw	s3,12(sp)
20400fb4:	c452                	sw	s4,8(sp)
20400fb6:	84aa                	mv	s1,a0
20400fb8:	892e                	mv	s2,a1
20400fba:	c501                	beqz	a0,20400fc2 <_puts_r+0x1a>
20400fbc:	4d1c                	lw	a5,24(a0)
20400fbe:	e391                	bnez	a5,20400fc2 <_puts_r+0x1a>
20400fc0:	2311                	jal	204014c4 <__sinit>
20400fc2:	4c9c                	lw	a5,24(s1)
20400fc4:	4480                	lw	s0,8(s1)
20400fc6:	e399                	bnez	a5,20400fcc <_puts_r+0x24>
20400fc8:	8526                	mv	a0,s1
20400fca:	29ed                	jal	204014c4 <__sinit>
20400fcc:	fffff797          	auipc	a5,0xfffff
20400fd0:	3d878793          	addi	a5,a5,984 # 204003a4 <__sf_fake_stdin>
20400fd4:	02f41c63          	bne	s0,a5,2040100c <_puts_r+0x64>
20400fd8:	40c0                	lw	s0,4(s1)
20400fda:	00c45783          	lhu	a5,12(s0)
20400fde:	8ba1                	andi	a5,a5,8
20400fe0:	c7b1                	beqz	a5,2040102c <_puts_r+0x84>
20400fe2:	481c                	lw	a5,16(s0)
20400fe4:	c7a1                	beqz	a5,2040102c <_puts_r+0x84>
20400fe6:	59fd                	li	s3,-1
20400fe8:	4a29                	li	s4,10
20400fea:	441c                	lw	a5,8(s0)
20400fec:	00094583          	lbu	a1,0(s2)
20400ff0:	17fd                	addi	a5,a5,-1
20400ff2:	e9b1                	bnez	a1,20401046 <_puts_r+0x9e>
20400ff4:	c41c                	sw	a5,8(s0)
20400ff6:	0607de63          	bgez	a5,20401072 <_puts_r+0xca>
20400ffa:	8622                	mv	a2,s0
20400ffc:	45a9                	li	a1,10
20400ffe:	8526                	mv	a0,s1
20401000:	2841                	jal	20401090 <__swbuf_r>
20401002:	57fd                	li	a5,-1
20401004:	02f50863          	beq	a0,a5,20401034 <_puts_r+0x8c>
20401008:	4529                	li	a0,10
2040100a:	a035                	j	20401036 <_puts_r+0x8e>
2040100c:	fffff797          	auipc	a5,0xfffff
20401010:	3b878793          	addi	a5,a5,952 # 204003c4 <__sf_fake_stdout>
20401014:	00f41463          	bne	s0,a5,2040101c <_puts_r+0x74>
20401018:	4480                	lw	s0,8(s1)
2040101a:	b7c1                	j	20400fda <_puts_r+0x32>
2040101c:	fffff797          	auipc	a5,0xfffff
20401020:	36878793          	addi	a5,a5,872 # 20400384 <__sf_fake_stderr>
20401024:	faf41be3          	bne	s0,a5,20400fda <_puts_r+0x32>
20401028:	44c0                	lw	s0,12(s1)
2040102a:	bf45                	j	20400fda <_puts_r+0x32>
2040102c:	85a2                	mv	a1,s0
2040102e:	8526                	mv	a0,s1
20401030:	2205                	jal	20401150 <__swsetup_r>
20401032:	d955                	beqz	a0,20400fe6 <_puts_r+0x3e>
20401034:	557d                	li	a0,-1
20401036:	40f2                	lw	ra,28(sp)
20401038:	4462                	lw	s0,24(sp)
2040103a:	44d2                	lw	s1,20(sp)
2040103c:	4942                	lw	s2,16(sp)
2040103e:	49b2                	lw	s3,12(sp)
20401040:	4a22                	lw	s4,8(sp)
20401042:	6105                	addi	sp,sp,32
20401044:	8082                	ret
20401046:	c41c                	sw	a5,8(s0)
20401048:	0905                	addi	s2,s2,1
2040104a:	0007d763          	bgez	a5,20401058 <_puts_r+0xb0>
2040104e:	4c18                	lw	a4,24(s0)
20401050:	00e7cb63          	blt	a5,a4,20401066 <_puts_r+0xbe>
20401054:	01458963          	beq	a1,s4,20401066 <_puts_r+0xbe>
20401058:	401c                	lw	a5,0(s0)
2040105a:	00178713          	addi	a4,a5,1
2040105e:	c018                	sw	a4,0(s0)
20401060:	00b78023          	sb	a1,0(a5)
20401064:	b759                	j	20400fea <_puts_r+0x42>
20401066:	8622                	mv	a2,s0
20401068:	8526                	mv	a0,s1
2040106a:	201d                	jal	20401090 <__swbuf_r>
2040106c:	f7351fe3          	bne	a0,s3,20400fea <_puts_r+0x42>
20401070:	b7d1                	j	20401034 <_puts_r+0x8c>
20401072:	401c                	lw	a5,0(s0)
20401074:	00178713          	addi	a4,a5,1
20401078:	c018                	sw	a4,0(s0)
2040107a:	4729                	li	a4,10
2040107c:	00e78023          	sb	a4,0(a5)
20401080:	b761                	j	20401008 <_puts_r+0x60>

20401082 <puts>:
puts():
20401082:	5fbff797          	auipc	a5,0x5fbff
20401086:	71e78793          	addi	a5,a5,1822 # 800007a0 <_impure_ptr>
2040108a:	85aa                	mv	a1,a0
2040108c:	4388                	lw	a0,0(a5)
2040108e:	bf29                	j	20400fa8 <_puts_r>

20401090 <__swbuf_r>:
__swbuf_r():
20401090:	1101                	addi	sp,sp,-32
20401092:	cc22                	sw	s0,24(sp)
20401094:	ca26                	sw	s1,20(sp)
20401096:	c84a                	sw	s2,16(sp)
20401098:	ce06                	sw	ra,28(sp)
2040109a:	c64e                	sw	s3,12(sp)
2040109c:	84aa                	mv	s1,a0
2040109e:	892e                	mv	s2,a1
204010a0:	8432                	mv	s0,a2
204010a2:	c501                	beqz	a0,204010aa <__swbuf_r+0x1a>
204010a4:	4d1c                	lw	a5,24(a0)
204010a6:	e391                	bnez	a5,204010aa <__swbuf_r+0x1a>
204010a8:	2931                	jal	204014c4 <__sinit>
204010aa:	fffff797          	auipc	a5,0xfffff
204010ae:	2fa78793          	addi	a5,a5,762 # 204003a4 <__sf_fake_stdin>
204010b2:	06f41963          	bne	s0,a5,20401124 <__swbuf_r+0x94>
204010b6:	40c0                	lw	s0,4(s1)
204010b8:	4c1c                	lw	a5,24(s0)
204010ba:	c41c                	sw	a5,8(s0)
204010bc:	00c45783          	lhu	a5,12(s0)
204010c0:	8ba1                	andi	a5,a5,8
204010c2:	c3c9                	beqz	a5,20401144 <__swbuf_r+0xb4>
204010c4:	481c                	lw	a5,16(s0)
204010c6:	cfbd                	beqz	a5,20401144 <__swbuf_r+0xb4>
204010c8:	481c                	lw	a5,16(s0)
204010ca:	4008                	lw	a0,0(s0)
204010cc:	0ff97993          	andi	s3,s2,255
204010d0:	0ff97913          	andi	s2,s2,255
204010d4:	8d1d                	sub	a0,a0,a5
204010d6:	485c                	lw	a5,20(s0)
204010d8:	00f54663          	blt	a0,a5,204010e4 <__swbuf_r+0x54>
204010dc:	85a2                	mv	a1,s0
204010de:	8526                	mv	a0,s1
204010e0:	24e9                	jal	204013aa <_fflush_r>
204010e2:	e52d                	bnez	a0,2040114c <__swbuf_r+0xbc>
204010e4:	441c                	lw	a5,8(s0)
204010e6:	0505                	addi	a0,a0,1
204010e8:	17fd                	addi	a5,a5,-1
204010ea:	c41c                	sw	a5,8(s0)
204010ec:	401c                	lw	a5,0(s0)
204010ee:	00178713          	addi	a4,a5,1
204010f2:	c018                	sw	a4,0(s0)
204010f4:	01378023          	sb	s3,0(a5)
204010f8:	485c                	lw	a5,20(s0)
204010fa:	00a78963          	beq	a5,a0,2040110c <__swbuf_r+0x7c>
204010fe:	00c45783          	lhu	a5,12(s0)
20401102:	8b85                	andi	a5,a5,1
20401104:	cb81                	beqz	a5,20401114 <__swbuf_r+0x84>
20401106:	47a9                	li	a5,10
20401108:	00f91663          	bne	s2,a5,20401114 <__swbuf_r+0x84>
2040110c:	85a2                	mv	a1,s0
2040110e:	8526                	mv	a0,s1
20401110:	2c69                	jal	204013aa <_fflush_r>
20401112:	ed0d                	bnez	a0,2040114c <__swbuf_r+0xbc>
20401114:	40f2                	lw	ra,28(sp)
20401116:	4462                	lw	s0,24(sp)
20401118:	854a                	mv	a0,s2
2040111a:	44d2                	lw	s1,20(sp)
2040111c:	4942                	lw	s2,16(sp)
2040111e:	49b2                	lw	s3,12(sp)
20401120:	6105                	addi	sp,sp,32
20401122:	8082                	ret
20401124:	fffff797          	auipc	a5,0xfffff
20401128:	2a078793          	addi	a5,a5,672 # 204003c4 <__sf_fake_stdout>
2040112c:	00f41463          	bne	s0,a5,20401134 <__swbuf_r+0xa4>
20401130:	4480                	lw	s0,8(s1)
20401132:	b759                	j	204010b8 <__swbuf_r+0x28>
20401134:	fffff797          	auipc	a5,0xfffff
20401138:	25078793          	addi	a5,a5,592 # 20400384 <__sf_fake_stderr>
2040113c:	f6f41ee3          	bne	s0,a5,204010b8 <__swbuf_r+0x28>
20401140:	44c0                	lw	s0,12(s1)
20401142:	bf9d                	j	204010b8 <__swbuf_r+0x28>
20401144:	85a2                	mv	a1,s0
20401146:	8526                	mv	a0,s1
20401148:	2021                	jal	20401150 <__swsetup_r>
2040114a:	dd3d                	beqz	a0,204010c8 <__swbuf_r+0x38>
2040114c:	597d                	li	s2,-1
2040114e:	b7d9                	j	20401114 <__swbuf_r+0x84>

20401150 <__swsetup_r>:
__swsetup_r():
20401150:	1141                	addi	sp,sp,-16
20401152:	5fbff797          	auipc	a5,0x5fbff
20401156:	64e78793          	addi	a5,a5,1614 # 800007a0 <_impure_ptr>
2040115a:	c226                	sw	s1,4(sp)
2040115c:	4384                	lw	s1,0(a5)
2040115e:	c422                	sw	s0,8(sp)
20401160:	c04a                	sw	s2,0(sp)
20401162:	c606                	sw	ra,12(sp)
20401164:	892a                	mv	s2,a0
20401166:	842e                	mv	s0,a1
20401168:	c489                	beqz	s1,20401172 <__swsetup_r+0x22>
2040116a:	4c9c                	lw	a5,24(s1)
2040116c:	e399                	bnez	a5,20401172 <__swsetup_r+0x22>
2040116e:	8526                	mv	a0,s1
20401170:	2e91                	jal	204014c4 <__sinit>
20401172:	fffff797          	auipc	a5,0xfffff
20401176:	23278793          	addi	a5,a5,562 # 204003a4 <__sf_fake_stdin>
2040117a:	02f41c63          	bne	s0,a5,204011b2 <__swsetup_r+0x62>
2040117e:	40c0                	lw	s0,4(s1)
20401180:	00c41703          	lh	a4,12(s0)
20401184:	01071793          	slli	a5,a4,0x10
20401188:	83c1                	srli	a5,a5,0x10
2040118a:	0087f693          	andi	a3,a5,8
2040118e:	eeb5                	bnez	a3,2040120a <__swsetup_r+0xba>
20401190:	0107f693          	andi	a3,a5,16
20401194:	ee9d                	bnez	a3,204011d2 <__swsetup_r+0x82>
20401196:	47a5                	li	a5,9
20401198:	00f92023          	sw	a5,0(s2)
2040119c:	04076713          	ori	a4,a4,64
204011a0:	00e41623          	sh	a4,12(s0)
204011a4:	557d                	li	a0,-1
204011a6:	40b2                	lw	ra,12(sp)
204011a8:	4422                	lw	s0,8(sp)
204011aa:	4492                	lw	s1,4(sp)
204011ac:	4902                	lw	s2,0(sp)
204011ae:	0141                	addi	sp,sp,16
204011b0:	8082                	ret
204011b2:	fffff797          	auipc	a5,0xfffff
204011b6:	21278793          	addi	a5,a5,530 # 204003c4 <__sf_fake_stdout>
204011ba:	00f41463          	bne	s0,a5,204011c2 <__swsetup_r+0x72>
204011be:	4480                	lw	s0,8(s1)
204011c0:	b7c1                	j	20401180 <__swsetup_r+0x30>
204011c2:	fffff797          	auipc	a5,0xfffff
204011c6:	1c278793          	addi	a5,a5,450 # 20400384 <__sf_fake_stderr>
204011ca:	faf41be3          	bne	s0,a5,20401180 <__swsetup_r+0x30>
204011ce:	44c0                	lw	s0,12(s1)
204011d0:	bf45                	j	20401180 <__swsetup_r+0x30>
204011d2:	8b91                	andi	a5,a5,4
204011d4:	c78d                	beqz	a5,204011fe <__swsetup_r+0xae>
204011d6:	584c                	lw	a1,52(s0)
204011d8:	c989                	beqz	a1,204011ea <__swsetup_r+0x9a>
204011da:	04440793          	addi	a5,s0,68
204011de:	00f58463          	beq	a1,a5,204011e6 <__swsetup_r+0x96>
204011e2:	854a                	mv	a0,s2
204011e4:	2ba1                	jal	2040173c <_free_r>
204011e6:	02042a23          	sw	zero,52(s0)
204011ea:	00c45783          	lhu	a5,12(s0)
204011ee:	00042223          	sw	zero,4(s0)
204011f2:	fdb7f793          	andi	a5,a5,-37
204011f6:	00f41623          	sh	a5,12(s0)
204011fa:	481c                	lw	a5,16(s0)
204011fc:	c01c                	sw	a5,0(s0)
204011fe:	00c45783          	lhu	a5,12(s0)
20401202:	0087e793          	ori	a5,a5,8
20401206:	00f41623          	sh	a5,12(s0)
2040120a:	481c                	lw	a5,16(s0)
2040120c:	ef81                	bnez	a5,20401224 <__swsetup_r+0xd4>
2040120e:	00c45783          	lhu	a5,12(s0)
20401212:	20000713          	li	a4,512
20401216:	2807f793          	andi	a5,a5,640
2040121a:	00e78563          	beq	a5,a4,20401224 <__swsetup_r+0xd4>
2040121e:	85a2                	mv	a1,s0
20401220:	854a                	mv	a0,s2
20401222:	21bd                	jal	20401690 <__smakebuf_r>
20401224:	00c45783          	lhu	a5,12(s0)
20401228:	0017f713          	andi	a4,a5,1
2040122c:	c705                	beqz	a4,20401254 <__swsetup_r+0x104>
2040122e:	485c                	lw	a5,20(s0)
20401230:	00042423          	sw	zero,8(s0)
20401234:	40f007b3          	neg	a5,a5
20401238:	cc1c                	sw	a5,24(s0)
2040123a:	481c                	lw	a5,16(s0)
2040123c:	4501                	li	a0,0
2040123e:	f7a5                	bnez	a5,204011a6 <__swsetup_r+0x56>
20401240:	00c41783          	lh	a5,12(s0)
20401244:	0807f713          	andi	a4,a5,128
20401248:	df39                	beqz	a4,204011a6 <__swsetup_r+0x56>
2040124a:	0407e793          	ori	a5,a5,64
2040124e:	00f41623          	sh	a5,12(s0)
20401252:	bf89                	j	204011a4 <__swsetup_r+0x54>
20401254:	8b89                	andi	a5,a5,2
20401256:	4701                	li	a4,0
20401258:	e391                	bnez	a5,2040125c <__swsetup_r+0x10c>
2040125a:	4858                	lw	a4,20(s0)
2040125c:	c418                	sw	a4,8(s0)
2040125e:	bff1                	j	2040123a <__swsetup_r+0xea>

20401260 <__sflush_r>:
__sflush_r():
20401260:	00c5d783          	lhu	a5,12(a1)
20401264:	1101                	addi	sp,sp,-32
20401266:	cc22                	sw	s0,24(sp)
20401268:	ca26                	sw	s1,20(sp)
2040126a:	ce06                	sw	ra,28(sp)
2040126c:	c84a                	sw	s2,16(sp)
2040126e:	c64e                	sw	s3,12(sp)
20401270:	0087f713          	andi	a4,a5,8
20401274:	84aa                	mv	s1,a0
20401276:	842e                	mv	s0,a1
20401278:	e765                	bnez	a4,20401360 <__sflush_r+0x100>
2040127a:	41d8                	lw	a4,4(a1)
2040127c:	00e04763          	bgtz	a4,2040128a <__sflush_r+0x2a>
20401280:	41b8                	lw	a4,64(a1)
20401282:	00e04463          	bgtz	a4,2040128a <__sflush_r+0x2a>
20401286:	4501                	li	a0,0
20401288:	a0c1                	j	20401348 <__sflush_r+0xe8>
2040128a:	5458                	lw	a4,44(s0)
2040128c:	df6d                	beqz	a4,20401286 <__sflush_r+0x26>
2040128e:	0004a903          	lw	s2,0(s1)
20401292:	01379693          	slli	a3,a5,0x13
20401296:	0004a023          	sw	zero,0(s1)
2040129a:	0606de63          	bgez	a3,20401316 <__sflush_r+0xb6>
2040129e:	4868                	lw	a0,84(s0)
204012a0:	00c45783          	lhu	a5,12(s0)
204012a4:	8b91                	andi	a5,a5,4
204012a6:	c799                	beqz	a5,204012b4 <__sflush_r+0x54>
204012a8:	405c                	lw	a5,4(s0)
204012aa:	8d1d                	sub	a0,a0,a5
204012ac:	585c                	lw	a5,52(s0)
204012ae:	c399                	beqz	a5,204012b4 <__sflush_r+0x54>
204012b0:	403c                	lw	a5,64(s0)
204012b2:	8d1d                	sub	a0,a0,a5
204012b4:	545c                	lw	a5,44(s0)
204012b6:	500c                	lw	a1,32(s0)
204012b8:	862a                	mv	a2,a0
204012ba:	4681                	li	a3,0
204012bc:	8526                	mv	a0,s1
204012be:	9782                	jalr	a5
204012c0:	57fd                	li	a5,-1
204012c2:	00c45703          	lhu	a4,12(s0)
204012c6:	00f51d63          	bne	a0,a5,204012e0 <__sflush_r+0x80>
204012ca:	4094                	lw	a3,0(s1)
204012cc:	47f5                	li	a5,29
204012ce:	08d7e463          	bltu	a5,a3,20401356 <__sflush_r+0xf6>
204012d2:	204007b7          	lui	a5,0x20400
204012d6:	0785                	addi	a5,a5,1
204012d8:	00d7d7b3          	srl	a5,a5,a3
204012dc:	8b85                	andi	a5,a5,1
204012de:	cfa5                	beqz	a5,20401356 <__sflush_r+0xf6>
204012e0:	481c                	lw	a5,16(s0)
204012e2:	00042223          	sw	zero,4(s0)
204012e6:	c01c                	sw	a5,0(s0)
204012e8:	01371793          	slli	a5,a4,0x13
204012ec:	0007d863          	bgez	a5,204012fc <__sflush_r+0x9c>
204012f0:	57fd                	li	a5,-1
204012f2:	00f51463          	bne	a0,a5,204012fa <__sflush_r+0x9a>
204012f6:	409c                	lw	a5,0(s1)
204012f8:	e391                	bnez	a5,204012fc <__sflush_r+0x9c>
204012fa:	c868                	sw	a0,84(s0)
204012fc:	584c                	lw	a1,52(s0)
204012fe:	0124a023          	sw	s2,0(s1)
20401302:	d1d1                	beqz	a1,20401286 <__sflush_r+0x26>
20401304:	04440793          	addi	a5,s0,68
20401308:	00f58463          	beq	a1,a5,20401310 <__sflush_r+0xb0>
2040130c:	8526                	mv	a0,s1
2040130e:	213d                	jal	2040173c <_free_r>
20401310:	02042a23          	sw	zero,52(s0)
20401314:	bf8d                	j	20401286 <__sflush_r+0x26>
20401316:	500c                	lw	a1,32(s0)
20401318:	4685                	li	a3,1
2040131a:	4601                	li	a2,0
2040131c:	8526                	mv	a0,s1
2040131e:	9702                	jalr	a4
20401320:	57fd                	li	a5,-1
20401322:	f6f51fe3          	bne	a0,a5,204012a0 <__sflush_r+0x40>
20401326:	409c                	lw	a5,0(s1)
20401328:	dfa5                	beqz	a5,204012a0 <__sflush_r+0x40>
2040132a:	4775                	li	a4,29
2040132c:	00e78563          	beq	a5,a4,20401336 <__sflush_r+0xd6>
20401330:	4759                	li	a4,22
20401332:	00e79563          	bne	a5,a4,2040133c <__sflush_r+0xdc>
20401336:	0124a023          	sw	s2,0(s1)
2040133a:	b7b1                	j	20401286 <__sflush_r+0x26>
2040133c:	00c45783          	lhu	a5,12(s0)
20401340:	0407e793          	ori	a5,a5,64
20401344:	00f41623          	sh	a5,12(s0)
20401348:	40f2                	lw	ra,28(sp)
2040134a:	4462                	lw	s0,24(sp)
2040134c:	44d2                	lw	s1,20(sp)
2040134e:	4942                	lw	s2,16(sp)
20401350:	49b2                	lw	s3,12(sp)
20401352:	6105                	addi	sp,sp,32
20401354:	8082                	ret
20401356:	04076713          	ori	a4,a4,64
2040135a:	00e41623          	sh	a4,12(s0)
2040135e:	b7ed                	j	20401348 <__sflush_r+0xe8>
20401360:	0105a983          	lw	s3,16(a1)
20401364:	f20981e3          	beqz	s3,20401286 <__sflush_r+0x26>
20401368:	0005a903          	lw	s2,0(a1)
2040136c:	8b8d                	andi	a5,a5,3
2040136e:	0135a023          	sw	s3,0(a1)
20401372:	41390933          	sub	s2,s2,s3
20401376:	4701                	li	a4,0
20401378:	e391                	bnez	a5,2040137c <__sflush_r+0x11c>
2040137a:	49d8                	lw	a4,20(a1)
2040137c:	c418                	sw	a4,8(s0)
2040137e:	f12054e3          	blez	s2,20401286 <__sflush_r+0x26>
20401382:	541c                	lw	a5,40(s0)
20401384:	500c                	lw	a1,32(s0)
20401386:	86ca                	mv	a3,s2
20401388:	864e                	mv	a2,s3
2040138a:	8526                	mv	a0,s1
2040138c:	9782                	jalr	a5
2040138e:	00a04a63          	bgtz	a0,204013a2 <__sflush_r+0x142>
20401392:	00c45783          	lhu	a5,12(s0)
20401396:	557d                	li	a0,-1
20401398:	0407e793          	ori	a5,a5,64
2040139c:	00f41623          	sh	a5,12(s0)
204013a0:	b765                	j	20401348 <__sflush_r+0xe8>
204013a2:	99aa                	add	s3,s3,a0
204013a4:	40a90933          	sub	s2,s2,a0
204013a8:	bfd9                	j	2040137e <__sflush_r+0x11e>

204013aa <_fflush_r>:
_fflush_r():
204013aa:	499c                	lw	a5,16(a1)
204013ac:	cfb9                	beqz	a5,2040140a <_fflush_r+0x60>
204013ae:	1101                	addi	sp,sp,-32
204013b0:	cc22                	sw	s0,24(sp)
204013b2:	ce06                	sw	ra,28(sp)
204013b4:	842a                	mv	s0,a0
204013b6:	c511                	beqz	a0,204013c2 <_fflush_r+0x18>
204013b8:	4d1c                	lw	a5,24(a0)
204013ba:	e781                	bnez	a5,204013c2 <_fflush_r+0x18>
204013bc:	c62e                	sw	a1,12(sp)
204013be:	2219                	jal	204014c4 <__sinit>
204013c0:	45b2                	lw	a1,12(sp)
204013c2:	fffff797          	auipc	a5,0xfffff
204013c6:	fe278793          	addi	a5,a5,-30 # 204003a4 <__sf_fake_stdin>
204013ca:	00f59b63          	bne	a1,a5,204013e0 <_fflush_r+0x36>
204013ce:	404c                	lw	a1,4(s0)
204013d0:	00c59783          	lh	a5,12(a1)
204013d4:	c795                	beqz	a5,20401400 <_fflush_r+0x56>
204013d6:	8522                	mv	a0,s0
204013d8:	4462                	lw	s0,24(sp)
204013da:	40f2                	lw	ra,28(sp)
204013dc:	6105                	addi	sp,sp,32
204013de:	b549                	j	20401260 <__sflush_r>
204013e0:	fffff797          	auipc	a5,0xfffff
204013e4:	fe478793          	addi	a5,a5,-28 # 204003c4 <__sf_fake_stdout>
204013e8:	00f59463          	bne	a1,a5,204013f0 <_fflush_r+0x46>
204013ec:	440c                	lw	a1,8(s0)
204013ee:	b7cd                	j	204013d0 <_fflush_r+0x26>
204013f0:	fffff797          	auipc	a5,0xfffff
204013f4:	f9478793          	addi	a5,a5,-108 # 20400384 <__sf_fake_stderr>
204013f8:	fcf59ce3          	bne	a1,a5,204013d0 <_fflush_r+0x26>
204013fc:	444c                	lw	a1,12(s0)
204013fe:	bfc9                	j	204013d0 <_fflush_r+0x26>
20401400:	40f2                	lw	ra,28(sp)
20401402:	4462                	lw	s0,24(sp)
20401404:	4501                	li	a0,0
20401406:	6105                	addi	sp,sp,32
20401408:	8082                	ret
2040140a:	4501                	li	a0,0
2040140c:	8082                	ret

2040140e <std>:
std():
2040140e:	1141                	addi	sp,sp,-16
20401410:	c422                	sw	s0,8(sp)
20401412:	c606                	sw	ra,12(sp)
20401414:	842a                	mv	s0,a0
20401416:	00b51623          	sh	a1,12(a0)
2040141a:	00c51723          	sh	a2,14(a0)
2040141e:	00052023          	sw	zero,0(a0)
20401422:	00052223          	sw	zero,4(a0)
20401426:	00052423          	sw	zero,8(a0)
2040142a:	06052223          	sw	zero,100(a0)
2040142e:	00052823          	sw	zero,16(a0)
20401432:	00052a23          	sw	zero,20(a0)
20401436:	00052c23          	sw	zero,24(a0)
2040143a:	4621                	li	a2,8
2040143c:	4581                	li	a1,0
2040143e:	05c50513          	addi	a0,a0,92
20401442:	24ed                	jal	2040172c <memset>
20401444:	00000797          	auipc	a5,0x0
20401448:	4aa78793          	addi	a5,a5,1194 # 204018ee <__sread>
2040144c:	d05c                	sw	a5,36(s0)
2040144e:	00000797          	auipc	a5,0x0
20401452:	4d078793          	addi	a5,a5,1232 # 2040191e <__swrite>
20401456:	d41c                	sw	a5,40(s0)
20401458:	00000797          	auipc	a5,0x0
2040145c:	51478793          	addi	a5,a5,1300 # 2040196c <__sseek>
20401460:	d45c                	sw	a5,44(s0)
20401462:	00000797          	auipc	a5,0x0
20401466:	54078793          	addi	a5,a5,1344 # 204019a2 <__sclose>
2040146a:	d000                	sw	s0,32(s0)
2040146c:	d81c                	sw	a5,48(s0)
2040146e:	40b2                	lw	ra,12(sp)
20401470:	4422                	lw	s0,8(sp)
20401472:	0141                	addi	sp,sp,16
20401474:	8082                	ret

20401476 <_cleanup_r>:
_cleanup_r():
20401476:	00000597          	auipc	a1,0x0
2040147a:	f3458593          	addi	a1,a1,-204 # 204013aa <_fflush_r>
2040147e:	a2b9                	j	204015cc <_fwalk_reent>

20401480 <__sfmoreglue>:
__sfmoreglue():
20401480:	1141                	addi	sp,sp,-16
20401482:	c226                	sw	s1,4(sp)
20401484:	06800613          	li	a2,104
20401488:	fff58493          	addi	s1,a1,-1
2040148c:	02c484b3          	mul	s1,s1,a2
20401490:	c04a                	sw	s2,0(sp)
20401492:	892e                	mv	s2,a1
20401494:	c422                	sw	s0,8(sp)
20401496:	c606                	sw	ra,12(sp)
20401498:	07448593          	addi	a1,s1,116
2040149c:	26b1                	jal	204017e8 <_malloc_r>
2040149e:	842a                	mv	s0,a0
204014a0:	c919                	beqz	a0,204014b6 <__sfmoreglue+0x36>
204014a2:	00052023          	sw	zero,0(a0)
204014a6:	01252223          	sw	s2,4(a0)
204014aa:	0531                	addi	a0,a0,12
204014ac:	c408                	sw	a0,8(s0)
204014ae:	06848613          	addi	a2,s1,104
204014b2:	4581                	li	a1,0
204014b4:	2ca5                	jal	2040172c <memset>
204014b6:	8522                	mv	a0,s0
204014b8:	40b2                	lw	ra,12(sp)
204014ba:	4422                	lw	s0,8(sp)
204014bc:	4492                	lw	s1,4(sp)
204014be:	4902                	lw	s2,0(sp)
204014c0:	0141                	addi	sp,sp,16
204014c2:	8082                	ret

204014c4 <__sinit>:
__sinit():
204014c4:	4d1c                	lw	a5,24(a0)
204014c6:	e3bd                	bnez	a5,2040152c <__sinit+0x68>
204014c8:	1141                	addi	sp,sp,-16
204014ca:	c606                	sw	ra,12(sp)
204014cc:	c422                	sw	s0,8(sp)
204014ce:	00000797          	auipc	a5,0x0
204014d2:	fa878793          	addi	a5,a5,-88 # 20401476 <_cleanup_r>
204014d6:	d51c                	sw	a5,40(a0)
204014d8:	5fbff797          	auipc	a5,0x5fbff
204014dc:	2cc78793          	addi	a5,a5,716 # 800007a4 <_global_impure_ptr>
204014e0:	439c                	lw	a5,0(a5)
204014e2:	04052423          	sw	zero,72(a0)
204014e6:	04052623          	sw	zero,76(a0)
204014ea:	04052823          	sw	zero,80(a0)
204014ee:	00f51463          	bne	a0,a5,204014f6 <__sinit+0x32>
204014f2:	4785                	li	a5,1
204014f4:	cd1c                	sw	a5,24(a0)
204014f6:	842a                	mv	s0,a0
204014f8:	281d                	jal	2040152e <__sfp>
204014fa:	c048                	sw	a0,4(s0)
204014fc:	8522                	mv	a0,s0
204014fe:	2805                	jal	2040152e <__sfp>
20401500:	c408                	sw	a0,8(s0)
20401502:	8522                	mv	a0,s0
20401504:	202d                	jal	2040152e <__sfp>
20401506:	c448                	sw	a0,12(s0)
20401508:	4048                	lw	a0,4(s0)
2040150a:	4601                	li	a2,0
2040150c:	4591                	li	a1,4
2040150e:	3701                	jal	2040140e <std>
20401510:	4408                	lw	a0,8(s0)
20401512:	4605                	li	a2,1
20401514:	45a5                	li	a1,9
20401516:	3de5                	jal	2040140e <std>
20401518:	4448                	lw	a0,12(s0)
2040151a:	4609                	li	a2,2
2040151c:	45c9                	li	a1,18
2040151e:	3dc5                	jal	2040140e <std>
20401520:	4785                	li	a5,1
20401522:	cc1c                	sw	a5,24(s0)
20401524:	40b2                	lw	ra,12(sp)
20401526:	4422                	lw	s0,8(sp)
20401528:	0141                	addi	sp,sp,16
2040152a:	8082                	ret
2040152c:	8082                	ret

2040152e <__sfp>:
__sfp():
2040152e:	1141                	addi	sp,sp,-16
20401530:	5fbff797          	auipc	a5,0x5fbff
20401534:	27478793          	addi	a5,a5,628 # 800007a4 <_global_impure_ptr>
20401538:	c226                	sw	s1,4(sp)
2040153a:	4384                	lw	s1,0(a5)
2040153c:	c04a                	sw	s2,0(sp)
2040153e:	c606                	sw	ra,12(sp)
20401540:	4c9c                	lw	a5,24(s1)
20401542:	c422                	sw	s0,8(sp)
20401544:	892a                	mv	s2,a0
20401546:	e399                	bnez	a5,2040154c <__sfp+0x1e>
20401548:	8526                	mv	a0,s1
2040154a:	3fad                	jal	204014c4 <__sinit>
2040154c:	04848493          	addi	s1,s1,72
20401550:	4480                	lw	s0,8(s1)
20401552:	40dc                	lw	a5,4(s1)
20401554:	17fd                	addi	a5,a5,-1
20401556:	0007d663          	bgez	a5,20401562 <__sfp+0x34>
2040155a:	409c                	lw	a5,0(s1)
2040155c:	cfb1                	beqz	a5,204015b8 <__sfp+0x8a>
2040155e:	4084                	lw	s1,0(s1)
20401560:	bfc5                	j	20401550 <__sfp+0x22>
20401562:	00c41703          	lh	a4,12(s0)
20401566:	e731                	bnez	a4,204015b2 <__sfp+0x84>
20401568:	77c1                	lui	a5,0xffff0
2040156a:	0785                	addi	a5,a5,1
2040156c:	06042223          	sw	zero,100(s0)
20401570:	00042023          	sw	zero,0(s0)
20401574:	00042223          	sw	zero,4(s0)
20401578:	00042423          	sw	zero,8(s0)
2040157c:	c45c                	sw	a5,12(s0)
2040157e:	00042823          	sw	zero,16(s0)
20401582:	00042a23          	sw	zero,20(s0)
20401586:	00042c23          	sw	zero,24(s0)
2040158a:	4621                	li	a2,8
2040158c:	4581                	li	a1,0
2040158e:	05c40513          	addi	a0,s0,92
20401592:	2a69                	jal	2040172c <memset>
20401594:	02042a23          	sw	zero,52(s0)
20401598:	02042c23          	sw	zero,56(s0)
2040159c:	04042423          	sw	zero,72(s0)
204015a0:	04042623          	sw	zero,76(s0)
204015a4:	8522                	mv	a0,s0
204015a6:	40b2                	lw	ra,12(sp)
204015a8:	4422                	lw	s0,8(sp)
204015aa:	4492                	lw	s1,4(sp)
204015ac:	4902                	lw	s2,0(sp)
204015ae:	0141                	addi	sp,sp,16
204015b0:	8082                	ret
204015b2:	06840413          	addi	s0,s0,104
204015b6:	bf79                	j	20401554 <__sfp+0x26>
204015b8:	4591                	li	a1,4
204015ba:	854a                	mv	a0,s2
204015bc:	35d1                	jal	20401480 <__sfmoreglue>
204015be:	c088                	sw	a0,0(s1)
204015c0:	842a                	mv	s0,a0
204015c2:	fd51                	bnez	a0,2040155e <__sfp+0x30>
204015c4:	47b1                	li	a5,12
204015c6:	00f92023          	sw	a5,0(s2)
204015ca:	bfe9                	j	204015a4 <__sfp+0x76>

204015cc <_fwalk_reent>:
_fwalk_reent():
204015cc:	7179                	addi	sp,sp,-48
204015ce:	d422                	sw	s0,40(sp)
204015d0:	d04a                	sw	s2,32(sp)
204015d2:	cc52                	sw	s4,24(sp)
204015d4:	ca56                	sw	s5,20(sp)
204015d6:	c85a                	sw	s6,16(sp)
204015d8:	c65e                	sw	s7,12(sp)
204015da:	d606                	sw	ra,44(sp)
204015dc:	d226                	sw	s1,36(sp)
204015de:	ce4e                	sw	s3,28(sp)
204015e0:	8a2a                	mv	s4,a0
204015e2:	8aae                	mv	s5,a1
204015e4:	04850413          	addi	s0,a0,72
204015e8:	4901                	li	s2,0
204015ea:	4b05                	li	s6,1
204015ec:	5bfd                	li	s7,-1
204015ee:	ec09                	bnez	s0,20401608 <_fwalk_reent+0x3c>
204015f0:	50b2                	lw	ra,44(sp)
204015f2:	5422                	lw	s0,40(sp)
204015f4:	854a                	mv	a0,s2
204015f6:	5492                	lw	s1,36(sp)
204015f8:	5902                	lw	s2,32(sp)
204015fa:	49f2                	lw	s3,28(sp)
204015fc:	4a62                	lw	s4,24(sp)
204015fe:	4ad2                	lw	s5,20(sp)
20401600:	4b42                	lw	s6,16(sp)
20401602:	4bb2                	lw	s7,12(sp)
20401604:	6145                	addi	sp,sp,48
20401606:	8082                	ret
20401608:	4404                	lw	s1,8(s0)
2040160a:	00442983          	lw	s3,4(s0)
2040160e:	19fd                	addi	s3,s3,-1
20401610:	0009d463          	bgez	s3,20401618 <_fwalk_reent+0x4c>
20401614:	4000                	lw	s0,0(s0)
20401616:	bfe1                	j	204015ee <_fwalk_reent+0x22>
20401618:	00c4d783          	lhu	a5,12(s1)
2040161c:	00fb7b63          	bgeu	s6,a5,20401632 <_fwalk_reent+0x66>
20401620:	00e49783          	lh	a5,14(s1)
20401624:	01778763          	beq	a5,s7,20401632 <_fwalk_reent+0x66>
20401628:	85a6                	mv	a1,s1
2040162a:	8552                	mv	a0,s4
2040162c:	9a82                	jalr	s5
2040162e:	00a96933          	or	s2,s2,a0
20401632:	06848493          	addi	s1,s1,104
20401636:	bfe1                	j	2040160e <_fwalk_reent+0x42>

20401638 <__swhatbuf_r>:
__swhatbuf_r():
20401638:	7119                	addi	sp,sp,-128
2040163a:	daa6                	sw	s1,116(sp)
2040163c:	84ae                	mv	s1,a1
2040163e:	00e59583          	lh	a1,14(a1)
20401642:	dca2                	sw	s0,120(sp)
20401644:	de86                	sw	ra,124(sp)
20401646:	8432                	mv	s0,a2
20401648:	0005dc63          	bgez	a1,20401660 <__swhatbuf_r+0x28>
2040164c:	00c4d783          	lhu	a5,12(s1)
20401650:	0006a023          	sw	zero,0(a3)
20401654:	0807f793          	andi	a5,a5,128
20401658:	e39d                	bnez	a5,2040167e <__swhatbuf_r+0x46>
2040165a:	40000793          	li	a5,1024
2040165e:	a015                	j	20401682 <__swhatbuf_r+0x4a>
20401660:	0830                	addi	a2,sp,24
20401662:	c636                	sw	a3,12(sp)
20401664:	2e61                	jal	204019fc <_fstat_r>
20401666:	46b2                	lw	a3,12(sp)
20401668:	fe0542e3          	bltz	a0,2040164c <__swhatbuf_r+0x14>
2040166c:	4772                	lw	a4,28(sp)
2040166e:	67bd                	lui	a5,0xf
20401670:	8ff9                	and	a5,a5,a4
20401672:	7779                	lui	a4,0xffffe
20401674:	97ba                	add	a5,a5,a4
20401676:	0017b793          	seqz	a5,a5
2040167a:	c29c                	sw	a5,0(a3)
2040167c:	bff9                	j	2040165a <__swhatbuf_r+0x22>
2040167e:	04000793          	li	a5,64
20401682:	c01c                	sw	a5,0(s0)
20401684:	50f6                	lw	ra,124(sp)
20401686:	5466                	lw	s0,120(sp)
20401688:	54d6                	lw	s1,116(sp)
2040168a:	4501                	li	a0,0
2040168c:	6109                	addi	sp,sp,128
2040168e:	8082                	ret

20401690 <__smakebuf_r>:
__smakebuf_r():
20401690:	00c5d783          	lhu	a5,12(a1)
20401694:	1101                	addi	sp,sp,-32
20401696:	cc22                	sw	s0,24(sp)
20401698:	ce06                	sw	ra,28(sp)
2040169a:	ca26                	sw	s1,20(sp)
2040169c:	c84a                	sw	s2,16(sp)
2040169e:	8b89                	andi	a5,a5,2
204016a0:	842e                	mv	s0,a1
204016a2:	cf89                	beqz	a5,204016bc <__smakebuf_r+0x2c>
204016a4:	04740793          	addi	a5,s0,71
204016a8:	c01c                	sw	a5,0(s0)
204016aa:	c81c                	sw	a5,16(s0)
204016ac:	4785                	li	a5,1
204016ae:	c85c                	sw	a5,20(s0)
204016b0:	40f2                	lw	ra,28(sp)
204016b2:	4462                	lw	s0,24(sp)
204016b4:	44d2                	lw	s1,20(sp)
204016b6:	4942                	lw	s2,16(sp)
204016b8:	6105                	addi	sp,sp,32
204016ba:	8082                	ret
204016bc:	0074                	addi	a3,sp,12
204016be:	0030                	addi	a2,sp,8
204016c0:	84aa                	mv	s1,a0
204016c2:	3f9d                	jal	20401638 <__swhatbuf_r>
204016c4:	45a2                	lw	a1,8(sp)
204016c6:	892a                	mv	s2,a0
204016c8:	8526                	mv	a0,s1
204016ca:	2a39                	jal	204017e8 <_malloc_r>
204016cc:	ed01                	bnez	a0,204016e4 <__smakebuf_r+0x54>
204016ce:	00c41783          	lh	a5,12(s0)
204016d2:	2007f713          	andi	a4,a5,512
204016d6:	ff69                	bnez	a4,204016b0 <__smakebuf_r+0x20>
204016d8:	9bf1                	andi	a5,a5,-4
204016da:	0027e793          	ori	a5,a5,2
204016de:	00f41623          	sh	a5,12(s0)
204016e2:	b7c9                	j	204016a4 <__smakebuf_r+0x14>
204016e4:	00000797          	auipc	a5,0x0
204016e8:	d9278793          	addi	a5,a5,-622 # 20401476 <_cleanup_r>
204016ec:	d49c                	sw	a5,40(s1)
204016ee:	00c45783          	lhu	a5,12(s0)
204016f2:	c008                	sw	a0,0(s0)
204016f4:	c808                	sw	a0,16(s0)
204016f6:	0807e793          	ori	a5,a5,128
204016fa:	00f41623          	sh	a5,12(s0)
204016fe:	47a2                	lw	a5,8(sp)
20401700:	c85c                	sw	a5,20(s0)
20401702:	47b2                	lw	a5,12(sp)
20401704:	cf89                	beqz	a5,2040171e <__smakebuf_r+0x8e>
20401706:	00e41583          	lh	a1,14(s0)
2040170a:	8526                	mv	a0,s1
2040170c:	2e29                	jal	20401a26 <_isatty_r>
2040170e:	c901                	beqz	a0,2040171e <__smakebuf_r+0x8e>
20401710:	00c45783          	lhu	a5,12(s0)
20401714:	9bf1                	andi	a5,a5,-4
20401716:	0017e793          	ori	a5,a5,1
2040171a:	00f41623          	sh	a5,12(s0)
2040171e:	00c45783          	lhu	a5,12(s0)
20401722:	00f96933          	or	s2,s2,a5
20401726:	01241623          	sh	s2,12(s0)
2040172a:	b759                	j	204016b0 <__smakebuf_r+0x20>

2040172c <memset>:
memset():
2040172c:	832a                	mv	t1,a0
2040172e:	c611                	beqz	a2,2040173a <memset+0xe>
20401730:	00b30023          	sb	a1,0(t1)
20401734:	167d                	addi	a2,a2,-1
20401736:	0305                	addi	t1,t1,1
20401738:	fe65                	bnez	a2,20401730 <memset+0x4>
2040173a:	8082                	ret

2040173c <_free_r>:
_free_r():
2040173c:	c5cd                	beqz	a1,204017e6 <_free_r+0xaa>
2040173e:	ffc5a783          	lw	a5,-4(a1)
20401742:	1141                	addi	sp,sp,-16
20401744:	c422                	sw	s0,8(sp)
20401746:	c606                	sw	ra,12(sp)
20401748:	c226                	sw	s1,4(sp)
2040174a:	ffc58413          	addi	s0,a1,-4
2040174e:	0007d363          	bgez	a5,20401754 <_free_r+0x18>
20401752:	943e                	add	s0,s0,a5
20401754:	84aa                	mv	s1,a0
20401756:	2615                	jal	20401a7a <__malloc_lock>
20401758:	5fbff797          	auipc	a5,0x5fbff
2040175c:	09878793          	addi	a5,a5,152 # 800007f0 <__tls_base>
20401760:	439c                	lw	a5,0(a5)
20401762:	ef89                	bnez	a5,2040177c <_free_r+0x40>
20401764:	00042223          	sw	zero,4(s0)
20401768:	5fbff797          	auipc	a5,0x5fbff
2040176c:	0887a423          	sw	s0,136(a5) # 800007f0 <__tls_base>
20401770:	4422                	lw	s0,8(sp)
20401772:	40b2                	lw	ra,12(sp)
20401774:	8526                	mv	a0,s1
20401776:	4492                	lw	s1,4(sp)
20401778:	0141                	addi	sp,sp,16
2040177a:	a609                	j	20401a7c <__malloc_unlock>
2040177c:	00f47e63          	bgeu	s0,a5,20401798 <_free_r+0x5c>
20401780:	4014                	lw	a3,0(s0)
20401782:	00d40733          	add	a4,s0,a3
20401786:	00e79663          	bne	a5,a4,20401792 <_free_r+0x56>
2040178a:	4398                	lw	a4,0(a5)
2040178c:	43dc                	lw	a5,4(a5)
2040178e:	9736                	add	a4,a4,a3
20401790:	c018                	sw	a4,0(s0)
20401792:	c05c                	sw	a5,4(s0)
20401794:	bfd1                	j	20401768 <_free_r+0x2c>
20401796:	87ba                	mv	a5,a4
20401798:	43d8                	lw	a4,4(a5)
2040179a:	c319                	beqz	a4,204017a0 <_free_r+0x64>
2040179c:	fee47de3          	bgeu	s0,a4,20401796 <_free_r+0x5a>
204017a0:	4394                	lw	a3,0(a5)
204017a2:	00d78633          	add	a2,a5,a3
204017a6:	00861f63          	bne	a2,s0,204017c4 <_free_r+0x88>
204017aa:	4010                	lw	a2,0(s0)
204017ac:	96b2                	add	a3,a3,a2
204017ae:	c394                	sw	a3,0(a5)
204017b0:	00d78633          	add	a2,a5,a3
204017b4:	fac71ee3          	bne	a4,a2,20401770 <_free_r+0x34>
204017b8:	4310                	lw	a2,0(a4)
204017ba:	4358                	lw	a4,4(a4)
204017bc:	96b2                	add	a3,a3,a2
204017be:	c394                	sw	a3,0(a5)
204017c0:	c3d8                	sw	a4,4(a5)
204017c2:	b77d                	j	20401770 <_free_r+0x34>
204017c4:	00c47563          	bgeu	s0,a2,204017ce <_free_r+0x92>
204017c8:	47b1                	li	a5,12
204017ca:	c09c                	sw	a5,0(s1)
204017cc:	b755                	j	20401770 <_free_r+0x34>
204017ce:	4010                	lw	a2,0(s0)
204017d0:	00c406b3          	add	a3,s0,a2
204017d4:	00d71663          	bne	a4,a3,204017e0 <_free_r+0xa4>
204017d8:	4314                	lw	a3,0(a4)
204017da:	4358                	lw	a4,4(a4)
204017dc:	96b2                	add	a3,a3,a2
204017de:	c014                	sw	a3,0(s0)
204017e0:	c058                	sw	a4,4(s0)
204017e2:	c3c0                	sw	s0,4(a5)
204017e4:	b771                	j	20401770 <_free_r+0x34>
204017e6:	8082                	ret

204017e8 <_malloc_r>:
_malloc_r():
204017e8:	1101                	addi	sp,sp,-32
204017ea:	ca26                	sw	s1,20(sp)
204017ec:	00358493          	addi	s1,a1,3
204017f0:	98f1                	andi	s1,s1,-4
204017f2:	ce06                	sw	ra,28(sp)
204017f4:	cc22                	sw	s0,24(sp)
204017f6:	c84a                	sw	s2,16(sp)
204017f8:	c64e                	sw	s3,12(sp)
204017fa:	04a1                	addi	s1,s1,8
204017fc:	47b1                	li	a5,12
204017fe:	04f4f763          	bgeu	s1,a5,2040184c <_malloc_r+0x64>
20401802:	44b1                	li	s1,12
20401804:	04b4e663          	bltu	s1,a1,20401850 <_malloc_r+0x68>
20401808:	892a                	mv	s2,a0
2040180a:	2c85                	jal	20401a7a <__malloc_lock>
2040180c:	5fbff797          	auipc	a5,0x5fbff
20401810:	fe478793          	addi	a5,a5,-28 # 800007f0 <__tls_base>
20401814:	4398                	lw	a4,0(a5)
20401816:	843a                	mv	s0,a4
20401818:	e431                	bnez	s0,20401864 <_malloc_r+0x7c>
2040181a:	5fbff797          	auipc	a5,0x5fbff
2040181e:	fda78793          	addi	a5,a5,-38 # 800007f4 <__malloc_sbrk_start>
20401822:	439c                	lw	a5,0(a5)
20401824:	eb81                	bnez	a5,20401834 <_malloc_r+0x4c>
20401826:	4581                	li	a1,0
20401828:	854a                	mv	a0,s2
2040182a:	2871                	jal	204018c6 <_sbrk_r>
2040182c:	5fbff797          	auipc	a5,0x5fbff
20401830:	fca7a423          	sw	a0,-56(a5) # 800007f4 <__malloc_sbrk_start>
20401834:	85a6                	mv	a1,s1
20401836:	854a                	mv	a0,s2
20401838:	2079                	jal	204018c6 <_sbrk_r>
2040183a:	59fd                	li	s3,-1
2040183c:	07351963          	bne	a0,s3,204018ae <_malloc_r+0xc6>
20401840:	47b1                	li	a5,12
20401842:	00f92023          	sw	a5,0(s2)
20401846:	854a                	mv	a0,s2
20401848:	2c15                	jal	20401a7c <__malloc_unlock>
2040184a:	a029                	j	20401854 <_malloc_r+0x6c>
2040184c:	fa04dce3          	bgez	s1,20401804 <_malloc_r+0x1c>
20401850:	47b1                	li	a5,12
20401852:	c11c                	sw	a5,0(a0)
20401854:	4501                	li	a0,0
20401856:	40f2                	lw	ra,28(sp)
20401858:	4462                	lw	s0,24(sp)
2040185a:	44d2                	lw	s1,20(sp)
2040185c:	4942                	lw	s2,16(sp)
2040185e:	49b2                	lw	s3,12(sp)
20401860:	6105                	addi	sp,sp,32
20401862:	8082                	ret
20401864:	401c                	lw	a5,0(s0)
20401866:	8f85                	sub	a5,a5,s1
20401868:	0407c063          	bltz	a5,204018a8 <_malloc_r+0xc0>
2040186c:	46ad                	li	a3,11
2040186e:	00f6f663          	bgeu	a3,a5,2040187a <_malloc_r+0x92>
20401872:	c01c                	sw	a5,0(s0)
20401874:	943e                	add	s0,s0,a5
20401876:	c004                	sw	s1,0(s0)
20401878:	a801                	j	20401888 <_malloc_r+0xa0>
2040187a:	405c                	lw	a5,4(s0)
2040187c:	02871463          	bne	a4,s0,204018a4 <_malloc_r+0xbc>
20401880:	5fbff717          	auipc	a4,0x5fbff
20401884:	f6f72823          	sw	a5,-144(a4) # 800007f0 <__tls_base>
20401888:	854a                	mv	a0,s2
2040188a:	2acd                	jal	20401a7c <__malloc_unlock>
2040188c:	00b40513          	addi	a0,s0,11
20401890:	00440793          	addi	a5,s0,4
20401894:	9961                	andi	a0,a0,-8
20401896:	40f50733          	sub	a4,a0,a5
2040189a:	df55                	beqz	a4,20401856 <_malloc_r+0x6e>
2040189c:	943a                	add	s0,s0,a4
2040189e:	8f89                	sub	a5,a5,a0
204018a0:	c01c                	sw	a5,0(s0)
204018a2:	bf55                	j	20401856 <_malloc_r+0x6e>
204018a4:	c35c                	sw	a5,4(a4)
204018a6:	b7cd                	j	20401888 <_malloc_r+0xa0>
204018a8:	8722                	mv	a4,s0
204018aa:	4040                	lw	s0,4(s0)
204018ac:	b7b5                	j	20401818 <_malloc_r+0x30>
204018ae:	00350413          	addi	s0,a0,3
204018b2:	9871                	andi	s0,s0,-4
204018b4:	fc8501e3          	beq	a0,s0,20401876 <_malloc_r+0x8e>
204018b8:	40a405b3          	sub	a1,s0,a0
204018bc:	854a                	mv	a0,s2
204018be:	2021                	jal	204018c6 <_sbrk_r>
204018c0:	fb351be3          	bne	a0,s3,20401876 <_malloc_r+0x8e>
204018c4:	bfb5                	j	20401840 <_malloc_r+0x58>

204018c6 <_sbrk_r>:
_sbrk_r():
204018c6:	1141                	addi	sp,sp,-16
204018c8:	c422                	sw	s0,8(sp)
204018ca:	842a                	mv	s0,a0
204018cc:	852e                	mv	a0,a1
204018ce:	8e01a823          	sw	zero,-1808(gp) # 80000890 <errno>
204018d2:	c606                	sw	ra,12(sp)
204018d4:	2c49                	jal	20401b66 <_sbrk>
204018d6:	57fd                	li	a5,-1
204018d8:	00f51763          	bne	a0,a5,204018e6 <_sbrk_r+0x20>
204018dc:	8f018793          	addi	a5,gp,-1808 # 80000890 <errno>
204018e0:	439c                	lw	a5,0(a5)
204018e2:	c391                	beqz	a5,204018e6 <_sbrk_r+0x20>
204018e4:	c01c                	sw	a5,0(s0)
204018e6:	40b2                	lw	ra,12(sp)
204018e8:	4422                	lw	s0,8(sp)
204018ea:	0141                	addi	sp,sp,16
204018ec:	8082                	ret

204018ee <__sread>:
__sread():
204018ee:	1141                	addi	sp,sp,-16
204018f0:	c422                	sw	s0,8(sp)
204018f2:	842e                	mv	s0,a1
204018f4:	00e59583          	lh	a1,14(a1)
204018f8:	c606                	sw	ra,12(sp)
204018fa:	2251                	jal	20401a7e <_read_r>
204018fc:	00054963          	bltz	a0,2040190e <__sread+0x20>
20401900:	487c                	lw	a5,84(s0)
20401902:	97aa                	add	a5,a5,a0
20401904:	c87c                	sw	a5,84(s0)
20401906:	40b2                	lw	ra,12(sp)
20401908:	4422                	lw	s0,8(sp)
2040190a:	0141                	addi	sp,sp,16
2040190c:	8082                	ret
2040190e:	00c45783          	lhu	a5,12(s0)
20401912:	777d                	lui	a4,0xfffff
20401914:	177d                	addi	a4,a4,-1
20401916:	8ff9                	and	a5,a5,a4
20401918:	00f41623          	sh	a5,12(s0)
2040191c:	b7ed                	j	20401906 <__sread+0x18>

2040191e <__swrite>:
__swrite():
2040191e:	00c5d783          	lhu	a5,12(a1)
20401922:	1101                	addi	sp,sp,-32
20401924:	cc22                	sw	s0,24(sp)
20401926:	ca26                	sw	s1,20(sp)
20401928:	c84a                	sw	s2,16(sp)
2040192a:	c64e                	sw	s3,12(sp)
2040192c:	ce06                	sw	ra,28(sp)
2040192e:	1007f793          	andi	a5,a5,256
20401932:	84aa                	mv	s1,a0
20401934:	842e                	mv	s0,a1
20401936:	8932                	mv	s2,a2
20401938:	89b6                	mv	s3,a3
2040193a:	c791                	beqz	a5,20401946 <__swrite+0x28>
2040193c:	00e59583          	lh	a1,14(a1)
20401940:	4689                	li	a3,2
20401942:	4601                	li	a2,0
20401944:	2229                	jal	20401a4e <_lseek_r>
20401946:	00c45783          	lhu	a5,12(s0)
2040194a:	777d                	lui	a4,0xfffff
2040194c:	177d                	addi	a4,a4,-1
2040194e:	8ff9                	and	a5,a5,a4
20401950:	00f41623          	sh	a5,12(s0)
20401954:	00e41583          	lh	a1,14(s0)
20401958:	4462                	lw	s0,24(sp)
2040195a:	40f2                	lw	ra,28(sp)
2040195c:	86ce                	mv	a3,s3
2040195e:	864a                	mv	a2,s2
20401960:	49b2                	lw	s3,12(sp)
20401962:	4942                	lw	s2,16(sp)
20401964:	8526                	mv	a0,s1
20401966:	44d2                	lw	s1,20(sp)
20401968:	6105                	addi	sp,sp,32
2040196a:	a83d                	j	204019a8 <_write_r>

2040196c <__sseek>:
__sseek():
2040196c:	1141                	addi	sp,sp,-16
2040196e:	c422                	sw	s0,8(sp)
20401970:	842e                	mv	s0,a1
20401972:	00e59583          	lh	a1,14(a1)
20401976:	c606                	sw	ra,12(sp)
20401978:	28d9                	jal	20401a4e <_lseek_r>
2040197a:	57fd                	li	a5,-1
2040197c:	00c45703          	lhu	a4,12(s0)
20401980:	00f51b63          	bne	a0,a5,20401996 <__sseek+0x2a>
20401984:	77fd                	lui	a5,0xfffff
20401986:	17fd                	addi	a5,a5,-1
20401988:	8ff9                	and	a5,a5,a4
2040198a:	00f41623          	sh	a5,12(s0)
2040198e:	40b2                	lw	ra,12(sp)
20401990:	4422                	lw	s0,8(sp)
20401992:	0141                	addi	sp,sp,16
20401994:	8082                	ret
20401996:	6785                	lui	a5,0x1
20401998:	8fd9                	or	a5,a5,a4
2040199a:	00f41623          	sh	a5,12(s0)
2040199e:	c868                	sw	a0,84(s0)
204019a0:	b7fd                	j	2040198e <__sseek+0x22>

204019a2 <__sclose>:
__sclose():
204019a2:	00e59583          	lh	a1,14(a1)
204019a6:	a03d                	j	204019d4 <_close_r>

204019a8 <_write_r>:
_write_r():
204019a8:	1141                	addi	sp,sp,-16
204019aa:	c422                	sw	s0,8(sp)
204019ac:	842a                	mv	s0,a0
204019ae:	852e                	mv	a0,a1
204019b0:	85b2                	mv	a1,a2
204019b2:	8636                	mv	a2,a3
204019b4:	8e01a823          	sw	zero,-1808(gp) # 80000890 <errno>
204019b8:	c606                	sw	ra,12(sp)
204019ba:	2c29                	jal	20401bd4 <_write>
204019bc:	57fd                	li	a5,-1
204019be:	00f51763          	bne	a0,a5,204019cc <_write_r+0x24>
204019c2:	8f018793          	addi	a5,gp,-1808 # 80000890 <errno>
204019c6:	439c                	lw	a5,0(a5)
204019c8:	c391                	beqz	a5,204019cc <_write_r+0x24>
204019ca:	c01c                	sw	a5,0(s0)
204019cc:	40b2                	lw	ra,12(sp)
204019ce:	4422                	lw	s0,8(sp)
204019d0:	0141                	addi	sp,sp,16
204019d2:	8082                	ret

204019d4 <_close_r>:
_close_r():
204019d4:	1141                	addi	sp,sp,-16
204019d6:	c422                	sw	s0,8(sp)
204019d8:	842a                	mv	s0,a0
204019da:	852e                	mv	a0,a1
204019dc:	8e01a823          	sw	zero,-1808(gp) # 80000890 <errno>
204019e0:	c606                	sw	ra,12(sp)
204019e2:	20e1                	jal	20401aaa <_close>
204019e4:	57fd                	li	a5,-1
204019e6:	00f51763          	bne	a0,a5,204019f4 <_close_r+0x20>
204019ea:	8f018793          	addi	a5,gp,-1808 # 80000890 <errno>
204019ee:	439c                	lw	a5,0(a5)
204019f0:	c391                	beqz	a5,204019f4 <_close_r+0x20>
204019f2:	c01c                	sw	a5,0(s0)
204019f4:	40b2                	lw	ra,12(sp)
204019f6:	4422                	lw	s0,8(sp)
204019f8:	0141                	addi	sp,sp,16
204019fa:	8082                	ret

204019fc <_fstat_r>:
_fstat_r():
204019fc:	1141                	addi	sp,sp,-16
204019fe:	c422                	sw	s0,8(sp)
20401a00:	842a                	mv	s0,a0
20401a02:	852e                	mv	a0,a1
20401a04:	85b2                	mv	a1,a2
20401a06:	8e01a823          	sw	zero,-1808(gp) # 80000890 <errno>
20401a0a:	c606                	sw	ra,12(sp)
20401a0c:	20c1                	jal	20401acc <_fstat>
20401a0e:	57fd                	li	a5,-1
20401a10:	00f51763          	bne	a0,a5,20401a1e <_fstat_r+0x22>
20401a14:	8f018793          	addi	a5,gp,-1808 # 80000890 <errno>
20401a18:	439c                	lw	a5,0(a5)
20401a1a:	c391                	beqz	a5,20401a1e <_fstat_r+0x22>
20401a1c:	c01c                	sw	a5,0(s0)
20401a1e:	40b2                	lw	ra,12(sp)
20401a20:	4422                	lw	s0,8(sp)
20401a22:	0141                	addi	sp,sp,16
20401a24:	8082                	ret

20401a26 <_isatty_r>:
_isatty_r():
20401a26:	1141                	addi	sp,sp,-16
20401a28:	c422                	sw	s0,8(sp)
20401a2a:	842a                	mv	s0,a0
20401a2c:	852e                	mv	a0,a1
20401a2e:	8e01a823          	sw	zero,-1808(gp) # 80000890 <errno>
20401a32:	c606                	sw	ra,12(sp)
20401a34:	287d                	jal	20401af2 <_isatty>
20401a36:	57fd                	li	a5,-1
20401a38:	00f51763          	bne	a0,a5,20401a46 <_isatty_r+0x20>
20401a3c:	8f018793          	addi	a5,gp,-1808 # 80000890 <errno>
20401a40:	439c                	lw	a5,0(a5)
20401a42:	c391                	beqz	a5,20401a46 <_isatty_r+0x20>
20401a44:	c01c                	sw	a5,0(s0)
20401a46:	40b2                	lw	ra,12(sp)
20401a48:	4422                	lw	s0,8(sp)
20401a4a:	0141                	addi	sp,sp,16
20401a4c:	8082                	ret

20401a4e <_lseek_r>:
_lseek_r():
20401a4e:	1141                	addi	sp,sp,-16
20401a50:	c422                	sw	s0,8(sp)
20401a52:	842a                	mv	s0,a0
20401a54:	852e                	mv	a0,a1
20401a56:	85b2                	mv	a1,a2
20401a58:	8636                	mv	a2,a3
20401a5a:	8e01a823          	sw	zero,-1808(gp) # 80000890 <errno>
20401a5e:	c606                	sw	ra,12(sp)
20401a60:	284d                	jal	20401b12 <_lseek>
20401a62:	57fd                	li	a5,-1
20401a64:	00f51763          	bne	a0,a5,20401a72 <_lseek_r+0x24>
20401a68:	8f018793          	addi	a5,gp,-1808 # 80000890 <errno>
20401a6c:	439c                	lw	a5,0(a5)
20401a6e:	c391                	beqz	a5,20401a72 <_lseek_r+0x24>
20401a70:	c01c                	sw	a5,0(s0)
20401a72:	40b2                	lw	ra,12(sp)
20401a74:	4422                	lw	s0,8(sp)
20401a76:	0141                	addi	sp,sp,16
20401a78:	8082                	ret

20401a7a <__malloc_lock>:
__malloc_lock():
20401a7a:	8082                	ret

20401a7c <__malloc_unlock>:
__malloc_unlock():
20401a7c:	8082                	ret

20401a7e <_read_r>:
_read_r():
20401a7e:	1141                	addi	sp,sp,-16
20401a80:	c422                	sw	s0,8(sp)
20401a82:	842a                	mv	s0,a0
20401a84:	852e                	mv	a0,a1
20401a86:	85b2                	mv	a1,a2
20401a88:	8636                	mv	a2,a3
20401a8a:	8e01a823          	sw	zero,-1808(gp) # 80000890 <errno>
20401a8e:	c606                	sw	ra,12(sp)
20401a90:	2075                	jal	20401b3c <_read>
20401a92:	57fd                	li	a5,-1
20401a94:	00f51763          	bne	a0,a5,20401aa2 <_read_r+0x24>
20401a98:	8f018793          	addi	a5,gp,-1808 # 80000890 <errno>
20401a9c:	439c                	lw	a5,0(a5)
20401a9e:	c391                	beqz	a5,20401aa2 <_read_r+0x24>
20401aa0:	c01c                	sw	a5,0(s0)
20401aa2:	40b2                	lw	ra,12(sp)
20401aa4:	4422                	lw	s0,8(sp)
20401aa6:	0141                	addi	sp,sp,16
20401aa8:	8082                	ret

20401aaa <_close>:
_close():
/home/khj/Desktop/hello_standalone/freedom-metal/gloss/sys_close.c:3
#include <errno.h>

int _close(int file) {
20401aaa:	1101                	addi	sp,sp,-32
20401aac:	ce06                	sw	ra,28(sp)
20401aae:	cc22                	sw	s0,24(sp)
20401ab0:	1000                	addi	s0,sp,32
20401ab2:	fea42623          	sw	a0,-20(s0)
/home/khj/Desktop/hello_standalone/freedom-metal/gloss/sys_close.c:4
    errno = ENOSYS;
20401ab6:	2a59                	jal	20401c4c <__errno>
20401ab8:	872a                	mv	a4,a0
20401aba:	05800793          	li	a5,88
20401abe:	c31c                	sw	a5,0(a4)
/home/khj/Desktop/hello_standalone/freedom-metal/gloss/sys_close.c:5
    return -1;
20401ac0:	57fd                	li	a5,-1
/home/khj/Desktop/hello_standalone/freedom-metal/gloss/sys_close.c:6
}
20401ac2:	853e                	mv	a0,a5
20401ac4:	40f2                	lw	ra,28(sp)
20401ac6:	4462                	lw	s0,24(sp)
20401ac8:	6105                	addi	sp,sp,32
20401aca:	8082                	ret

20401acc <_fstat>:
_fstat():
/home/khj/Desktop/hello_standalone/freedom-metal/gloss/sys_fstat.c:4
#include <errno.h>
#include <sys/stat.h>

int _fstat(int file, struct stat *st) {
20401acc:	1101                	addi	sp,sp,-32
20401ace:	ce06                	sw	ra,28(sp)
20401ad0:	cc22                	sw	s0,24(sp)
20401ad2:	1000                	addi	s0,sp,32
20401ad4:	fea42623          	sw	a0,-20(s0)
20401ad8:	feb42423          	sw	a1,-24(s0)
/home/khj/Desktop/hello_standalone/freedom-metal/gloss/sys_fstat.c:5
    errno = -ENOSYS;
20401adc:	2a85                	jal	20401c4c <__errno>
20401ade:	872a                	mv	a4,a0
20401ae0:	fa800793          	li	a5,-88
20401ae4:	c31c                	sw	a5,0(a4)
/home/khj/Desktop/hello_standalone/freedom-metal/gloss/sys_fstat.c:6
    return -1;
20401ae6:	57fd                	li	a5,-1
/home/khj/Desktop/hello_standalone/freedom-metal/gloss/sys_fstat.c:7
}
20401ae8:	853e                	mv	a0,a5
20401aea:	40f2                	lw	ra,28(sp)
20401aec:	4462                	lw	s0,24(sp)
20401aee:	6105                	addi	sp,sp,32
20401af0:	8082                	ret

20401af2 <_isatty>:
_isatty():
/home/khj/Desktop/hello_standalone/freedom-metal/gloss/sys_isatty.c:3
#include <unistd.h>

int _isatty(int file) { return (file == STDOUT_FILENO); }
20401af2:	1101                	addi	sp,sp,-32
20401af4:	ce22                	sw	s0,28(sp)
20401af6:	1000                	addi	s0,sp,32
20401af8:	fea42623          	sw	a0,-20(s0)
20401afc:	fec42783          	lw	a5,-20(s0)
20401b00:	17fd                	addi	a5,a5,-1
20401b02:	0017b793          	seqz	a5,a5
20401b06:	0ff7f793          	andi	a5,a5,255
20401b0a:	853e                	mv	a0,a5
20401b0c:	4472                	lw	s0,28(sp)
20401b0e:	6105                	addi	sp,sp,32
20401b10:	8082                	ret

20401b12 <_lseek>:
_lseek():
/home/khj/Desktop/hello_standalone/freedom-metal/gloss/sys_lseek.c:4
#include <errno.h>
#include <sys/types.h>

off_t _lseek(int file, off_t ptr, int dir) {
20401b12:	1101                	addi	sp,sp,-32
20401b14:	ce06                	sw	ra,28(sp)
20401b16:	cc22                	sw	s0,24(sp)
20401b18:	1000                	addi	s0,sp,32
20401b1a:	fea42623          	sw	a0,-20(s0)
20401b1e:	feb42423          	sw	a1,-24(s0)
20401b22:	fec42223          	sw	a2,-28(s0)
/home/khj/Desktop/hello_standalone/freedom-metal/gloss/sys_lseek.c:5
    errno = ENOSYS;
20401b26:	221d                	jal	20401c4c <__errno>
20401b28:	872a                	mv	a4,a0
20401b2a:	05800793          	li	a5,88
20401b2e:	c31c                	sw	a5,0(a4)
/home/khj/Desktop/hello_standalone/freedom-metal/gloss/sys_lseek.c:6
    return -1;
20401b30:	57fd                	li	a5,-1
/home/khj/Desktop/hello_standalone/freedom-metal/gloss/sys_lseek.c:7
}
20401b32:	853e                	mv	a0,a5
20401b34:	40f2                	lw	ra,28(sp)
20401b36:	4462                	lw	s0,24(sp)
20401b38:	6105                	addi	sp,sp,32
20401b3a:	8082                	ret

20401b3c <_read>:
_read():
/home/khj/Desktop/hello_standalone/freedom-metal/gloss/sys_read.c:4
#include <errno.h>
#include <sys/types.h>

ssize_t _read(int file, void *ptr, size_t len) {
20401b3c:	1101                	addi	sp,sp,-32
20401b3e:	ce06                	sw	ra,28(sp)
20401b40:	cc22                	sw	s0,24(sp)
20401b42:	1000                	addi	s0,sp,32
20401b44:	fea42623          	sw	a0,-20(s0)
20401b48:	feb42423          	sw	a1,-24(s0)
20401b4c:	fec42223          	sw	a2,-28(s0)
/home/khj/Desktop/hello_standalone/freedom-metal/gloss/sys_read.c:5
    errno = ENOSYS;
20401b50:	28f5                	jal	20401c4c <__errno>
20401b52:	872a                	mv	a4,a0
20401b54:	05800793          	li	a5,88
20401b58:	c31c                	sw	a5,0(a4)
/home/khj/Desktop/hello_standalone/freedom-metal/gloss/sys_read.c:6
    return -1;
20401b5a:	57fd                	li	a5,-1
/home/khj/Desktop/hello_standalone/freedom-metal/gloss/sys_read.c:7
}
20401b5c:	853e                	mv	a0,a5
20401b5e:	40f2                	lw	ra,28(sp)
20401b60:	4462                	lw	s0,24(sp)
20401b62:	6105                	addi	sp,sp,32
20401b64:	8082                	ret

20401b66 <_sbrk>:
_sbrk():
/home/khj/Desktop/hello_standalone/freedom-metal/gloss/sys_sbrk.c:23
int _brk(void *addr) {
    __brk = addr;
    return 0;
}

char *_sbrk(ptrdiff_t incr) {
20401b66:	7179                	addi	sp,sp,-48
20401b68:	d622                	sw	s0,44(sp)
20401b6a:	1800                	addi	s0,sp,48
20401b6c:	fca42e23          	sw	a0,-36(s0)
/home/khj/Desktop/hello_standalone/freedom-metal/gloss/sys_sbrk.c:24
    char *old = __brk;
20401b70:	800007b7          	lui	a5,0x80000
20401b74:	7a87a783          	lw	a5,1960(a5) # 800007a8 <metal_dtim_0_memory_end+0xffff07a8>
20401b78:	fef42623          	sw	a5,-20(s0)
/home/khj/Desktop/hello_standalone/freedom-metal/gloss/sys_sbrk.c:27

    /* If __heap_size == 0, we can't allocate memory on the heap */
    if (&metal_segment_heap_target_start == &metal_segment_heap_target_end) {
20401b7c:	d0018713          	addi	a4,gp,-768 # 80000ca0 <_sp>
20401b80:	50018793          	addi	a5,gp,1280 # 800014a0 <metal_segment_heap_target_end>
20401b84:	00f71463          	bne	a4,a5,20401b8c <_sbrk+0x26>
/home/khj/Desktop/hello_standalone/freedom-metal/gloss/sys_sbrk.c:28
        return (void *)-1;
20401b88:	57fd                	li	a5,-1
20401b8a:	a089                	j	20401bcc <_sbrk+0x66>
/home/khj/Desktop/hello_standalone/freedom-metal/gloss/sys_sbrk.c:32
    }

    /* Don't move the break past the end of the heap */
    if ((__brk + incr) < &metal_segment_heap_target_end) {
20401b8c:	800007b7          	lui	a5,0x80000
20401b90:	7a87a703          	lw	a4,1960(a5) # 800007a8 <metal_dtim_0_memory_end+0xffff07a8>
20401b94:	fdc42783          	lw	a5,-36(s0)
20401b98:	973e                	add	a4,a4,a5
20401b9a:	50018793          	addi	a5,gp,1280 # 800014a0 <metal_segment_heap_target_end>
20401b9e:	02f77063          	bgeu	a4,a5,20401bbe <_sbrk+0x58>
/home/khj/Desktop/hello_standalone/freedom-metal/gloss/sys_sbrk.c:33
        __brk += incr;
20401ba2:	800007b7          	lui	a5,0x80000
20401ba6:	7a87a703          	lw	a4,1960(a5) # 800007a8 <metal_dtim_0_memory_end+0xffff07a8>
20401baa:	fdc42783          	lw	a5,-36(s0)
20401bae:	973e                	add	a4,a4,a5
20401bb0:	800007b7          	lui	a5,0x80000
20401bb4:	7ae7a423          	sw	a4,1960(a5) # 800007a8 <metal_dtim_0_memory_end+0xffff07a8>
/home/khj/Desktop/hello_standalone/freedom-metal/gloss/sys_sbrk.c:39
    } else {
        __brk = &metal_segment_heap_target_end;
        return (void *)-1;
    }

    return old;
20401bb8:	fec42783          	lw	a5,-20(s0)
20401bbc:	a801                	j	20401bcc <_sbrk+0x66>
/home/khj/Desktop/hello_standalone/freedom-metal/gloss/sys_sbrk.c:35
        __brk = &metal_segment_heap_target_end;
20401bbe:	800007b7          	lui	a5,0x80000
20401bc2:	50018713          	addi	a4,gp,1280 # 800014a0 <metal_segment_heap_target_end>
20401bc6:	7ae7a423          	sw	a4,1960(a5) # 800007a8 <metal_dtim_0_memory_end+0xffff07a8>
/home/khj/Desktop/hello_standalone/freedom-metal/gloss/sys_sbrk.c:36
        return (void *)-1;
20401bca:	57fd                	li	a5,-1
/home/khj/Desktop/hello_standalone/freedom-metal/gloss/sys_sbrk.c:40
}
20401bcc:	853e                	mv	a0,a5
20401bce:	5432                	lw	s0,44(sp)
20401bd0:	6145                	addi	sp,sp,48
20401bd2:	8082                	ret

20401bd4 <_write>:
_write():
/home/khj/Desktop/hello_standalone/freedom-metal/gloss/sys_write.c:7
#include <metal/tty.h>
#include <sys/types.h>
#include <unistd.h>

/* Write to a file.  */
ssize_t _write(int file, const void *ptr, size_t len) {
20401bd4:	7179                	addi	sp,sp,-48
20401bd6:	d606                	sw	ra,44(sp)
20401bd8:	d422                	sw	s0,40(sp)
20401bda:	1800                	addi	s0,sp,48
20401bdc:	fca42e23          	sw	a0,-36(s0)
20401be0:	fcb42c23          	sw	a1,-40(s0)
20401be4:	fcc42a23          	sw	a2,-44(s0)
/home/khj/Desktop/hello_standalone/freedom-metal/gloss/sys_write.c:8
    if (file != STDOUT_FILENO) {
20401be8:	fdc42703          	lw	a4,-36(s0)
20401bec:	4785                	li	a5,1
20401bee:	00f70963          	beq	a4,a5,20401c00 <_write+0x2c>
/home/khj/Desktop/hello_standalone/freedom-metal/gloss/sys_write.c:9
        errno = ENOSYS;
20401bf2:	28a9                	jal	20401c4c <__errno>
20401bf4:	872a                	mv	a4,a0
20401bf6:	05800793          	li	a5,88
20401bfa:	c31c                	sw	a5,0(a4)
/home/khj/Desktop/hello_standalone/freedom-metal/gloss/sys_write.c:10
        return -1;
20401bfc:	57fd                	li	a5,-1
20401bfe:	a82d                	j	20401c38 <_write+0x64>
/home/khj/Desktop/hello_standalone/freedom-metal/gloss/sys_write.c:13
    }

    const char *bptr = ptr;
20401c00:	fd842783          	lw	a5,-40(s0)
20401c04:	fef42423          	sw	a5,-24(s0)
/home/khj/Desktop/hello_standalone/freedom-metal/gloss/sys_write.c:14
    for (size_t i = 0; i < len; ++i)
20401c08:	fe042623          	sw	zero,-20(s0)
20401c0c:	a839                	j	20401c2a <_write+0x56>
/home/khj/Desktop/hello_standalone/freedom-metal/gloss/sys_write.c:15 (discriminator 3)
        metal_tty_putc(bptr[i]);
20401c0e:	fe842703          	lw	a4,-24(s0)
20401c12:	fec42783          	lw	a5,-20(s0)
20401c16:	97ba                	add	a5,a5,a4
20401c18:	0007c783          	lbu	a5,0(a5)
20401c1c:	853e                	mv	a0,a5
20401c1e:	2e85                	jal	20401f8e <metal_tty_putc>
/home/khj/Desktop/hello_standalone/freedom-metal/gloss/sys_write.c:14 (discriminator 3)
    for (size_t i = 0; i < len; ++i)
20401c20:	fec42783          	lw	a5,-20(s0)
20401c24:	0785                	addi	a5,a5,1
20401c26:	fef42623          	sw	a5,-20(s0)
/home/khj/Desktop/hello_standalone/freedom-metal/gloss/sys_write.c:14 (discriminator 1)
20401c2a:	fec42703          	lw	a4,-20(s0)
20401c2e:	fd442783          	lw	a5,-44(s0)
20401c32:	fcf76ee3          	bltu	a4,a5,20401c0e <_write+0x3a>
/home/khj/Desktop/hello_standalone/freedom-metal/gloss/sys_write.c:16
    return 0;
20401c36:	4781                	li	a5,0
/home/khj/Desktop/hello_standalone/freedom-metal/gloss/sys_write.c:17
}
20401c38:	853e                	mv	a0,a5
20401c3a:	50b2                	lw	ra,44(sp)
20401c3c:	5422                	lw	s0,40(sp)
20401c3e:	6145                	addi	sp,sp,48
20401c40:	8082                	ret

20401c42 <atexit>:
atexit():
20401c42:	85aa                	mv	a1,a0
20401c44:	4681                	li	a3,0
20401c46:	4601                	li	a2,0
20401c48:	4501                	li	a0,0
20401c4a:	a8f1                	j	20401d26 <__register_exitproc>

20401c4c <__errno>:
__errno():
20401c4c:	5fbff797          	auipc	a5,0x5fbff
20401c50:	b5478793          	addi	a5,a5,-1196 # 800007a0 <_impure_ptr>
20401c54:	4388                	lw	a0,0(a5)
20401c56:	8082                	ret

20401c58 <exit>:
exit():
20401c58:	1141                	addi	sp,sp,-16
20401c5a:	c422                	sw	s0,8(sp)
20401c5c:	c606                	sw	ra,12(sp)
20401c5e:	00000797          	auipc	a5,0x0
20401c62:	15078793          	addi	a5,a5,336 # 20401dae <__call_exitprocs>
20401c66:	842a                	mv	s0,a0
20401c68:	c399                	beqz	a5,20401c6e <exit+0x16>
20401c6a:	4581                	li	a1,0
20401c6c:	2289                	jal	20401dae <__call_exitprocs>
20401c6e:	5fbff797          	auipc	a5,0x5fbff
20401c72:	b3678793          	addi	a5,a5,-1226 # 800007a4 <_global_impure_ptr>
20401c76:	4388                	lw	a0,0(a5)
20401c78:	551c                	lw	a5,40(a0)
20401c7a:	c391                	beqz	a5,20401c7e <exit+0x26>
20401c7c:	9782                	jalr	a5
20401c7e:	8522                	mv	a0,s0
20401c80:	1a3040ef          	jal	ra,20406622 <_exit>

20401c84 <__libc_fini_array>:
__libc_fini_array():
20401c84:	1141                	addi	sp,sp,-16
20401c86:	ffffe797          	auipc	a5,0xffffe
20401c8a:	66278793          	addi	a5,a5,1634 # 204002e8 <__fini_array_end>
20401c8e:	c422                	sw	s0,8(sp)
20401c90:	ffffe417          	auipc	s0,0xffffe
20401c94:	65840413          	addi	s0,s0,1624 # 204002e8 <__fini_array_end>
20401c98:	8c1d                	sub	s0,s0,a5
20401c9a:	c226                	sw	s1,4(sp)
20401c9c:	c606                	sw	ra,12(sp)
20401c9e:	8409                	srai	s0,s0,0x2
20401ca0:	84be                	mv	s1,a5
20401ca2:	e411                	bnez	s0,20401cae <__libc_fini_array+0x2a>
20401ca4:	40b2                	lw	ra,12(sp)
20401ca6:	4422                	lw	s0,8(sp)
20401ca8:	4492                	lw	s1,4(sp)
20401caa:	0141                	addi	sp,sp,16
20401cac:	8082                	ret
20401cae:	147d                	addi	s0,s0,-1
20401cb0:	00241793          	slli	a5,s0,0x2
20401cb4:	97a6                	add	a5,a5,s1
20401cb6:	439c                	lw	a5,0(a5)
20401cb8:	9782                	jalr	a5
20401cba:	b7e5                	j	20401ca2 <__libc_fini_array+0x1e>

20401cbc <__libc_init_array>:
__libc_init_array():
20401cbc:	1141                	addi	sp,sp,-16
20401cbe:	ffffe797          	auipc	a5,0xffffe
20401cc2:	61a78793          	addi	a5,a5,1562 # 204002d8 <_metal_tty_init_ptr>
20401cc6:	c422                	sw	s0,8(sp)
20401cc8:	ffffe417          	auipc	s0,0xffffe
20401ccc:	61040413          	addi	s0,s0,1552 # 204002d8 <_metal_tty_init_ptr>
20401cd0:	8c1d                	sub	s0,s0,a5
20401cd2:	c226                	sw	s1,4(sp)
20401cd4:	c04a                	sw	s2,0(sp)
20401cd6:	c606                	sw	ra,12(sp)
20401cd8:	8409                	srai	s0,s0,0x2
20401cda:	4481                	li	s1,0
20401cdc:	893e                	mv	s2,a5
20401cde:	02849663          	bne	s1,s0,20401d0a <__libc_init_array+0x4e>
20401ce2:	ffffe797          	auipc	a5,0xffffe
20401ce6:	5f678793          	addi	a5,a5,1526 # 204002d8 <_metal_tty_init_ptr>
20401cea:	ffffe417          	auipc	s0,0xffffe
20401cee:	5ee40413          	addi	s0,s0,1518 # 204002d8 <_metal_tty_init_ptr>
20401cf2:	8c1d                	sub	s0,s0,a5
20401cf4:	8409                	srai	s0,s0,0x2
20401cf6:	4481                	li	s1,0
20401cf8:	893e                	mv	s2,a5
20401cfa:	00849f63          	bne	s1,s0,20401d18 <__libc_init_array+0x5c>
20401cfe:	40b2                	lw	ra,12(sp)
20401d00:	4422                	lw	s0,8(sp)
20401d02:	4492                	lw	s1,4(sp)
20401d04:	4902                	lw	s2,0(sp)
20401d06:	0141                	addi	sp,sp,16
20401d08:	8082                	ret
20401d0a:	00249793          	slli	a5,s1,0x2
20401d0e:	97ca                	add	a5,a5,s2
20401d10:	439c                	lw	a5,0(a5)
20401d12:	0485                	addi	s1,s1,1
20401d14:	9782                	jalr	a5
20401d16:	b7e1                	j	20401cde <__libc_init_array+0x22>
20401d18:	00249793          	slli	a5,s1,0x2
20401d1c:	97ca                	add	a5,a5,s2
20401d1e:	439c                	lw	a5,0(a5)
20401d20:	0485                	addi	s1,s1,1
20401d22:	9782                	jalr	a5
20401d24:	bfd9                	j	20401cfa <__libc_init_array+0x3e>

20401d26 <__register_exitproc>:
__register_exitproc():
20401d26:	5fbff797          	auipc	a5,0x5fbff
20401d2a:	ad278793          	addi	a5,a5,-1326 # 800007f8 <_global_atexit>
20401d2e:	439c                	lw	a5,0(a5)
20401d30:	8e2a                	mv	t3,a0
20401d32:	e39d                	bnez	a5,20401d58 <__register_exitproc+0x32>
20401d34:	5fbff717          	auipc	a4,0x5fbff
20401d38:	ad070713          	addi	a4,a4,-1328 # 80000804 <_global_atexit0>
20401d3c:	5fbff797          	auipc	a5,0x5fbff
20401d40:	aae7ae23          	sw	a4,-1348(a5) # 800007f8 <_global_atexit>
20401d44:	dfbfe517          	auipc	a0,0xdfbfe
20401d48:	2bc50513          	addi	a0,a0,700 # 0 <__metal_boot_hart>
20401d4c:	87ba                	mv	a5,a4
20401d4e:	c509                	beqz	a0,20401d58 <__register_exitproc+0x32>
20401d50:	411c                	lw	a5,0(a0)
20401d52:	8ef1a623          	sw	a5,-1812(gp) # 8000088c <_global_atexit0+0x88>
20401d56:	87ba                	mv	a5,a4
20401d58:	43d8                	lw	a4,4(a5)
20401d5a:	487d                	li	a6,31
20401d5c:	557d                	li	a0,-1
20401d5e:	04e84763          	blt	a6,a4,20401dac <__register_exitproc+0x86>
20401d62:	020e0e63          	beqz	t3,20401d9e <__register_exitproc+0x78>
20401d66:	0887a803          	lw	a6,136(a5)
20401d6a:	04080163          	beqz	a6,20401dac <__register_exitproc+0x86>
20401d6e:	00271893          	slli	a7,a4,0x2
20401d72:	98c2                	add	a7,a7,a6
20401d74:	00c8a023          	sw	a2,0(a7)
20401d78:	10082303          	lw	t1,256(a6)
20401d7c:	4605                	li	a2,1
20401d7e:	00e61633          	sll	a2,a2,a4
20401d82:	00c36333          	or	t1,t1,a2
20401d86:	10682023          	sw	t1,256(a6)
20401d8a:	08d8a023          	sw	a3,128(a7)
20401d8e:	4689                	li	a3,2
20401d90:	00de1763          	bne	t3,a3,20401d9e <__register_exitproc+0x78>
20401d94:	10482683          	lw	a3,260(a6)
20401d98:	8e55                	or	a2,a2,a3
20401d9a:	10c82223          	sw	a2,260(a6)
20401d9e:	00170693          	addi	a3,a4,1
20401da2:	070a                	slli	a4,a4,0x2
20401da4:	c3d4                	sw	a3,4(a5)
20401da6:	97ba                	add	a5,a5,a4
20401da8:	c78c                	sw	a1,8(a5)
20401daa:	4501                	li	a0,0
20401dac:	8082                	ret

20401dae <__call_exitprocs>:
__call_exitprocs():
20401dae:	7179                	addi	sp,sp,-48
20401db0:	cc52                	sw	s4,24(sp)
20401db2:	ca56                	sw	s5,20(sp)
20401db4:	c85a                	sw	s6,16(sp)
20401db6:	c65e                	sw	s7,12(sp)
20401db8:	d606                	sw	ra,44(sp)
20401dba:	d422                	sw	s0,40(sp)
20401dbc:	d226                	sw	s1,36(sp)
20401dbe:	d04a                	sw	s2,32(sp)
20401dc0:	ce4e                	sw	s3,28(sp)
20401dc2:	c462                	sw	s8,8(sp)
20401dc4:	8b2a                	mv	s6,a0
20401dc6:	8a2e                	mv	s4,a1
20401dc8:	5fbffa97          	auipc	s5,0x5fbff
20401dcc:	a30a8a93          	addi	s5,s5,-1488 # 800007f8 <_global_atexit>
20401dd0:	4b85                	li	s7,1
20401dd2:	000aa403          	lw	s0,0(s5)
20401dd6:	c811                	beqz	s0,20401dea <__call_exitprocs+0x3c>
20401dd8:	4044                	lw	s1,4(s0)
20401dda:	08842983          	lw	s3,136(s0)
20401dde:	fff48913          	addi	s2,s1,-1
20401de2:	048a                	slli	s1,s1,0x2
20401de4:	94a2                	add	s1,s1,s0
20401de6:	00095e63          	bgez	s2,20401e02 <__call_exitprocs+0x54>
20401dea:	50b2                	lw	ra,44(sp)
20401dec:	5422                	lw	s0,40(sp)
20401dee:	5492                	lw	s1,36(sp)
20401df0:	5902                	lw	s2,32(sp)
20401df2:	49f2                	lw	s3,28(sp)
20401df4:	4a62                	lw	s4,24(sp)
20401df6:	4ad2                	lw	s5,20(sp)
20401df8:	4b42                	lw	s6,16(sp)
20401dfa:	4bb2                	lw	s7,12(sp)
20401dfc:	4c22                	lw	s8,8(sp)
20401dfe:	6145                	addi	sp,sp,48
20401e00:	8082                	ret
20401e02:	000a0e63          	beqz	s4,20401e1e <__call_exitprocs+0x70>
20401e06:	00099563          	bnez	s3,20401e10 <__call_exitprocs+0x62>
20401e0a:	197d                	addi	s2,s2,-1
20401e0c:	14f1                	addi	s1,s1,-4
20401e0e:	bfe1                	j	20401de6 <__call_exitprocs+0x38>
20401e10:	00291793          	slli	a5,s2,0x2
20401e14:	97ce                	add	a5,a5,s3
20401e16:	0807a783          	lw	a5,128(a5)
20401e1a:	ff4798e3          	bne	a5,s4,20401e0a <__call_exitprocs+0x5c>
20401e1e:	4058                	lw	a4,4(s0)
20401e20:	40dc                	lw	a5,4(s1)
20401e22:	177d                	addi	a4,a4,-1
20401e24:	03271863          	bne	a4,s2,20401e54 <__call_exitprocs+0xa6>
20401e28:	01242223          	sw	s2,4(s0)
20401e2c:	dff9                	beqz	a5,20401e0a <__call_exitprocs+0x5c>
20401e2e:	00442c03          	lw	s8,4(s0)
20401e32:	00098863          	beqz	s3,20401e42 <__call_exitprocs+0x94>
20401e36:	1009a683          	lw	a3,256(s3)
20401e3a:	012b9733          	sll	a4,s7,s2
20401e3e:	8ef9                	and	a3,a3,a4
20401e40:	ee89                	bnez	a3,20401e5a <__call_exitprocs+0xac>
20401e42:	9782                	jalr	a5
20401e44:	4058                	lw	a4,4(s0)
20401e46:	000aa783          	lw	a5,0(s5)
20401e4a:	f98714e3          	bne	a4,s8,20401dd2 <__call_exitprocs+0x24>
20401e4e:	faf40ee3          	beq	s0,a5,20401e0a <__call_exitprocs+0x5c>
20401e52:	b741                	j	20401dd2 <__call_exitprocs+0x24>
20401e54:	0004a223          	sw	zero,4(s1)
20401e58:	bfd1                	j	20401e2c <__call_exitprocs+0x7e>
20401e5a:	00291693          	slli	a3,s2,0x2
20401e5e:	96ce                	add	a3,a3,s3
20401e60:	428c                	lw	a1,0(a3)
20401e62:	1049a683          	lw	a3,260(s3)
20401e66:	8f75                	and	a4,a4,a3
20401e68:	e701                	bnez	a4,20401e70 <__call_exitprocs+0xc2>
20401e6a:	855a                	mv	a0,s6
20401e6c:	9782                	jalr	a5
20401e6e:	bfd9                	j	20401e44 <__call_exitprocs+0x96>
20401e70:	852e                	mv	a0,a1
20401e72:	9782                	jalr	a5
20401e74:	bfc1                	j	20401e44 <__call_exitprocs+0x96>

20401e76 <metal_init>:
metal_init():
/home/khj/Desktop/hello_standalone/freedom-metal/src/init.c:17
extern metal_constructor_t metal_constructors_start;
extern metal_constructor_t metal_constructors_end;
extern metal_destructor_t metal_destructors_start;
extern metal_destructor_t metal_destructors_end;

void metal_init(void) {
20401e76:	1101                	addi	sp,sp,-32
20401e78:	ce06                	sw	ra,28(sp)
20401e7a:	cc22                	sw	s0,24(sp)
20401e7c:	1000                	addi	s0,sp,32
/home/khj/Desktop/hello_standalone/freedom-metal/src/init.c:20
    /* Make sure the constructors only run once */
    static int init_done = 0;
    if (init_done) {
20401e7e:	800007b7          	lui	a5,0x80000
20401e82:	7fc7a783          	lw	a5,2044(a5) # 800007fc <metal_dtim_0_memory_end+0xffff07fc>
20401e86:	efa9                	bnez	a5,20401ee0 <metal_init+0x6a>
/home/khj/Desktop/hello_standalone/freedom-metal/src/init.c:23
        return;
    }
    init_done = 1;
20401e88:	800007b7          	lui	a5,0x80000
20401e8c:	4705                	li	a4,1
20401e8e:	7ee7ae23          	sw	a4,2044(a5) # 800007fc <metal_dtim_0_memory_end+0xffff07fc>
/home/khj/Desktop/hello_standalone/freedom-metal/src/init.c:25

    if (&metal_constructors_end <= &metal_constructors_start) {
20401e92:	204007b7          	lui	a5,0x20400
20401e96:	2e478713          	addi	a4,a5,740 # 204002e4 <metal_constructors_end>
20401e9a:	204007b7          	lui	a5,0x20400
20401e9e:	2d878793          	addi	a5,a5,728 # 204002d8 <_metal_tty_init_ptr>
20401ea2:	04e7f163          	bgeu	a5,a4,20401ee4 <metal_init+0x6e>
/home/khj/Desktop/hello_standalone/freedom-metal/src/init.c:29
        return;
    }

    metal_constructor_t *funcptr = &metal_constructors_start;
20401ea6:	204007b7          	lui	a5,0x20400
20401eaa:	2d878793          	addi	a5,a5,728 # 204002d8 <_metal_tty_init_ptr>
20401eae:	fef42623          	sw	a5,-20(s0)
/home/khj/Desktop/hello_standalone/freedom-metal/src/init.c:30
    while (funcptr != &metal_constructors_end) {
20401eb2:	a831                	j	20401ece <metal_init+0x58>
/home/khj/Desktop/hello_standalone/freedom-metal/src/init.c:31
        metal_constructor_t func = *funcptr;
20401eb4:	fec42783          	lw	a5,-20(s0)
20401eb8:	439c                	lw	a5,0(a5)
20401eba:	fef42423          	sw	a5,-24(s0)
/home/khj/Desktop/hello_standalone/freedom-metal/src/init.c:33

        func();
20401ebe:	fe842783          	lw	a5,-24(s0)
20401ec2:	9782                	jalr	a5
/home/khj/Desktop/hello_standalone/freedom-metal/src/init.c:35

        funcptr += 1;
20401ec4:	fec42783          	lw	a5,-20(s0)
20401ec8:	0791                	addi	a5,a5,4
20401eca:	fef42623          	sw	a5,-20(s0)
/home/khj/Desktop/hello_standalone/freedom-metal/src/init.c:30
    while (funcptr != &metal_constructors_end) {
20401ece:	fec42703          	lw	a4,-20(s0)
20401ed2:	204007b7          	lui	a5,0x20400
20401ed6:	2e478793          	addi	a5,a5,740 # 204002e4 <metal_constructors_end>
20401eda:	fcf71de3          	bne	a4,a5,20401eb4 <metal_init+0x3e>
20401ede:	a021                	j	20401ee6 <metal_init+0x70>
/home/khj/Desktop/hello_standalone/freedom-metal/src/init.c:21
        return;
20401ee0:	0001                	nop
20401ee2:	a011                	j	20401ee6 <metal_init+0x70>
/home/khj/Desktop/hello_standalone/freedom-metal/src/init.c:26
        return;
20401ee4:	0001                	nop
/home/khj/Desktop/hello_standalone/freedom-metal/src/init.c:37
    }
}
20401ee6:	40f2                	lw	ra,28(sp)
20401ee8:	4462                	lw	s0,24(sp)
20401eea:	6105                	addi	sp,sp,32
20401eec:	8082                	ret

20401eee <metal_fini>:
metal_fini():
/home/khj/Desktop/hello_standalone/freedom-metal/src/init.c:39

void metal_fini(void) {
20401eee:	1101                	addi	sp,sp,-32
20401ef0:	ce06                	sw	ra,28(sp)
20401ef2:	cc22                	sw	s0,24(sp)
20401ef4:	1000                	addi	s0,sp,32
/home/khj/Desktop/hello_standalone/freedom-metal/src/init.c:42
    /* Make sure the destructors only run once */
    static int fini_done = 0;
    if (fini_done) {
20401ef6:	800017b7          	lui	a5,0x80001
20401efa:	8007a783          	lw	a5,-2048(a5) # 80000800 <metal_dtim_0_memory_end+0xffff0800>
20401efe:	efa9                	bnez	a5,20401f58 <metal_fini+0x6a>
/home/khj/Desktop/hello_standalone/freedom-metal/src/init.c:45
        return;
    }
    fini_done = 1;
20401f00:	800017b7          	lui	a5,0x80001
20401f04:	4705                	li	a4,1
20401f06:	80e7a023          	sw	a4,-2048(a5) # 80000800 <metal_dtim_0_memory_end+0xffff0800>
/home/khj/Desktop/hello_standalone/freedom-metal/src/init.c:47

    if (&metal_destructors_end <= &metal_destructors_start) {
20401f0a:	204007b7          	lui	a5,0x20400
20401f0e:	2e878713          	addi	a4,a5,744 # 204002e8 <__fini_array_end>
20401f12:	204007b7          	lui	a5,0x20400
20401f16:	2e878793          	addi	a5,a5,744 # 204002e8 <__fini_array_end>
20401f1a:	04e7f163          	bgeu	a5,a4,20401f5c <metal_fini+0x6e>
/home/khj/Desktop/hello_standalone/freedom-metal/src/init.c:51
        return;
    }

    metal_destructor_t *funcptr = &metal_destructors_start;
20401f1e:	204007b7          	lui	a5,0x20400
20401f22:	2e878793          	addi	a5,a5,744 # 204002e8 <__fini_array_end>
20401f26:	fef42623          	sw	a5,-20(s0)
/home/khj/Desktop/hello_standalone/freedom-metal/src/init.c:52
    while (funcptr != &metal_destructors_end) {
20401f2a:	a831                	j	20401f46 <metal_fini+0x58>
/home/khj/Desktop/hello_standalone/freedom-metal/src/init.c:53
        metal_destructor_t func = *funcptr;
20401f2c:	fec42783          	lw	a5,-20(s0)
20401f30:	439c                	lw	a5,0(a5)
20401f32:	fef42423          	sw	a5,-24(s0)
/home/khj/Desktop/hello_standalone/freedom-metal/src/init.c:55

        func();
20401f36:	fe842783          	lw	a5,-24(s0)
20401f3a:	9782                	jalr	a5
/home/khj/Desktop/hello_standalone/freedom-metal/src/init.c:57

        funcptr += 1;
20401f3c:	fec42783          	lw	a5,-20(s0)
20401f40:	0791                	addi	a5,a5,4
20401f42:	fef42623          	sw	a5,-20(s0)
/home/khj/Desktop/hello_standalone/freedom-metal/src/init.c:52
    while (funcptr != &metal_destructors_end) {
20401f46:	fec42703          	lw	a4,-20(s0)
20401f4a:	204007b7          	lui	a5,0x20400
20401f4e:	2e878793          	addi	a5,a5,744 # 204002e8 <__fini_array_end>
20401f52:	fcf71de3          	bne	a4,a5,20401f2c <metal_fini+0x3e>
20401f56:	a021                	j	20401f5e <metal_fini+0x70>
/home/khj/Desktop/hello_standalone/freedom-metal/src/init.c:43
        return;
20401f58:	0001                	nop
20401f5a:	a011                	j	20401f5e <metal_fini+0x70>
/home/khj/Desktop/hello_standalone/freedom-metal/src/init.c:48
        return;
20401f5c:	0001                	nop
/home/khj/Desktop/hello_standalone/freedom-metal/src/init.c:59
    }
}
20401f5e:	40f2                	lw	ra,28(sp)
20401f60:	4462                	lw	s0,24(sp)
20401f62:	6105                	addi	sp,sp,32
20401f64:	8082                	ret

20401f66 <metal_init_run>:
metal_init_run():
/home/khj/Desktop/hello_standalone/freedom-metal/src/init.c:69
 * in the case that users don't want the metal constructors or
 * destructors to run.
 */

void metal_init_run(void) __attribute__((weak));
void metal_init_run(void) { metal_init(); }
20401f66:	1141                	addi	sp,sp,-16
20401f68:	c606                	sw	ra,12(sp)
20401f6a:	c422                	sw	s0,8(sp)
20401f6c:	0800                	addi	s0,sp,16
20401f6e:	3721                	jal	20401e76 <metal_init>
20401f70:	0001                	nop
20401f72:	40b2                	lw	ra,12(sp)
20401f74:	4422                	lw	s0,8(sp)
20401f76:	0141                	addi	sp,sp,16
20401f78:	8082                	ret

20401f7a <metal_fini_run>:
metal_fini_run():
/home/khj/Desktop/hello_standalone/freedom-metal/src/init.c:72

void metal_fini_run(void) __attribute__((weak));
void metal_fini_run(void) { metal_fini(); }
20401f7a:	1141                	addi	sp,sp,-16
20401f7c:	c606                	sw	ra,12(sp)
20401f7e:	c422                	sw	s0,8(sp)
20401f80:	0800                	addi	s0,sp,16
20401f82:	37b5                	jal	20401eee <metal_fini>
20401f84:	0001                	nop
20401f86:	40b2                	lw	ra,12(sp)
20401f88:	4422                	lw	s0,8(sp)
20401f8a:	0141                	addi	sp,sp,16
20401f8c:	8082                	ret

20401f8e <metal_tty_putc>:
metal_tty_putc():
/home/khj/Desktop/hello_standalone/freedom-metal/src/tty.c:12
int metal_tty_putc(int c) {
20401f8e:	1101                	addi	sp,sp,-32
20401f90:	ce06                	sw	ra,28(sp)
20401f92:	cc22                	sw	s0,24(sp)
20401f94:	1000                	addi	s0,sp,32
20401f96:	fea42623          	sw	a0,-20(s0)
/home/khj/Desktop/hello_standalone/freedom-metal/src/tty.c:13
    if (c == '\n') {
20401f9a:	fec42703          	lw	a4,-20(s0)
20401f9e:	47a9                	li	a5,10
20401fa0:	00f71463          	bne	a4,a5,20401fa8 <metal_tty_putc+0x1a>
/home/khj/Desktop/hello_standalone/freedom-metal/src/tty.c:14
        metal_tty_putc_raw('\r');
20401fa4:	4535                	li	a0,13
20401fa6:	2811                	jal	20401fba <metal_tty_putc_raw>
/home/khj/Desktop/hello_standalone/freedom-metal/src/tty.c:16
    return metal_tty_putc_raw(c);
20401fa8:	fec42503          	lw	a0,-20(s0)
20401fac:	2039                	jal	20401fba <metal_tty_putc_raw>
20401fae:	87aa                	mv	a5,a0
/home/khj/Desktop/hello_standalone/freedom-metal/src/tty.c:17
}
20401fb0:	853e                	mv	a0,a5
20401fb2:	40f2                	lw	ra,28(sp)
20401fb4:	4462                	lw	s0,24(sp)
20401fb6:	6105                	addi	sp,sp,32
20401fb8:	8082                	ret

20401fba <metal_tty_putc_raw>:
metal_tty_putc_raw():
/home/khj/Desktop/hello_standalone/freedom-metal/src/tty.c:19
int metal_tty_putc_raw(int c) {
20401fba:	1101                	addi	sp,sp,-32
20401fbc:	ce06                	sw	ra,28(sp)
20401fbe:	cc22                	sw	s0,24(sp)
20401fc0:	1000                	addi	s0,sp,32
20401fc2:	fea42623          	sw	a0,-20(s0)
/home/khj/Desktop/hello_standalone/freedom-metal/src/tty.c:20
    return metal_uart_putc(__METAL_DT_STDOUT_UART_HANDLE, c);
20401fc6:	fec42583          	lw	a1,-20(s0)
20401fca:	800007b7          	lui	a5,0x80000
20401fce:	75878513          	addi	a0,a5,1880 # 80000758 <metal_dtim_0_memory_end+0xffff0758>
20401fd2:	282d                	jal	2040200c <metal_uart_putc>
20401fd4:	87aa                	mv	a5,a0
/home/khj/Desktop/hello_standalone/freedom-metal/src/tty.c:21
}
20401fd6:	853e                	mv	a0,a5
20401fd8:	40f2                	lw	ra,28(sp)
20401fda:	4462                	lw	s0,24(sp)
20401fdc:	6105                	addi	sp,sp,32
20401fde:	8082                	ret

20401fe0 <metal_uart_init>:
metal_uart_init():
/home/khj/Desktop/hello_standalone/freedom-metal/metal/uart.h:59
 more than once.
 *
 * @param uart The UART device handle
 * @param baud_rate the baud rate to set the UART to
 */
__inline__ void metal_uart_init(struct metal_uart *uart, int baud_rate) {
20401fe0:	1101                	addi	sp,sp,-32
20401fe2:	ce06                	sw	ra,28(sp)
20401fe4:	cc22                	sw	s0,24(sp)
20401fe6:	1000                	addi	s0,sp,32
20401fe8:	fea42623          	sw	a0,-20(s0)
20401fec:	feb42423          	sw	a1,-24(s0)
/home/khj/Desktop/hello_standalone/freedom-metal/metal/uart.h:60
    uart->vtable->init(uart, baud_rate);
20401ff0:	fec42783          	lw	a5,-20(s0)
20401ff4:	439c                	lw	a5,0(a5)
20401ff6:	439c                	lw	a5,0(a5)
20401ff8:	fe842583          	lw	a1,-24(s0)
20401ffc:	fec42503          	lw	a0,-20(s0)
20402000:	9782                	jalr	a5
/home/khj/Desktop/hello_standalone/freedom-metal/metal/uart.h:61
}
20402002:	0001                	nop
20402004:	40f2                	lw	ra,28(sp)
20402006:	4462                	lw	s0,24(sp)
20402008:	6105                	addi	sp,sp,32
2040200a:	8082                	ret

2040200c <metal_uart_putc>:
metal_uart_putc():
/home/khj/Desktop/hello_standalone/freedom-metal/metal/uart.h:69
 * @brief Output a character over the UART
 * @param uart The UART device handle
 * @param c The character to send over the UART
 * @return 0 upon success
 */
__inline__ int metal_uart_putc(struct metal_uart *uart, int c) {
2040200c:	1101                	addi	sp,sp,-32
2040200e:	ce06                	sw	ra,28(sp)
20402010:	cc22                	sw	s0,24(sp)
20402012:	1000                	addi	s0,sp,32
20402014:	fea42623          	sw	a0,-20(s0)
20402018:	feb42423          	sw	a1,-24(s0)
/home/khj/Desktop/hello_standalone/freedom-metal/metal/uart.h:70
    return uart->vtable->putc(uart, c);
2040201c:	fec42783          	lw	a5,-20(s0)
20402020:	439c                	lw	a5,0(a5)
20402022:	43dc                	lw	a5,4(a5)
20402024:	fe842583          	lw	a1,-24(s0)
20402028:	fec42503          	lw	a0,-20(s0)
2040202c:	9782                	jalr	a5
2040202e:	87aa                	mv	a5,a0
/home/khj/Desktop/hello_standalone/freedom-metal/metal/uart.h:71
}
20402030:	853e                	mv	a0,a5
20402032:	40f2                	lw	ra,28(sp)
20402034:	4462                	lw	s0,24(sp)
20402036:	6105                	addi	sp,sp,32
20402038:	8082                	ret

2040203a <metal_uart_set_baud_rate>:
metal_uart_set_baud_rate():
/home/khj/Desktop/hello_standalone/freedom-metal/metal/uart.h:111
 * @param uart The UART device handle
 * @param baud_rate The baud rate to configure
 * @return the new baud rate of the UART
 */
__inline__ int metal_uart_set_baud_rate(struct metal_uart *uart,
                                        int baud_rate) {
2040203a:	1101                	addi	sp,sp,-32
2040203c:	ce06                	sw	ra,28(sp)
2040203e:	cc22                	sw	s0,24(sp)
20402040:	1000                	addi	s0,sp,32
20402042:	fea42623          	sw	a0,-20(s0)
20402046:	feb42423          	sw	a1,-24(s0)
/home/khj/Desktop/hello_standalone/freedom-metal/metal/uart.h:112
    return uart->vtable->set_baud_rate(uart, baud_rate);
2040204a:	fec42783          	lw	a5,-20(s0)
2040204e:	439c                	lw	a5,0(a5)
20402050:	4bdc                	lw	a5,20(a5)
20402052:	fe842583          	lw	a1,-24(s0)
20402056:	fec42503          	lw	a0,-20(s0)
2040205a:	9782                	jalr	a5
2040205c:	87aa                	mv	a5,a0
/home/khj/Desktop/hello_standalone/freedom-metal/metal/uart.h:113
}
2040205e:	853e                	mv	a0,a5
20402060:	40f2                	lw	ra,28(sp)
20402062:	4462                	lw	s0,24(sp)
20402064:	6105                	addi	sp,sp,32
20402066:	8082                	ret

20402068 <__metal_driver_sifive_clint0_control_base>:
__metal_driver_sifive_clint0_control_base():
/home/khj/Desktop/hello_standalone/bsp/build/debug/./metal/machine.h:200
/* --------------------- fixed_factor_clock ------------ */


/* --------------------- sifive_clint0 ------------ */
static __inline__ unsigned long __metal_driver_sifive_clint0_control_base(struct metal_interrupt *controller)
{
20402068:	1101                	addi	sp,sp,-32
2040206a:	ce22                	sw	s0,28(sp)
2040206c:	1000                	addi	s0,sp,32
2040206e:	fea42623          	sw	a0,-20(s0)
/home/khj/Desktop/hello_standalone/bsp/build/debug/./metal/machine.h:201
	if ((uintptr_t)controller == (uintptr_t)&__metal_dt_clint_2000000) {
20402072:	fec42703          	lw	a4,-20(s0)
20402076:	81018793          	addi	a5,gp,-2032 # 800007b0 <__metal_dt_clint_2000000>
2040207a:	00f71563          	bne	a4,a5,20402084 <__metal_driver_sifive_clint0_control_base+0x1c>
/home/khj/Desktop/hello_standalone/bsp/build/debug/./metal/machine.h:202
		return METAL_RISCV_CLINT0_2000000_BASE_ADDRESS;
2040207e:	020007b7          	lui	a5,0x2000
20402082:	a011                	j	20402086 <__metal_driver_sifive_clint0_control_base+0x1e>
/home/khj/Desktop/hello_standalone/bsp/build/debug/./metal/machine.h:205
	}
	else {
		return 0;
20402084:	4781                	li	a5,0
/home/khj/Desktop/hello_standalone/bsp/build/debug/./metal/machine.h:207
	}
}
20402086:	853e                	mv	a0,a5
20402088:	4472                	lw	s0,28(sp)
2040208a:	6105                	addi	sp,sp,32
2040208c:	8082                	ret

2040208e <__metal_driver_sifive_clint0_num_interrupts>:
__metal_driver_sifive_clint0_num_interrupts():
/home/khj/Desktop/hello_standalone/bsp/build/debug/./metal/machine.h:220
		return 0;
	}
}

static __inline__ int __metal_driver_sifive_clint0_num_interrupts(struct metal_interrupt *controller)
{
2040208e:	1101                	addi	sp,sp,-32
20402090:	ce22                	sw	s0,28(sp)
20402092:	1000                	addi	s0,sp,32
20402094:	fea42623          	sw	a0,-20(s0)
/home/khj/Desktop/hello_standalone/bsp/build/debug/./metal/machine.h:221
	if ((uintptr_t)controller == (uintptr_t)&__metal_dt_clint_2000000) {
20402098:	fec42703          	lw	a4,-20(s0)
2040209c:	81018793          	addi	a5,gp,-2032 # 800007b0 <__metal_dt_clint_2000000>
204020a0:	00f71463          	bne	a4,a5,204020a8 <__metal_driver_sifive_clint0_num_interrupts+0x1a>
/home/khj/Desktop/hello_standalone/bsp/build/debug/./metal/machine.h:222
		return METAL_MAX_CLINT_INTERRUPTS;
204020a4:	4789                	li	a5,2
204020a6:	a011                	j	204020aa <__metal_driver_sifive_clint0_num_interrupts+0x1c>
/home/khj/Desktop/hello_standalone/bsp/build/debug/./metal/machine.h:225
	}
	else {
		return 0;
204020a8:	4781                	li	a5,0
/home/khj/Desktop/hello_standalone/bsp/build/debug/./metal/machine.h:227
	}
}
204020aa:	853e                	mv	a0,a5
204020ac:	4472                	lw	s0,28(sp)
204020ae:	6105                	addi	sp,sp,32
204020b0:	8082                	ret

204020b2 <__metal_driver_sifive_clint0_interrupt_parents>:
__metal_driver_sifive_clint0_interrupt_parents():
/home/khj/Desktop/hello_standalone/bsp/build/debug/./metal/machine.h:230

static __inline__ struct metal_interrupt * __metal_driver_sifive_clint0_interrupt_parents(struct metal_interrupt *controller, int idx)
{
204020b2:	1101                	addi	sp,sp,-32
204020b4:	ce22                	sw	s0,28(sp)
204020b6:	1000                	addi	s0,sp,32
204020b8:	fea42623          	sw	a0,-20(s0)
204020bc:	feb42423          	sw	a1,-24(s0)
/home/khj/Desktop/hello_standalone/bsp/build/debug/./metal/machine.h:231
	if (idx == 0) {
204020c0:	fe842783          	lw	a5,-24(s0)
204020c4:	e791                	bnez	a5,204020d0 <__metal_driver_sifive_clint0_interrupt_parents+0x1e>
/home/khj/Desktop/hello_standalone/bsp/build/debug/./metal/machine.h:232
		return (struct metal_interrupt *)&__metal_dt_cpu_0_interrupt_controller.controller;
204020c6:	800007b7          	lui	a5,0x80000
204020ca:	08878793          	addi	a5,a5,136 # 80000088 <metal_dtim_0_memory_end+0xffff0088>
204020ce:	a821                	j	204020e6 <__metal_driver_sifive_clint0_interrupt_parents+0x34>
/home/khj/Desktop/hello_standalone/bsp/build/debug/./metal/machine.h:234
	}
	else if (idx == 1) {
204020d0:	fe842703          	lw	a4,-24(s0)
204020d4:	4785                	li	a5,1
204020d6:	00f71763          	bne	a4,a5,204020e4 <__metal_driver_sifive_clint0_interrupt_parents+0x32>
/home/khj/Desktop/hello_standalone/bsp/build/debug/./metal/machine.h:235
		return (struct metal_interrupt *)&__metal_dt_cpu_0_interrupt_controller.controller;
204020da:	800007b7          	lui	a5,0x80000
204020de:	08878793          	addi	a5,a5,136 # 80000088 <metal_dtim_0_memory_end+0xffff0088>
204020e2:	a011                	j	204020e6 <__metal_driver_sifive_clint0_interrupt_parents+0x34>
/home/khj/Desktop/hello_standalone/bsp/build/debug/./metal/machine.h:238
	}
	else {
		return NULL;
204020e4:	4781                	li	a5,0
/home/khj/Desktop/hello_standalone/bsp/build/debug/./metal/machine.h:240
	}
}
204020e6:	853e                	mv	a0,a5
204020e8:	4472                	lw	s0,28(sp)
204020ea:	6105                	addi	sp,sp,32
204020ec:	8082                	ret

204020ee <__metal_driver_sifive_clint0_interrupt_lines>:
__metal_driver_sifive_clint0_interrupt_lines():
/home/khj/Desktop/hello_standalone/bsp/build/debug/./metal/machine.h:243

static __inline__ int __metal_driver_sifive_clint0_interrupt_lines(struct metal_interrupt *controller, int idx)
{
204020ee:	1101                	addi	sp,sp,-32
204020f0:	ce22                	sw	s0,28(sp)
204020f2:	1000                	addi	s0,sp,32
204020f4:	fea42623          	sw	a0,-20(s0)
204020f8:	feb42423          	sw	a1,-24(s0)
/home/khj/Desktop/hello_standalone/bsp/build/debug/./metal/machine.h:244
	if (idx == 0) {
204020fc:	fe842783          	lw	a5,-24(s0)
20402100:	e399                	bnez	a5,20402106 <__metal_driver_sifive_clint0_interrupt_lines+0x18>
/home/khj/Desktop/hello_standalone/bsp/build/debug/./metal/machine.h:245
		return 3;
20402102:	478d                	li	a5,3
20402104:	a809                	j	20402116 <__metal_driver_sifive_clint0_interrupt_lines+0x28>
/home/khj/Desktop/hello_standalone/bsp/build/debug/./metal/machine.h:247
	}
	else if (idx == 1) {
20402106:	fe842703          	lw	a4,-24(s0)
2040210a:	4785                	li	a5,1
2040210c:	00f71463          	bne	a4,a5,20402114 <__metal_driver_sifive_clint0_interrupt_lines+0x26>
/home/khj/Desktop/hello_standalone/bsp/build/debug/./metal/machine.h:248
		return 7;
20402110:	479d                	li	a5,7
20402112:	a011                	j	20402116 <__metal_driver_sifive_clint0_interrupt_lines+0x28>
/home/khj/Desktop/hello_standalone/bsp/build/debug/./metal/machine.h:251
	}
	else {
		return 0;
20402114:	4781                	li	a5,0
/home/khj/Desktop/hello_standalone/bsp/build/debug/./metal/machine.h:253
	}
}
20402116:	853e                	mv	a0,a5
20402118:	4472                	lw	s0,28(sp)
2040211a:	6105                	addi	sp,sp,32
2040211c:	8082                	ret

2040211e <__metal_clint0_mtime_get>:
__metal_clint0_mtime_get():
/home/khj/Desktop/hello_standalone/freedom-metal/src/drivers/riscv_clint0.c:14
#include <metal/drivers/riscv_clint0.h>
#include <metal/io.h>
#include <metal/machine.h>

unsigned long long
__metal_clint0_mtime_get(struct __metal_driver_riscv_clint0 *clint) {
2040211e:	715d                	addi	sp,sp,-80
20402120:	c686                	sw	ra,76(sp)
20402122:	c4a2                	sw	s0,72(sp)
20402124:	c2ca                	sw	s2,68(sp)
20402126:	c0ce                	sw	s3,64(sp)
20402128:	de52                	sw	s4,60(sp)
2040212a:	dc56                	sw	s5,56(sp)
2040212c:	da5a                	sw	s6,52(sp)
2040212e:	d85e                	sw	s7,48(sp)
20402130:	d662                	sw	s8,44(sp)
20402132:	d466                	sw	s9,40(sp)
20402134:	0880                	addi	s0,sp,80
20402136:	faa42e23          	sw	a0,-68(s0)
/home/khj/Desktop/hello_standalone/freedom-metal/src/drivers/riscv_clint0.c:17
    __metal_io_u32 lo, hi;
    unsigned long control_base =
        __metal_driver_sifive_clint0_control_base(&clint->controller);
2040213a:	fbc42783          	lw	a5,-68(s0)
2040213e:	853e                	mv	a0,a5
20402140:	3725                	jal	20402068 <__metal_driver_sifive_clint0_control_base>
20402142:	fca42623          	sw	a0,-52(s0)
/home/khj/Desktop/hello_standalone/freedom-metal/src/drivers/riscv_clint0.c:21 (discriminator 1)

    /* Guard against rollover when reading */
    do {
        hi = __METAL_ACCESS_ONCE(
20402146:	fcc42703          	lw	a4,-52(s0)
2040214a:	67b1                	lui	a5,0xc
2040214c:	17f1                	addi	a5,a5,-4
2040214e:	97ba                	add	a5,a5,a4
20402150:	439c                	lw	a5,0(a5)
20402152:	fcf42423          	sw	a5,-56(s0)
/home/khj/Desktop/hello_standalone/freedom-metal/src/drivers/riscv_clint0.c:23 (discriminator 1)
            (__metal_io_u32 *)(control_base + METAL_RISCV_CLINT0_MTIME + 4));
        lo = __METAL_ACCESS_ONCE(
20402156:	fcc42703          	lw	a4,-52(s0)
2040215a:	67b1                	lui	a5,0xc
2040215c:	17e1                	addi	a5,a5,-8
2040215e:	97ba                	add	a5,a5,a4
20402160:	439c                	lw	a5,0(a5)
20402162:	fcf42223          	sw	a5,-60(s0)
/home/khj/Desktop/hello_standalone/freedom-metal/src/drivers/riscv_clint0.c:25 (discriminator 1)
            (__metal_io_u32 *)(control_base + METAL_RISCV_CLINT0_MTIME));
    } while (__METAL_ACCESS_ONCE((__metal_io_u32 *)(control_base +
20402166:	fcc42703          	lw	a4,-52(s0)
2040216a:	67b1                	lui	a5,0xc
2040216c:	17f1                	addi	a5,a5,-4
2040216e:	97ba                	add	a5,a5,a4
20402170:	439c                	lw	a5,0(a5)
20402172:	fc842703          	lw	a4,-56(s0)
20402176:	fcf718e3          	bne	a4,a5,20402146 <__metal_clint0_mtime_get+0x28>
/home/khj/Desktop/hello_standalone/freedom-metal/src/drivers/riscv_clint0.c:29
                                                    METAL_RISCV_CLINT0_MTIME +
                                                    4)) != hi);

    return (((unsigned long long)hi) << 32) | lo;
2040217a:	fc842783          	lw	a5,-56(s0)
2040217e:	8c3e                	mv	s8,a5
20402180:	4c81                	li	s9,0
20402182:	000c1993          	slli	s3,s8,0x0
20402186:	4901                	li	s2,0
20402188:	fc442783          	lw	a5,-60(s0)
2040218c:	8a3e                	mv	s4,a5
2040218e:	4a81                	li	s5,0
20402190:	01496b33          	or	s6,s2,s4
20402194:	0159ebb3          	or	s7,s3,s5
20402198:	87da                	mv	a5,s6
2040219a:	885e                	mv	a6,s7
/home/khj/Desktop/hello_standalone/freedom-metal/src/drivers/riscv_clint0.c:30
}
2040219c:	853e                	mv	a0,a5
2040219e:	85c2                	mv	a1,a6
204021a0:	40b6                	lw	ra,76(sp)
204021a2:	4426                	lw	s0,72(sp)
204021a4:	4916                	lw	s2,68(sp)
204021a6:	4986                	lw	s3,64(sp)
204021a8:	5a72                	lw	s4,60(sp)
204021aa:	5ae2                	lw	s5,56(sp)
204021ac:	5b52                	lw	s6,52(sp)
204021ae:	5bc2                	lw	s7,48(sp)
204021b0:	5c32                	lw	s8,44(sp)
204021b2:	5ca2                	lw	s9,40(sp)
204021b4:	6161                	addi	sp,sp,80
204021b6:	8082                	ret

204021b8 <__metal_driver_riscv_clint0_mtimecmp_set>:
__metal_driver_riscv_clint0_mtimecmp_set():
/home/khj/Desktop/hello_standalone/freedom-metal/src/drivers/riscv_clint0.c:34

int __metal_driver_riscv_clint0_mtimecmp_set(struct metal_interrupt *controller,
                                             int hartid,
                                             unsigned long long time) {
204021b8:	7179                	addi	sp,sp,-48
204021ba:	d606                	sw	ra,44(sp)
204021bc:	d422                	sw	s0,40(sp)
204021be:	d24a                	sw	s2,36(sp)
204021c0:	d04e                	sw	s3,32(sp)
204021c2:	1800                	addi	s0,sp,48
204021c4:	fca42e23          	sw	a0,-36(s0)
204021c8:	fcb42c23          	sw	a1,-40(s0)
204021cc:	fcc42823          	sw	a2,-48(s0)
204021d0:	fcd42a23          	sw	a3,-44(s0)
/home/khj/Desktop/hello_standalone/freedom-metal/src/drivers/riscv_clint0.c:35
    struct __metal_driver_riscv_clint0 *clint =
204021d4:	fdc42783          	lw	a5,-36(s0)
204021d8:	fef42623          	sw	a5,-20(s0)
/home/khj/Desktop/hello_standalone/freedom-metal/src/drivers/riscv_clint0.c:38
        (struct __metal_driver_riscv_clint0 *)(controller);
    unsigned long control_base =
        __metal_driver_sifive_clint0_control_base(&clint->controller);
204021dc:	fec42783          	lw	a5,-20(s0)
204021e0:	853e                	mv	a0,a5
204021e2:	3559                	jal	20402068 <__metal_driver_sifive_clint0_control_base>
204021e4:	fea42423          	sw	a0,-24(s0)
/home/khj/Desktop/hello_standalone/freedom-metal/src/drivers/riscv_clint0.c:45
     * and are NOT internally latched for multiword transfers.
     * Need to be careful about sequencing to avoid triggering
     * spurious interrupts: For that set the high word to a max
     * value first.
     */
    __METAL_ACCESS_ONCE((__metal_io_u32 *)(control_base + (8 * hartid) +
204021e8:	fd842783          	lw	a5,-40(s0)
204021ec:	078e                	slli	a5,a5,0x3
204021ee:	873e                	mv	a4,a5
204021f0:	fe842783          	lw	a5,-24(s0)
204021f4:	973e                	add	a4,a4,a5
204021f6:	6791                	lui	a5,0x4
204021f8:	0791                	addi	a5,a5,4
204021fa:	97ba                	add	a5,a5,a4
204021fc:	873e                	mv	a4,a5
/home/khj/Desktop/hello_standalone/freedom-metal/src/drivers/riscv_clint0.c:47
                                           METAL_RISCV_CLINT0_MTIMECMP_BASE +
                                           4)) = 0xFFFFFFFF;
204021fe:	57fd                	li	a5,-1
20402200:	c31c                	sw	a5,0(a4)
/home/khj/Desktop/hello_standalone/freedom-metal/src/drivers/riscv_clint0.c:48
    __METAL_ACCESS_ONCE((__metal_io_u32 *)(control_base + (8 * hartid) +
20402202:	fd842783          	lw	a5,-40(s0)
20402206:	078e                	slli	a5,a5,0x3
20402208:	873e                	mv	a4,a5
2040220a:	fe842783          	lw	a5,-24(s0)
2040220e:	973e                	add	a4,a4,a5
20402210:	6791                	lui	a5,0x4
20402212:	97ba                	add	a5,a5,a4
20402214:	873e                	mv	a4,a5
/home/khj/Desktop/hello_standalone/freedom-metal/src/drivers/riscv_clint0.c:50
                                           METAL_RISCV_CLINT0_MTIMECMP_BASE)) =
        (__metal_io_u32)time;
20402216:	fd042783          	lw	a5,-48(s0)
/home/khj/Desktop/hello_standalone/freedom-metal/src/drivers/riscv_clint0.c:49
                                           METAL_RISCV_CLINT0_MTIMECMP_BASE)) =
2040221a:	c31c                	sw	a5,0(a4)
/home/khj/Desktop/hello_standalone/freedom-metal/src/drivers/riscv_clint0.c:53
    __METAL_ACCESS_ONCE((__metal_io_u32 *)(control_base + (8 * hartid) +
                                           METAL_RISCV_CLINT0_MTIMECMP_BASE +
                                           4)) = (__metal_io_u32)(time >> 32);
2040221c:	fd442783          	lw	a5,-44(s0)
20402220:	0007d913          	srli	s2,a5,0x0
20402224:	4981                	li	s3,0
/home/khj/Desktop/hello_standalone/freedom-metal/src/drivers/riscv_clint0.c:51
    __METAL_ACCESS_ONCE((__metal_io_u32 *)(control_base + (8 * hartid) +
20402226:	fd842783          	lw	a5,-40(s0)
2040222a:	078e                	slli	a5,a5,0x3
2040222c:	873e                	mv	a4,a5
2040222e:	fe842783          	lw	a5,-24(s0)
20402232:	973e                	add	a4,a4,a5
20402234:	6791                	lui	a5,0x4
20402236:	0791                	addi	a5,a5,4
20402238:	97ba                	add	a5,a5,a4
/home/khj/Desktop/hello_standalone/freedom-metal/src/drivers/riscv_clint0.c:53
                                           4)) = (__metal_io_u32)(time >> 32);
2040223a:	874a                	mv	a4,s2
2040223c:	c398                	sw	a4,0(a5)
/home/khj/Desktop/hello_standalone/freedom-metal/src/drivers/riscv_clint0.c:54
    return 0;
2040223e:	4781                	li	a5,0
/home/khj/Desktop/hello_standalone/freedom-metal/src/drivers/riscv_clint0.c:55
}
20402240:	853e                	mv	a0,a5
20402242:	50b2                	lw	ra,44(sp)
20402244:	5422                	lw	s0,40(sp)
20402246:	5912                	lw	s2,36(sp)
20402248:	5982                	lw	s3,32(sp)
2040224a:	6145                	addi	sp,sp,48
2040224c:	8082                	ret

2040224e <_get_cpu_intc>:
_get_cpu_intc():
/home/khj/Desktop/hello_standalone/freedom-metal/src/drivers/riscv_clint0.c:57

static struct metal_interrupt *_get_cpu_intc() {
2040224e:	1101                	addi	sp,sp,-32
20402250:	ce06                	sw	ra,28(sp)
20402252:	cc22                	sw	s0,24(sp)
20402254:	1000                	addi	s0,sp,32
/home/khj/Desktop/hello_standalone/freedom-metal/src/drivers/riscv_clint0.c:58
    int hartid = 0;
20402256:	fe042623          	sw	zero,-20(s0)
/home/khj/Desktop/hello_standalone/freedom-metal/src/drivers/riscv_clint0.c:59
    __asm__ volatile("csrr %[hartid], mhartid"
2040225a:	f14027f3          	csrr	a5,mhartid
2040225e:	fef42623          	sw	a5,-20(s0)
/home/khj/Desktop/hello_standalone/freedom-metal/src/drivers/riscv_clint0.c:62
                     : [hartid] "=r"(hartid)::"memory");

    struct metal_cpu *cpu = metal_cpu_get(hartid);
20402262:	fec42783          	lw	a5,-20(s0)
20402266:	853e                	mv	a0,a5
20402268:	1be040ef          	jal	ra,20406426 <metal_cpu_get>
2040226c:	fea42423          	sw	a0,-24(s0)
/home/khj/Desktop/hello_standalone/freedom-metal/src/drivers/riscv_clint0.c:64

    return metal_cpu_interrupt_controller(cpu);
20402270:	fe842503          	lw	a0,-24(s0)
20402274:	18c040ef          	jal	ra,20406400 <metal_cpu_interrupt_controller>
20402278:	87aa                	mv	a5,a0
/home/khj/Desktop/hello_standalone/freedom-metal/src/drivers/riscv_clint0.c:65
}
2040227a:	853e                	mv	a0,a5
2040227c:	40f2                	lw	ra,28(sp)
2040227e:	4462                	lw	s0,24(sp)
20402280:	6105                	addi	sp,sp,32
20402282:	8082                	ret

20402284 <__metal_driver_riscv_clint0_init>:
__metal_driver_riscv_clint0_init():
/home/khj/Desktop/hello_standalone/freedom-metal/src/drivers/riscv_clint0.c:67

void __metal_driver_riscv_clint0_init(struct metal_interrupt *controller) {
20402284:	7139                	addi	sp,sp,-64
20402286:	de06                	sw	ra,60(sp)
20402288:	dc22                	sw	s0,56(sp)
2040228a:	0080                	addi	s0,sp,64
2040228c:	fca42623          	sw	a0,-52(s0)
/home/khj/Desktop/hello_standalone/freedom-metal/src/drivers/riscv_clint0.c:69
    int num_interrupts =
        __metal_driver_sifive_clint0_num_interrupts(controller);
20402290:	fcc42503          	lw	a0,-52(s0)
20402294:	3bed                	jal	2040208e <__metal_driver_sifive_clint0_num_interrupts>
20402296:	fea42423          	sw	a0,-24(s0)
/home/khj/Desktop/hello_standalone/freedom-metal/src/drivers/riscv_clint0.c:70
    struct __metal_driver_riscv_clint0 *clint =
2040229a:	fcc42783          	lw	a5,-52(s0)
2040229e:	fef42223          	sw	a5,-28(s0)
/home/khj/Desktop/hello_standalone/freedom-metal/src/drivers/riscv_clint0.c:73
        (struct __metal_driver_riscv_clint0 *)(controller);

    if (!clint->init_done) {
204022a2:	fe442783          	lw	a5,-28(s0)
204022a6:	43dc                	lw	a5,4(a5)
204022a8:	efa9                	bnez	a5,20402302 <__metal_driver_riscv_clint0_init+0x7e>
/home/khj/Desktop/hello_standalone/freedom-metal/src/drivers/riscv_clint0.c:76
        /* Register its interrupts with with parent controller, aka sw and
         * timerto its default isr */
        for (int i = 0; i < num_interrupts; i++) {
204022aa:	fe042623          	sw	zero,-20(s0)
204022ae:	a081                	j	204022ee <__metal_driver_riscv_clint0_init+0x6a>
/home/khj/Desktop/hello_standalone/freedom-metal/src/drivers/riscv_clint0.c:78 (discriminator 3)
            struct metal_interrupt *intc =
                __metal_driver_sifive_clint0_interrupt_parents(controller, i);
204022b0:	fec42583          	lw	a1,-20(s0)
204022b4:	fcc42503          	lw	a0,-52(s0)
204022b8:	3bed                	jal	204020b2 <__metal_driver_sifive_clint0_interrupt_parents>
204022ba:	fea42023          	sw	a0,-32(s0)
/home/khj/Desktop/hello_standalone/freedom-metal/src/drivers/riscv_clint0.c:80 (discriminator 3)
            int line =
                __metal_driver_sifive_clint0_interrupt_lines(controller, i);
204022be:	fec42583          	lw	a1,-20(s0)
204022c2:	fcc42503          	lw	a0,-52(s0)
204022c6:	3525                	jal	204020ee <__metal_driver_sifive_clint0_interrupt_lines>
204022c8:	fca42e23          	sw	a0,-36(s0)
/home/khj/Desktop/hello_standalone/freedom-metal/src/drivers/riscv_clint0.c:81 (discriminator 3)
            intc->vtable->interrupt_register(intc, line, NULL, controller);
204022cc:	fe042783          	lw	a5,-32(s0)
204022d0:	439c                	lw	a5,0(a5)
204022d2:	4fdc                	lw	a5,28(a5)
204022d4:	fcc42683          	lw	a3,-52(s0)
204022d8:	4601                	li	a2,0
204022da:	fdc42583          	lw	a1,-36(s0)
204022de:	fe042503          	lw	a0,-32(s0)
204022e2:	9782                	jalr	a5
/home/khj/Desktop/hello_standalone/freedom-metal/src/drivers/riscv_clint0.c:76 (discriminator 3)
        for (int i = 0; i < num_interrupts; i++) {
204022e4:	fec42783          	lw	a5,-20(s0)
204022e8:	0785                	addi	a5,a5,1
204022ea:	fef42623          	sw	a5,-20(s0)
/home/khj/Desktop/hello_standalone/freedom-metal/src/drivers/riscv_clint0.c:76 (discriminator 1)
204022ee:	fec42703          	lw	a4,-20(s0)
204022f2:	fe842783          	lw	a5,-24(s0)
204022f6:	faf74de3          	blt	a4,a5,204022b0 <__metal_driver_riscv_clint0_init+0x2c>
/home/khj/Desktop/hello_standalone/freedom-metal/src/drivers/riscv_clint0.c:83
        }
        clint->init_done = 1;
204022fa:	fe442783          	lw	a5,-28(s0)
204022fe:	4705                	li	a4,1
20402300:	c3d8                	sw	a4,4(a5)
/home/khj/Desktop/hello_standalone/freedom-metal/src/drivers/riscv_clint0.c:85
    }
}
20402302:	0001                	nop
20402304:	50f2                	lw	ra,60(sp)
20402306:	5462                	lw	s0,56(sp)
20402308:	6121                	addi	sp,sp,64
2040230a:	8082                	ret

2040230c <__metal_driver_riscv_clint0_register>:
__metal_driver_riscv_clint0_register():
/home/khj/Desktop/hello_standalone/freedom-metal/src/drivers/riscv_clint0.c:89

int __metal_driver_riscv_clint0_register(struct metal_interrupt *controller,
                                         int id, metal_interrupt_handler_t isr,
                                         void *priv) {
2040230c:	7139                	addi	sp,sp,-64
2040230e:	de06                	sw	ra,60(sp)
20402310:	dc22                	sw	s0,56(sp)
20402312:	0080                	addi	s0,sp,64
20402314:	fca42623          	sw	a0,-52(s0)
20402318:	fcb42423          	sw	a1,-56(s0)
2040231c:	fcc42223          	sw	a2,-60(s0)
20402320:	fcd42023          	sw	a3,-64(s0)
/home/khj/Desktop/hello_standalone/freedom-metal/src/drivers/riscv_clint0.c:90
    int rc = -1;
20402324:	57fd                	li	a5,-1
20402326:	fef42623          	sw	a5,-20(s0)
/home/khj/Desktop/hello_standalone/freedom-metal/src/drivers/riscv_clint0.c:91
    metal_vector_mode mode = __metal_controller_interrupt_vector_mode();
2040232a:	3e8010ef          	jal	ra,20403712 <__metal_controller_interrupt_vector_mode>
2040232e:	fea42023          	sw	a0,-32(s0)
/home/khj/Desktop/hello_standalone/freedom-metal/src/drivers/riscv_clint0.c:92
    struct metal_interrupt *intc = NULL;
20402332:	fe042423          	sw	zero,-24(s0)
/home/khj/Desktop/hello_standalone/freedom-metal/src/drivers/riscv_clint0.c:93
    struct metal_interrupt *cpu_intc = _get_cpu_intc();
20402336:	3f21                	jal	2040224e <_get_cpu_intc>
20402338:	fca42e23          	sw	a0,-36(s0)
/home/khj/Desktop/hello_standalone/freedom-metal/src/drivers/riscv_clint0.c:95
    int num_interrupts =
        __metal_driver_sifive_clint0_num_interrupts(controller);
2040233c:	fcc42503          	lw	a0,-52(s0)
20402340:	33b9                	jal	2040208e <__metal_driver_sifive_clint0_num_interrupts>
20402342:	fca42c23          	sw	a0,-40(s0)
/home/khj/Desktop/hello_standalone/freedom-metal/src/drivers/riscv_clint0.c:97

    if ((mode != METAL_VECTOR_MODE) && (mode != METAL_DIRECT_MODE)) {
20402346:	fe042703          	lw	a4,-32(s0)
2040234a:	4785                	li	a5,1
2040234c:	00f70863          	beq	a4,a5,2040235c <__metal_driver_riscv_clint0_register+0x50>
/home/khj/Desktop/hello_standalone/freedom-metal/src/drivers/riscv_clint0.c:97 (discriminator 1)
20402350:	fe042783          	lw	a5,-32(s0)
20402354:	c781                	beqz	a5,2040235c <__metal_driver_riscv_clint0_register+0x50>
/home/khj/Desktop/hello_standalone/freedom-metal/src/drivers/riscv_clint0.c:98
        return rc;
20402356:	fec42783          	lw	a5,-20(s0)
2040235a:	a049                	j	204023dc <__metal_driver_riscv_clint0_register+0xd0>
/home/khj/Desktop/hello_standalone/freedom-metal/src/drivers/riscv_clint0.c:101
    }

    for (int i = 0; i < num_interrupts; i++) {
2040235c:	fe042223          	sw	zero,-28(s0)
20402360:	a091                	j	204023a4 <__metal_driver_riscv_clint0_register+0x98>
/home/khj/Desktop/hello_standalone/freedom-metal/src/drivers/riscv_clint0.c:102
        int line = __metal_driver_sifive_clint0_interrupt_lines(controller, i);
20402362:	fe442583          	lw	a1,-28(s0)
20402366:	fcc42503          	lw	a0,-52(s0)
2040236a:	3351                	jal	204020ee <__metal_driver_sifive_clint0_interrupt_lines>
2040236c:	fca42a23          	sw	a0,-44(s0)
/home/khj/Desktop/hello_standalone/freedom-metal/src/drivers/riscv_clint0.c:103
        intc = __metal_driver_sifive_clint0_interrupt_parents(controller, i);
20402370:	fe442583          	lw	a1,-28(s0)
20402374:	fcc42503          	lw	a0,-52(s0)
20402378:	3b2d                	jal	204020b2 <__metal_driver_sifive_clint0_interrupt_parents>
2040237a:	fea42423          	sw	a0,-24(s0)
/home/khj/Desktop/hello_standalone/freedom-metal/src/drivers/riscv_clint0.c:104
        if (cpu_intc == intc && id == line) {
2040237e:	fdc42703          	lw	a4,-36(s0)
20402382:	fe842783          	lw	a5,-24(s0)
20402386:	00f71863          	bne	a4,a5,20402396 <__metal_driver_riscv_clint0_register+0x8a>
/home/khj/Desktop/hello_standalone/freedom-metal/src/drivers/riscv_clint0.c:104 (discriminator 1)
2040238a:	fc842703          	lw	a4,-56(s0)
2040238e:	fd442783          	lw	a5,-44(s0)
20402392:	02f70063          	beq	a4,a5,204023b2 <__metal_driver_riscv_clint0_register+0xa6>
/home/khj/Desktop/hello_standalone/freedom-metal/src/drivers/riscv_clint0.c:107 (discriminator 2)
            break;
        }
        intc = NULL;
20402396:	fe042423          	sw	zero,-24(s0)
/home/khj/Desktop/hello_standalone/freedom-metal/src/drivers/riscv_clint0.c:101 (discriminator 2)
    for (int i = 0; i < num_interrupts; i++) {
2040239a:	fe442783          	lw	a5,-28(s0)
2040239e:	0785                	addi	a5,a5,1
204023a0:	fef42223          	sw	a5,-28(s0)
/home/khj/Desktop/hello_standalone/freedom-metal/src/drivers/riscv_clint0.c:101 (discriminator 1)
204023a4:	fe442703          	lw	a4,-28(s0)
204023a8:	fd842783          	lw	a5,-40(s0)
204023ac:	faf74be3          	blt	a4,a5,20402362 <__metal_driver_riscv_clint0_register+0x56>
204023b0:	a011                	j	204023b4 <__metal_driver_riscv_clint0_register+0xa8>
/home/khj/Desktop/hello_standalone/freedom-metal/src/drivers/riscv_clint0.c:105
            break;
204023b2:	0001                	nop
/home/khj/Desktop/hello_standalone/freedom-metal/src/drivers/riscv_clint0.c:111
    }

    /* Register its interrupts with parent controller */
    if (intc) {
204023b4:	fe842783          	lw	a5,-24(s0)
204023b8:	c385                	beqz	a5,204023d8 <__metal_driver_riscv_clint0_register+0xcc>
/home/khj/Desktop/hello_standalone/freedom-metal/src/drivers/riscv_clint0.c:112
        rc = intc->vtable->interrupt_register(intc, id, isr, priv);
204023ba:	fe842783          	lw	a5,-24(s0)
204023be:	439c                	lw	a5,0(a5)
204023c0:	4fdc                	lw	a5,28(a5)
204023c2:	fc042683          	lw	a3,-64(s0)
204023c6:	fc442603          	lw	a2,-60(s0)
204023ca:	fc842583          	lw	a1,-56(s0)
204023ce:	fe842503          	lw	a0,-24(s0)
204023d2:	9782                	jalr	a5
204023d4:	fea42623          	sw	a0,-20(s0)
/home/khj/Desktop/hello_standalone/freedom-metal/src/drivers/riscv_clint0.c:114
    }
    return rc;
204023d8:	fec42783          	lw	a5,-20(s0)
/home/khj/Desktop/hello_standalone/freedom-metal/src/drivers/riscv_clint0.c:115
}
204023dc:	853e                	mv	a0,a5
204023de:	50f2                	lw	ra,60(sp)
204023e0:	5462                	lw	s0,56(sp)
204023e2:	6121                	addi	sp,sp,64
204023e4:	8082                	ret

204023e6 <__metal_driver_riscv_clint0_vector_register>:
__metal_driver_riscv_clint0_vector_register():
/home/khj/Desktop/hello_standalone/freedom-metal/src/drivers/riscv_clint0.c:119

int __metal_driver_riscv_clint0_vector_register(
    struct metal_interrupt *controller, int id,
    metal_interrupt_vector_handler_t isr, void *priv) {
204023e6:	7179                	addi	sp,sp,-48
204023e8:	d622                	sw	s0,44(sp)
204023ea:	1800                	addi	s0,sp,48
204023ec:	fca42e23          	sw	a0,-36(s0)
204023f0:	fcb42c23          	sw	a1,-40(s0)
204023f4:	fcc42a23          	sw	a2,-44(s0)
204023f8:	fcd42823          	sw	a3,-48(s0)
/home/khj/Desktop/hello_standalone/freedom-metal/src/drivers/riscv_clint0.c:121
    /* Not supported. User can override the 'weak' handler with their own */
    int rc = -1;
204023fc:	57fd                	li	a5,-1
204023fe:	fef42623          	sw	a5,-20(s0)
/home/khj/Desktop/hello_standalone/freedom-metal/src/drivers/riscv_clint0.c:122
    return rc;
20402402:	fec42783          	lw	a5,-20(s0)
/home/khj/Desktop/hello_standalone/freedom-metal/src/drivers/riscv_clint0.c:123
}
20402406:	853e                	mv	a0,a5
20402408:	5432                	lw	s0,44(sp)
2040240a:	6145                	addi	sp,sp,48
2040240c:	8082                	ret

2040240e <__metal_driver_riscv_clint0_get_vector_mode>:
__metal_driver_riscv_clint0_get_vector_mode():
/home/khj/Desktop/hello_standalone/freedom-metal/src/drivers/riscv_clint0.c:126

metal_vector_mode __metal_driver_riscv_clint0_get_vector_mode(
    struct metal_interrupt *controller) {
2040240e:	1101                	addi	sp,sp,-32
20402410:	ce06                	sw	ra,28(sp)
20402412:	cc22                	sw	s0,24(sp)
20402414:	1000                	addi	s0,sp,32
20402416:	fea42623          	sw	a0,-20(s0)
/home/khj/Desktop/hello_standalone/freedom-metal/src/drivers/riscv_clint0.c:127
    return __metal_controller_interrupt_vector_mode();
2040241a:	2f8010ef          	jal	ra,20403712 <__metal_controller_interrupt_vector_mode>
2040241e:	87aa                	mv	a5,a0
/home/khj/Desktop/hello_standalone/freedom-metal/src/drivers/riscv_clint0.c:128
}
20402420:	853e                	mv	a0,a5
20402422:	40f2                	lw	ra,28(sp)
20402424:	4462                	lw	s0,24(sp)
20402426:	6105                	addi	sp,sp,32
20402428:	8082                	ret

2040242a <__metal_driver_riscv_clint0_set_vector_mode>:
__metal_driver_riscv_clint0_set_vector_mode():
/home/khj/Desktop/hello_standalone/freedom-metal/src/drivers/riscv_clint0.c:131

int __metal_driver_riscv_clint0_set_vector_mode(
    struct metal_interrupt *controller, metal_vector_mode mode) {
2040242a:	7179                	addi	sp,sp,-48
2040242c:	d606                	sw	ra,44(sp)
2040242e:	d422                	sw	s0,40(sp)
20402430:	1800                	addi	s0,sp,48
20402432:	fca42e23          	sw	a0,-36(s0)
20402436:	fcb42c23          	sw	a1,-40(s0)
/home/khj/Desktop/hello_standalone/freedom-metal/src/drivers/riscv_clint0.c:132
    int rc = -1;
2040243a:	57fd                	li	a5,-1
2040243c:	fef42623          	sw	a5,-20(s0)
/home/khj/Desktop/hello_standalone/freedom-metal/src/drivers/riscv_clint0.c:133
    struct metal_interrupt *intc = _get_cpu_intc();
20402440:	3539                	jal	2040224e <_get_cpu_intc>
20402442:	fea42423          	sw	a0,-24(s0)
/home/khj/Desktop/hello_standalone/freedom-metal/src/drivers/riscv_clint0.c:135

    if (intc) {
20402446:	fe842783          	lw	a5,-24(s0)
2040244a:	c395                	beqz	a5,2040246e <__metal_driver_riscv_clint0_set_vector_mode+0x44>
/home/khj/Desktop/hello_standalone/freedom-metal/src/drivers/riscv_clint0.c:138
        /* Valid vector modes are VECTOR and DIRECT, anything else is invalid
         * (-1) */
        switch (mode) {
2040244c:	fd842703          	lw	a4,-40(s0)
20402450:	4785                	li	a5,1
20402452:	02e7e063          	bltu	a5,a4,20402472 <__metal_driver_riscv_clint0_set_vector_mode+0x48>
/home/khj/Desktop/hello_standalone/freedom-metal/src/drivers/riscv_clint0.c:141
        case METAL_VECTOR_MODE:
        case METAL_DIRECT_MODE:
            rc = intc->vtable->interrupt_set_vector_mode(intc, mode);
20402456:	fe842783          	lw	a5,-24(s0)
2040245a:	439c                	lw	a5,0(a5)
2040245c:	43dc                	lw	a5,4(a5)
2040245e:	fd842583          	lw	a1,-40(s0)
20402462:	fe842503          	lw	a0,-24(s0)
20402466:	9782                	jalr	a5
20402468:	fea42623          	sw	a0,-20(s0)
/home/khj/Desktop/hello_standalone/freedom-metal/src/drivers/riscv_clint0.c:142
            break;
2040246c:	a021                	j	20402474 <__metal_driver_riscv_clint0_set_vector_mode+0x4a>
/home/khj/Desktop/hello_standalone/freedom-metal/src/drivers/riscv_clint0.c:146
        default:
            break;
        }
    }
2040246e:	0001                	nop
20402470:	a011                	j	20402474 <__metal_driver_riscv_clint0_set_vector_mode+0x4a>
/home/khj/Desktop/hello_standalone/freedom-metal/src/drivers/riscv_clint0.c:144
            break;
20402472:	0001                	nop
/home/khj/Desktop/hello_standalone/freedom-metal/src/drivers/riscv_clint0.c:147
    return rc;
20402474:	fec42783          	lw	a5,-20(s0)
/home/khj/Desktop/hello_standalone/freedom-metal/src/drivers/riscv_clint0.c:148
}
20402478:	853e                	mv	a0,a5
2040247a:	50b2                	lw	ra,44(sp)
2040247c:	5422                	lw	s0,40(sp)
2040247e:	6145                	addi	sp,sp,48
20402480:	8082                	ret

20402482 <__metal_driver_riscv_clint0_enable>:
__metal_driver_riscv_clint0_enable():
/home/khj/Desktop/hello_standalone/freedom-metal/src/drivers/riscv_clint0.c:151

int __metal_driver_riscv_clint0_enable(struct metal_interrupt *controller,
                                       int id) {
20402482:	7139                	addi	sp,sp,-64
20402484:	de06                	sw	ra,60(sp)
20402486:	dc22                	sw	s0,56(sp)
20402488:	0080                	addi	s0,sp,64
2040248a:	fca42623          	sw	a0,-52(s0)
2040248e:	fcb42423          	sw	a1,-56(s0)
/home/khj/Desktop/hello_standalone/freedom-metal/src/drivers/riscv_clint0.c:152
    int rc = -1;
20402492:	57fd                	li	a5,-1
20402494:	fef42623          	sw	a5,-20(s0)
/home/khj/Desktop/hello_standalone/freedom-metal/src/drivers/riscv_clint0.c:154

    if (id) {
20402498:	fc842783          	lw	a5,-56(s0)
2040249c:	c7c9                	beqz	a5,20402526 <__metal_driver_riscv_clint0_enable+0xa4>
/home/khj/Desktop/hello_standalone/freedom-metal/src/drivers/riscv_clint0.c:155
        struct metal_interrupt *intc = NULL;
2040249e:	fe042423          	sw	zero,-24(s0)
/home/khj/Desktop/hello_standalone/freedom-metal/src/drivers/riscv_clint0.c:156
        struct metal_interrupt *cpu_intc = _get_cpu_intc();
204024a2:	3375                	jal	2040224e <_get_cpu_intc>
204024a4:	fea42023          	sw	a0,-32(s0)
/home/khj/Desktop/hello_standalone/freedom-metal/src/drivers/riscv_clint0.c:158
        int num_interrupts =
            __metal_driver_sifive_clint0_num_interrupts(controller);
204024a8:	fcc42503          	lw	a0,-52(s0)
204024ac:	36cd                	jal	2040208e <__metal_driver_sifive_clint0_num_interrupts>
204024ae:	fca42e23          	sw	a0,-36(s0)
/home/khj/Desktop/hello_standalone/freedom-metal/src/drivers/riscv_clint0.c:160

        for (int i = 0; i < num_interrupts; i++) {
204024b2:	fe042223          	sw	zero,-28(s0)
204024b6:	a091                	j	204024fa <__metal_driver_riscv_clint0_enable+0x78>
/home/khj/Desktop/hello_standalone/freedom-metal/src/drivers/riscv_clint0.c:162
            int line =
                __metal_driver_sifive_clint0_interrupt_lines(controller, i);
204024b8:	fe442583          	lw	a1,-28(s0)
204024bc:	fcc42503          	lw	a0,-52(s0)
204024c0:	313d                	jal	204020ee <__metal_driver_sifive_clint0_interrupt_lines>
204024c2:	fca42c23          	sw	a0,-40(s0)
/home/khj/Desktop/hello_standalone/freedom-metal/src/drivers/riscv_clint0.c:164
            intc =
                __metal_driver_sifive_clint0_interrupt_parents(controller, i);
204024c6:	fe442583          	lw	a1,-28(s0)
204024ca:	fcc42503          	lw	a0,-52(s0)
204024ce:	36d5                	jal	204020b2 <__metal_driver_sifive_clint0_interrupt_parents>
204024d0:	fea42423          	sw	a0,-24(s0)
/home/khj/Desktop/hello_standalone/freedom-metal/src/drivers/riscv_clint0.c:165
            if (cpu_intc == intc && id == line) {
204024d4:	fe042703          	lw	a4,-32(s0)
204024d8:	fe842783          	lw	a5,-24(s0)
204024dc:	00f71863          	bne	a4,a5,204024ec <__metal_driver_riscv_clint0_enable+0x6a>
/home/khj/Desktop/hello_standalone/freedom-metal/src/drivers/riscv_clint0.c:165 (discriminator 1)
204024e0:	fc842703          	lw	a4,-56(s0)
204024e4:	fd842783          	lw	a5,-40(s0)
204024e8:	02f70063          	beq	a4,a5,20402508 <__metal_driver_riscv_clint0_enable+0x86>
/home/khj/Desktop/hello_standalone/freedom-metal/src/drivers/riscv_clint0.c:168 (discriminator 2)
                break;
            }
            intc = NULL;
204024ec:	fe042423          	sw	zero,-24(s0)
/home/khj/Desktop/hello_standalone/freedom-metal/src/drivers/riscv_clint0.c:160 (discriminator 2)
        for (int i = 0; i < num_interrupts; i++) {
204024f0:	fe442783          	lw	a5,-28(s0)
204024f4:	0785                	addi	a5,a5,1
204024f6:	fef42223          	sw	a5,-28(s0)
/home/khj/Desktop/hello_standalone/freedom-metal/src/drivers/riscv_clint0.c:160 (discriminator 1)
204024fa:	fe442703          	lw	a4,-28(s0)
204024fe:	fdc42783          	lw	a5,-36(s0)
20402502:	faf74be3          	blt	a4,a5,204024b8 <__metal_driver_riscv_clint0_enable+0x36>
20402506:	a011                	j	2040250a <__metal_driver_riscv_clint0_enable+0x88>
/home/khj/Desktop/hello_standalone/freedom-metal/src/drivers/riscv_clint0.c:166
                break;
20402508:	0001                	nop
/home/khj/Desktop/hello_standalone/freedom-metal/src/drivers/riscv_clint0.c:172
        }

        /* Enable its interrupts with parent controller */
        if (intc) {
2040250a:	fe842783          	lw	a5,-24(s0)
2040250e:	cf81                	beqz	a5,20402526 <__metal_driver_riscv_clint0_enable+0xa4>
/home/khj/Desktop/hello_standalone/freedom-metal/src/drivers/riscv_clint0.c:173
            rc = intc->vtable->interrupt_enable(intc, id);
20402510:	fe842783          	lw	a5,-24(s0)
20402514:	439c                	lw	a5,0(a5)
20402516:	53dc                	lw	a5,36(a5)
20402518:	fc842583          	lw	a1,-56(s0)
2040251c:	fe842503          	lw	a0,-24(s0)
20402520:	9782                	jalr	a5
20402522:	fea42623          	sw	a0,-20(s0)
/home/khj/Desktop/hello_standalone/freedom-metal/src/drivers/riscv_clint0.c:177
        }
    }

    return rc;
20402526:	fec42783          	lw	a5,-20(s0)
/home/khj/Desktop/hello_standalone/freedom-metal/src/drivers/riscv_clint0.c:178
}
2040252a:	853e                	mv	a0,a5
2040252c:	50f2                	lw	ra,60(sp)
2040252e:	5462                	lw	s0,56(sp)
20402530:	6121                	addi	sp,sp,64
20402532:	8082                	ret

20402534 <__metal_driver_riscv_clint0_disable>:
__metal_driver_riscv_clint0_disable():
/home/khj/Desktop/hello_standalone/freedom-metal/src/drivers/riscv_clint0.c:181

int __metal_driver_riscv_clint0_disable(struct metal_interrupt *controller,
                                        int id) {
20402534:	7139                	addi	sp,sp,-64
20402536:	de06                	sw	ra,60(sp)
20402538:	dc22                	sw	s0,56(sp)
2040253a:	0080                	addi	s0,sp,64
2040253c:	fca42623          	sw	a0,-52(s0)
20402540:	fcb42423          	sw	a1,-56(s0)
/home/khj/Desktop/hello_standalone/freedom-metal/src/drivers/riscv_clint0.c:182
    int rc = -1;
20402544:	57fd                	li	a5,-1
20402546:	fef42623          	sw	a5,-20(s0)
/home/khj/Desktop/hello_standalone/freedom-metal/src/drivers/riscv_clint0.c:184

    if (id) {
2040254a:	fc842783          	lw	a5,-56(s0)
2040254e:	c7c9                	beqz	a5,204025d8 <__metal_driver_riscv_clint0_disable+0xa4>
/home/khj/Desktop/hello_standalone/freedom-metal/src/drivers/riscv_clint0.c:185
        struct metal_interrupt *intc = NULL;
20402550:	fe042423          	sw	zero,-24(s0)
/home/khj/Desktop/hello_standalone/freedom-metal/src/drivers/riscv_clint0.c:186
        struct metal_interrupt *cpu_intc = _get_cpu_intc();
20402554:	39ed                	jal	2040224e <_get_cpu_intc>
20402556:	fea42023          	sw	a0,-32(s0)
/home/khj/Desktop/hello_standalone/freedom-metal/src/drivers/riscv_clint0.c:188
        int num_interrupts =
            __metal_driver_sifive_clint0_num_interrupts(controller);
2040255a:	fcc42503          	lw	a0,-52(s0)
2040255e:	3e05                	jal	2040208e <__metal_driver_sifive_clint0_num_interrupts>
20402560:	fca42e23          	sw	a0,-36(s0)
/home/khj/Desktop/hello_standalone/freedom-metal/src/drivers/riscv_clint0.c:190

        for (int i = 0; i < num_interrupts; i++) {
20402564:	fe042223          	sw	zero,-28(s0)
20402568:	a091                	j	204025ac <__metal_driver_riscv_clint0_disable+0x78>
/home/khj/Desktop/hello_standalone/freedom-metal/src/drivers/riscv_clint0.c:192
            int line =
                __metal_driver_sifive_clint0_interrupt_lines(controller, i);
2040256a:	fe442583          	lw	a1,-28(s0)
2040256e:	fcc42503          	lw	a0,-52(s0)
20402572:	3eb5                	jal	204020ee <__metal_driver_sifive_clint0_interrupt_lines>
20402574:	fca42c23          	sw	a0,-40(s0)
/home/khj/Desktop/hello_standalone/freedom-metal/src/drivers/riscv_clint0.c:194
            intc =
                __metal_driver_sifive_clint0_interrupt_parents(controller, i);
20402578:	fe442583          	lw	a1,-28(s0)
2040257c:	fcc42503          	lw	a0,-52(s0)
20402580:	3e0d                	jal	204020b2 <__metal_driver_sifive_clint0_interrupt_parents>
20402582:	fea42423          	sw	a0,-24(s0)
/home/khj/Desktop/hello_standalone/freedom-metal/src/drivers/riscv_clint0.c:195
            if (cpu_intc == intc && id == line) {
20402586:	fe042703          	lw	a4,-32(s0)
2040258a:	fe842783          	lw	a5,-24(s0)
2040258e:	00f71863          	bne	a4,a5,2040259e <__metal_driver_riscv_clint0_disable+0x6a>
/home/khj/Desktop/hello_standalone/freedom-metal/src/drivers/riscv_clint0.c:195 (discriminator 1)
20402592:	fc842703          	lw	a4,-56(s0)
20402596:	fd842783          	lw	a5,-40(s0)
2040259a:	02f70063          	beq	a4,a5,204025ba <__metal_driver_riscv_clint0_disable+0x86>
/home/khj/Desktop/hello_standalone/freedom-metal/src/drivers/riscv_clint0.c:198 (discriminator 2)
                break;
            }
            intc = NULL;
2040259e:	fe042423          	sw	zero,-24(s0)
/home/khj/Desktop/hello_standalone/freedom-metal/src/drivers/riscv_clint0.c:190 (discriminator 2)
        for (int i = 0; i < num_interrupts; i++) {
204025a2:	fe442783          	lw	a5,-28(s0)
204025a6:	0785                	addi	a5,a5,1
204025a8:	fef42223          	sw	a5,-28(s0)
/home/khj/Desktop/hello_standalone/freedom-metal/src/drivers/riscv_clint0.c:190 (discriminator 1)
204025ac:	fe442703          	lw	a4,-28(s0)
204025b0:	fdc42783          	lw	a5,-36(s0)
204025b4:	faf74be3          	blt	a4,a5,2040256a <__metal_driver_riscv_clint0_disable+0x36>
204025b8:	a011                	j	204025bc <__metal_driver_riscv_clint0_disable+0x88>
/home/khj/Desktop/hello_standalone/freedom-metal/src/drivers/riscv_clint0.c:196
                break;
204025ba:	0001                	nop
/home/khj/Desktop/hello_standalone/freedom-metal/src/drivers/riscv_clint0.c:202
        }

        /* Disable its interrupts with parent controller */
        if (intc) {
204025bc:	fe842783          	lw	a5,-24(s0)
204025c0:	cf81                	beqz	a5,204025d8 <__metal_driver_riscv_clint0_disable+0xa4>
/home/khj/Desktop/hello_standalone/freedom-metal/src/drivers/riscv_clint0.c:203
            rc = intc->vtable->interrupt_disable(intc, id);
204025c2:	fe842783          	lw	a5,-24(s0)
204025c6:	439c                	lw	a5,0(a5)
204025c8:	579c                	lw	a5,40(a5)
204025ca:	fc842583          	lw	a1,-56(s0)
204025ce:	fe842503          	lw	a0,-24(s0)
204025d2:	9782                	jalr	a5
204025d4:	fea42623          	sw	a0,-20(s0)
/home/khj/Desktop/hello_standalone/freedom-metal/src/drivers/riscv_clint0.c:207
        }
    }

    return rc;
204025d8:	fec42783          	lw	a5,-20(s0)
/home/khj/Desktop/hello_standalone/freedom-metal/src/drivers/riscv_clint0.c:208
}
204025dc:	853e                	mv	a0,a5
204025de:	50f2                	lw	ra,60(sp)
204025e0:	5462                	lw	s0,56(sp)
204025e2:	6121                	addi	sp,sp,64
204025e4:	8082                	ret

204025e6 <__metal_driver_riscv_clint0_command_request>:
__metal_driver_riscv_clint0_command_request():
/home/khj/Desktop/hello_standalone/freedom-metal/src/drivers/riscv_clint0.c:211

int __metal_driver_riscv_clint0_command_request(
    struct metal_interrupt *controller, int command, void *data) {
204025e6:	7179                	addi	sp,sp,-48
204025e8:	d606                	sw	ra,44(sp)
204025ea:	d422                	sw	s0,40(sp)
204025ec:	1800                	addi	s0,sp,48
204025ee:	fca42e23          	sw	a0,-36(s0)
204025f2:	fcb42c23          	sw	a1,-40(s0)
204025f6:	fcc42a23          	sw	a2,-44(s0)
/home/khj/Desktop/hello_standalone/freedom-metal/src/drivers/riscv_clint0.c:213
    int hartid;
    int rc = -1;
204025fa:	57fd                	li	a5,-1
204025fc:	fef42623          	sw	a5,-20(s0)
/home/khj/Desktop/hello_standalone/freedom-metal/src/drivers/riscv_clint0.c:214
    struct __metal_driver_riscv_clint0 *clint =
20402600:	fdc42783          	lw	a5,-36(s0)
20402604:	fef42423          	sw	a5,-24(s0)
/home/khj/Desktop/hello_standalone/freedom-metal/src/drivers/riscv_clint0.c:217
        (struct __metal_driver_riscv_clint0 *)(controller);
    unsigned long control_base =
        __metal_driver_sifive_clint0_control_base(controller);
20402608:	fdc42503          	lw	a0,-36(s0)
2040260c:	3cb1                	jal	20402068 <__metal_driver_sifive_clint0_control_base>
2040260e:	fea42223          	sw	a0,-28(s0)
/home/khj/Desktop/hello_standalone/freedom-metal/src/drivers/riscv_clint0.c:219

    switch (command) {
20402612:	fd842703          	lw	a4,-40(s0)
20402616:	4789                	li	a5,2
20402618:	04f70863          	beq	a4,a5,20402668 <__metal_driver_riscv_clint0_command_request+0x82>
2040261c:	fd842703          	lw	a4,-40(s0)
20402620:	4789                	li	a5,2
20402622:	00e7c863          	blt	a5,a4,20402632 <__metal_driver_riscv_clint0_command_request+0x4c>
20402626:	fd842703          	lw	a4,-40(s0)
2040262a:	4785                	li	a5,1
2040262c:	00f70e63          	beq	a4,a5,20402648 <__metal_driver_riscv_clint0_command_request+0x62>
/home/khj/Desktop/hello_standalone/freedom-metal/src/drivers/riscv_clint0.c:263
            rc = __METAL_ACCESS_ONCE(
                (__metal_io_u32 *)(control_base + (hartid * 4)));
        }
        break;
    default:
        break;
20402630:	a8e9                	j	2040270a <__metal_driver_riscv_clint0_command_request+0x124>
/home/khj/Desktop/hello_standalone/freedom-metal/src/drivers/riscv_clint0.c:219
    switch (command) {
20402632:	fd842703          	lw	a4,-40(s0)
20402636:	478d                	li	a5,3
20402638:	04f70c63          	beq	a4,a5,20402690 <__metal_driver_riscv_clint0_command_request+0xaa>
2040263c:	fd842703          	lw	a4,-40(s0)
20402640:	4791                	li	a5,4
20402642:	08f70863          	beq	a4,a5,204026d2 <__metal_driver_riscv_clint0_command_request+0xec>
/home/khj/Desktop/hello_standalone/freedom-metal/src/drivers/riscv_clint0.c:263
        break;
20402646:	a0d1                	j	2040270a <__metal_driver_riscv_clint0_command_request+0x124>
/home/khj/Desktop/hello_standalone/freedom-metal/src/drivers/riscv_clint0.c:221
        if (data) {
20402648:	fd442783          	lw	a5,-44(s0)
2040264c:	cbc5                	beqz	a5,204026fc <__metal_driver_riscv_clint0_command_request+0x116>
/home/khj/Desktop/hello_standalone/freedom-metal/src/drivers/riscv_clint0.c:222
            *(unsigned long long *)data = __metal_clint0_mtime_get(clint);
2040264e:	fe842503          	lw	a0,-24(s0)
20402652:	34f1                	jal	2040211e <__metal_clint0_mtime_get>
20402654:	87aa                	mv	a5,a0
20402656:	882e                	mv	a6,a1
20402658:	fd442703          	lw	a4,-44(s0)
2040265c:	c31c                	sw	a5,0(a4)
2040265e:	01072223          	sw	a6,4(a4)
/home/khj/Desktop/hello_standalone/freedom-metal/src/drivers/riscv_clint0.c:223
            rc = 0;
20402662:	fe042623          	sw	zero,-20(s0)
/home/khj/Desktop/hello_standalone/freedom-metal/src/drivers/riscv_clint0.c:225
        break;
20402666:	a859                	j	204026fc <__metal_driver_riscv_clint0_command_request+0x116>
/home/khj/Desktop/hello_standalone/freedom-metal/src/drivers/riscv_clint0.c:227
        if (data) {
20402668:	fd442783          	lw	a5,-44(s0)
2040266c:	cbd1                	beqz	a5,20402700 <__metal_driver_riscv_clint0_command_request+0x11a>
/home/khj/Desktop/hello_standalone/freedom-metal/src/drivers/riscv_clint0.c:228
            hartid = *(int *)data;
2040266e:	fd442783          	lw	a5,-44(s0)
20402672:	439c                	lw	a5,0(a5)
20402674:	fef42023          	sw	a5,-32(s0)
/home/khj/Desktop/hello_standalone/freedom-metal/src/drivers/riscv_clint0.c:229
            __METAL_ACCESS_ONCE((
20402678:	fe042783          	lw	a5,-32(s0)
2040267c:	078a                	slli	a5,a5,0x2
2040267e:	873e                	mv	a4,a5
20402680:	fe442783          	lw	a5,-28(s0)
20402684:	97ba                	add	a5,a5,a4
/home/khj/Desktop/hello_standalone/freedom-metal/src/drivers/riscv_clint0.c:230
                __metal_io_u32 *)(control_base + (hartid * 4))) = METAL_DISABLE;
20402686:	0007a023          	sw	zero,0(a5) # 4000 <__heap_size+0x3800>
/home/khj/Desktop/hello_standalone/freedom-metal/src/drivers/riscv_clint0.c:231
            rc = 0;
2040268a:	fe042623          	sw	zero,-20(s0)
/home/khj/Desktop/hello_standalone/freedom-metal/src/drivers/riscv_clint0.c:233
        break;
2040268e:	a88d                	j	20402700 <__metal_driver_riscv_clint0_command_request+0x11a>
/home/khj/Desktop/hello_standalone/freedom-metal/src/drivers/riscv_clint0.c:235
        if (data) {
20402690:	fd442783          	lw	a5,-44(s0)
20402694:	cba5                	beqz	a5,20402704 <__metal_driver_riscv_clint0_command_request+0x11e>
/home/khj/Desktop/hello_standalone/freedom-metal/src/drivers/riscv_clint0.c:236
            hartid = *(int *)data;
20402696:	fd442783          	lw	a5,-44(s0)
2040269a:	439c                	lw	a5,0(a5)
2040269c:	fef42023          	sw	a5,-32(s0)
/home/khj/Desktop/hello_standalone/freedom-metal/src/drivers/riscv_clint0.c:237
            __METAL_ACCESS_ONCE(
204026a0:	fe042783          	lw	a5,-32(s0)
204026a4:	078a                	slli	a5,a5,0x2
204026a6:	873e                	mv	a4,a5
204026a8:	fe442783          	lw	a5,-28(s0)
204026ac:	97ba                	add	a5,a5,a4
204026ae:	873e                	mv	a4,a5
/home/khj/Desktop/hello_standalone/freedom-metal/src/drivers/riscv_clint0.c:238
                (__metal_io_u32 *)(control_base + (hartid * 4))) = METAL_ENABLE;
204026b0:	4785                	li	a5,1
204026b2:	c31c                	sw	a5,0(a4)
/home/khj/Desktop/hello_standalone/freedom-metal/src/drivers/riscv_clint0.c:248
            __METAL_IO_FENCE(o, i);
204026b4:	0480000f          	fence	o,i
/home/khj/Desktop/hello_standalone/freedom-metal/src/drivers/riscv_clint0.c:249
            rc = __METAL_ACCESS_ONCE(
204026b8:	fe042783          	lw	a5,-32(s0)
204026bc:	078a                	slli	a5,a5,0x2
204026be:	873e                	mv	a4,a5
204026c0:	fe442783          	lw	a5,-28(s0)
204026c4:	97ba                	add	a5,a5,a4
204026c6:	439c                	lw	a5,0(a5)
204026c8:	fef42623          	sw	a5,-20(s0)
/home/khj/Desktop/hello_standalone/freedom-metal/src/drivers/riscv_clint0.c:251
            rc = 0;
204026cc:	fe042623          	sw	zero,-20(s0)
/home/khj/Desktop/hello_standalone/freedom-metal/src/drivers/riscv_clint0.c:253
        break;
204026d0:	a815                	j	20402704 <__metal_driver_riscv_clint0_command_request+0x11e>
/home/khj/Desktop/hello_standalone/freedom-metal/src/drivers/riscv_clint0.c:255
        rc = 0;
204026d2:	fe042623          	sw	zero,-20(s0)
/home/khj/Desktop/hello_standalone/freedom-metal/src/drivers/riscv_clint0.c:256
        if (data) {
204026d6:	fd442783          	lw	a5,-44(s0)
204026da:	c79d                	beqz	a5,20402708 <__metal_driver_riscv_clint0_command_request+0x122>
/home/khj/Desktop/hello_standalone/freedom-metal/src/drivers/riscv_clint0.c:257
            hartid = *(int *)data;
204026dc:	fd442783          	lw	a5,-44(s0)
204026e0:	439c                	lw	a5,0(a5)
204026e2:	fef42023          	sw	a5,-32(s0)
/home/khj/Desktop/hello_standalone/freedom-metal/src/drivers/riscv_clint0.c:258
            rc = __METAL_ACCESS_ONCE(
204026e6:	fe042783          	lw	a5,-32(s0)
204026ea:	078a                	slli	a5,a5,0x2
204026ec:	873e                	mv	a4,a5
204026ee:	fe442783          	lw	a5,-28(s0)
204026f2:	97ba                	add	a5,a5,a4
204026f4:	439c                	lw	a5,0(a5)
204026f6:	fef42623          	sw	a5,-20(s0)
/home/khj/Desktop/hello_standalone/freedom-metal/src/drivers/riscv_clint0.c:261
        break;
204026fa:	a039                	j	20402708 <__metal_driver_riscv_clint0_command_request+0x122>
/home/khj/Desktop/hello_standalone/freedom-metal/src/drivers/riscv_clint0.c:225
        break;
204026fc:	0001                	nop
204026fe:	a031                	j	2040270a <__metal_driver_riscv_clint0_command_request+0x124>
/home/khj/Desktop/hello_standalone/freedom-metal/src/drivers/riscv_clint0.c:233
        break;
20402700:	0001                	nop
20402702:	a021                	j	2040270a <__metal_driver_riscv_clint0_command_request+0x124>
/home/khj/Desktop/hello_standalone/freedom-metal/src/drivers/riscv_clint0.c:253
        break;
20402704:	0001                	nop
20402706:	a011                	j	2040270a <__metal_driver_riscv_clint0_command_request+0x124>
/home/khj/Desktop/hello_standalone/freedom-metal/src/drivers/riscv_clint0.c:261
        break;
20402708:	0001                	nop
/home/khj/Desktop/hello_standalone/freedom-metal/src/drivers/riscv_clint0.c:266
    }

    return rc;
2040270a:	fec42783          	lw	a5,-20(s0)
/home/khj/Desktop/hello_standalone/freedom-metal/src/drivers/riscv_clint0.c:267
}
2040270e:	853e                	mv	a0,a5
20402710:	50b2                	lw	ra,44(sp)
20402712:	5422                	lw	s0,40(sp)
20402714:	6145                	addi	sp,sp,48
20402716:	8082                	ret

20402718 <__metal_driver_riscv_clint0_clear_interrupt>:
__metal_driver_riscv_clint0_clear_interrupt():
/home/khj/Desktop/hello_standalone/freedom-metal/src/drivers/riscv_clint0.c:270

int __metal_driver_riscv_clint0_clear_interrupt(
    struct metal_interrupt *controller, int id) {
20402718:	7179                	addi	sp,sp,-48
2040271a:	d606                	sw	ra,44(sp)
2040271c:	d422                	sw	s0,40(sp)
2040271e:	1800                	addi	s0,sp,48
20402720:	fca42e23          	sw	a0,-36(s0)
20402724:	fcb42c23          	sw	a1,-40(s0)
/home/khj/Desktop/hello_standalone/freedom-metal/src/drivers/riscv_clint0.c:271
    int hartid = metal_cpu_get_current_hartid();
20402728:	529030ef          	jal	ra,20406450 <metal_cpu_get_current_hartid>
2040272c:	87aa                	mv	a5,a0
2040272e:	fef42623          	sw	a5,-20(s0)
/home/khj/Desktop/hello_standalone/freedom-metal/src/drivers/riscv_clint0.c:272
    return __metal_driver_riscv_clint0_command_request(
20402732:	fec40793          	addi	a5,s0,-20
20402736:	863e                	mv	a2,a5
20402738:	4589                	li	a1,2
2040273a:	fdc42503          	lw	a0,-36(s0)
2040273e:	3565                	jal	204025e6 <__metal_driver_riscv_clint0_command_request>
20402740:	87aa                	mv	a5,a0
/home/khj/Desktop/hello_standalone/freedom-metal/src/drivers/riscv_clint0.c:274
        controller, METAL_SOFTWARE_IPI_CLEAR, &hartid);
}
20402742:	853e                	mv	a0,a5
20402744:	50b2                	lw	ra,44(sp)
20402746:	5422                	lw	s0,40(sp)
20402748:	6145                	addi	sp,sp,48
2040274a:	8082                	ret

2040274c <__metal_driver_riscv_clint0_set_interrupt>:
__metal_driver_riscv_clint0_set_interrupt():
/home/khj/Desktop/hello_standalone/freedom-metal/src/drivers/riscv_clint0.c:277

int __metal_driver_riscv_clint0_set_interrupt(
    struct metal_interrupt *controller, int id) {
2040274c:	7179                	addi	sp,sp,-48
2040274e:	d606                	sw	ra,44(sp)
20402750:	d422                	sw	s0,40(sp)
20402752:	1800                	addi	s0,sp,48
20402754:	fca42e23          	sw	a0,-36(s0)
20402758:	fcb42c23          	sw	a1,-40(s0)
/home/khj/Desktop/hello_standalone/freedom-metal/src/drivers/riscv_clint0.c:278
    int hartid = metal_cpu_get_current_hartid();
2040275c:	4f5030ef          	jal	ra,20406450 <metal_cpu_get_current_hartid>
20402760:	87aa                	mv	a5,a0
20402762:	fef42623          	sw	a5,-20(s0)
/home/khj/Desktop/hello_standalone/freedom-metal/src/drivers/riscv_clint0.c:279
    return __metal_driver_riscv_clint0_command_request(
20402766:	fec40793          	addi	a5,s0,-20
2040276a:	863e                	mv	a2,a5
2040276c:	458d                	li	a1,3
2040276e:	fdc42503          	lw	a0,-36(s0)
20402772:	3d95                	jal	204025e6 <__metal_driver_riscv_clint0_command_request>
20402774:	87aa                	mv	a5,a0
/home/khj/Desktop/hello_standalone/freedom-metal/src/drivers/riscv_clint0.c:281
        controller, METAL_SOFTWARE_IPI_SET, &hartid);
}
20402776:	853e                	mv	a0,a5
20402778:	50b2                	lw	ra,44(sp)
2040277a:	5422                	lw	s0,40(sp)
2040277c:	6145                	addi	sp,sp,48
2040277e:	8082                	ret

20402780 <__metal_driver_cpu_hartid>:
__metal_driver_cpu_hartid():
/home/khj/Desktop/hello_standalone/bsp/build/debug/./metal/machine.h:259



/* --------------------- cpu ------------ */
static __inline__ int __metal_driver_cpu_hartid(struct metal_cpu *cpu)
{
20402780:	1101                	addi	sp,sp,-32
20402782:	ce22                	sw	s0,28(sp)
20402784:	1000                	addi	s0,sp,32
20402786:	fea42623          	sw	a0,-20(s0)
/home/khj/Desktop/hello_standalone/bsp/build/debug/./metal/machine.h:260
	if ((uintptr_t)cpu == (uintptr_t)&__metal_dt_cpu_0) {
2040278a:	fec42703          	lw	a4,-20(s0)
2040278e:	81818793          	addi	a5,gp,-2024 # 800007b8 <__metal_dt_cpu_0>
20402792:	00f71463          	bne	a4,a5,2040279a <__metal_driver_cpu_hartid+0x1a>
/home/khj/Desktop/hello_standalone/bsp/build/debug/./metal/machine.h:261
		return 0;
20402796:	4781                	li	a5,0
20402798:	a011                	j	2040279c <__metal_driver_cpu_hartid+0x1c>
/home/khj/Desktop/hello_standalone/bsp/build/debug/./metal/machine.h:264
	}
	else {
		return -1;
2040279a:	57fd                	li	a5,-1
/home/khj/Desktop/hello_standalone/bsp/build/debug/./metal/machine.h:266
	}
}
2040279c:	853e                	mv	a0,a5
2040279e:	4472                	lw	s0,28(sp)
204027a0:	6105                	addi	sp,sp,32
204027a2:	8082                	ret

204027a4 <__metal_driver_cpu_timebase>:
__metal_driver_cpu_timebase():
/home/khj/Desktop/hello_standalone/bsp/build/debug/./metal/machine.h:269

static __inline__ int __metal_driver_cpu_timebase(struct metal_cpu *cpu)
{
204027a4:	1101                	addi	sp,sp,-32
204027a6:	ce22                	sw	s0,28(sp)
204027a8:	1000                	addi	s0,sp,32
204027aa:	fea42623          	sw	a0,-20(s0)
/home/khj/Desktop/hello_standalone/bsp/build/debug/./metal/machine.h:270
	if ((uintptr_t)cpu == (uintptr_t)&__metal_dt_cpu_0) {
204027ae:	fec42703          	lw	a4,-20(s0)
204027b2:	81818793          	addi	a5,gp,-2024 # 800007b8 <__metal_dt_cpu_0>
204027b6:	00f71763          	bne	a4,a5,204027c4 <__metal_driver_cpu_timebase+0x20>
/home/khj/Desktop/hello_standalone/bsp/build/debug/./metal/machine.h:271
		return 1000000;
204027ba:	000f47b7          	lui	a5,0xf4
204027be:	24078793          	addi	a5,a5,576 # f4240 <__heap_size+0xf3a40>
204027c2:	a011                	j	204027c6 <__metal_driver_cpu_timebase+0x22>
/home/khj/Desktop/hello_standalone/bsp/build/debug/./metal/machine.h:274
	}
	else {
		return 0;
204027c4:	4781                	li	a5,0
/home/khj/Desktop/hello_standalone/bsp/build/debug/./metal/machine.h:276
	}
}
204027c6:	853e                	mv	a0,a5
204027c8:	4472                	lw	s0,28(sp)
204027ca:	6105                	addi	sp,sp,32
204027cc:	8082                	ret

204027ce <__metal_driver_cpu_interrupt_controller>:
__metal_driver_cpu_interrupt_controller():
/home/khj/Desktop/hello_standalone/bsp/build/debug/./metal/machine.h:279

static __inline__ struct metal_interrupt * __metal_driver_cpu_interrupt_controller(struct metal_cpu *cpu)
{
204027ce:	1101                	addi	sp,sp,-32
204027d0:	ce22                	sw	s0,28(sp)
204027d2:	1000                	addi	s0,sp,32
204027d4:	fea42623          	sw	a0,-20(s0)
/home/khj/Desktop/hello_standalone/bsp/build/debug/./metal/machine.h:280
	if ((uintptr_t)cpu == (uintptr_t)&__metal_dt_cpu_0) {
204027d8:	fec42703          	lw	a4,-20(s0)
204027dc:	81818793          	addi	a5,gp,-2024 # 800007b8 <__metal_dt_cpu_0>
204027e0:	00f71763          	bne	a4,a5,204027ee <__metal_driver_cpu_interrupt_controller+0x20>
/home/khj/Desktop/hello_standalone/bsp/build/debug/./metal/machine.h:281
		return &__metal_dt_cpu_0_interrupt_controller.controller;
204027e4:	800007b7          	lui	a5,0x80000
204027e8:	08878793          	addi	a5,a5,136 # 80000088 <metal_dtim_0_memory_end+0xffff0088>
204027ec:	a011                	j	204027f0 <__metal_driver_cpu_interrupt_controller+0x22>
/home/khj/Desktop/hello_standalone/bsp/build/debug/./metal/machine.h:284
	}
	else {
		return NULL;
204027ee:	4781                	li	a5,0
/home/khj/Desktop/hello_standalone/bsp/build/debug/./metal/machine.h:286
	}
}
204027f0:	853e                	mv	a0,a5
204027f2:	4472                	lw	s0,28(sp)
204027f4:	6105                	addi	sp,sp,32
204027f6:	8082                	ret

204027f8 <__metal_driver_cpu_buserror>:
__metal_driver_cpu_buserror():
/home/khj/Desktop/hello_standalone/bsp/build/debug/./metal/machine.h:299
		return 0;
	}
}

static __inline__ struct metal_buserror * __metal_driver_cpu_buserror(struct metal_cpu *cpu)
{
204027f8:	1101                	addi	sp,sp,-32
204027fa:	ce22                	sw	s0,28(sp)
204027fc:	1000                	addi	s0,sp,32
204027fe:	fea42623          	sw	a0,-20(s0)
/home/khj/Desktop/hello_standalone/bsp/build/debug/./metal/machine.h:300
	if ((uintptr_t)cpu == (uintptr_t)&__metal_dt_cpu_0) {
20402802:	fec42703          	lw	a4,-20(s0)
20402806:	81818793          	addi	a5,gp,-2024 # 800007b8 <__metal_dt_cpu_0>
2040280a:	00f71463          	bne	a4,a5,20402812 <__metal_driver_cpu_buserror+0x1a>
/home/khj/Desktop/hello_standalone/bsp/build/debug/./metal/machine.h:301
		return NULL;
2040280e:	4781                	li	a5,0
20402810:	a011                	j	20402814 <__metal_driver_cpu_buserror+0x1c>
/home/khj/Desktop/hello_standalone/bsp/build/debug/./metal/machine.h:304
	}
	else {
		return NULL;
20402812:	4781                	li	a5,0
/home/khj/Desktop/hello_standalone/bsp/build/debug/./metal/machine.h:306
	}
}
20402814:	853e                	mv	a0,a5
20402816:	4472                	lw	s0,28(sp)
20402818:	6105                	addi	sp,sp,32
2040281a:	8082                	ret

2040281c <__metal_driver_cpu_get>:
__metal_driver_cpu_get():
/home/khj/Desktop/hello_standalone/freedom-metal/src/drivers/riscv_cpu.c:25
extern void __metal_vector_table();
unsigned long long __metal_driver_cpu_mtime_get(struct metal_cpu *cpu);
int __metal_driver_cpu_mtimecmp_set(struct metal_cpu *cpu,
                                    unsigned long long time);

struct metal_cpu *__metal_driver_cpu_get(int hartid) {
2040281c:	1101                	addi	sp,sp,-32
2040281e:	ce22                	sw	s0,28(sp)
20402820:	1000                	addi	s0,sp,32
20402822:	fea42623          	sw	a0,-20(s0)
/home/khj/Desktop/hello_standalone/freedom-metal/src/drivers/riscv_cpu.c:26
    if (hartid < __METAL_DT_MAX_HARTS) {
20402826:	fec42783          	lw	a5,-20(s0)
2040282a:	00f04a63          	bgtz	a5,2040283e <__metal_driver_cpu_get+0x22>
/home/khj/Desktop/hello_standalone/freedom-metal/src/drivers/riscv_cpu.c:27
        return &(__metal_cpu_table[hartid]->cpu);
2040282e:	fec42703          	lw	a4,-20(s0)
20402832:	070a                	slli	a4,a4,0x2
20402834:	80c18793          	addi	a5,gp,-2036 # 800007ac <__metal_cpu_table>
20402838:	97ba                	add	a5,a5,a4
2040283a:	439c                	lw	a5,0(a5)
2040283c:	a011                	j	20402840 <__metal_driver_cpu_get+0x24>
/home/khj/Desktop/hello_standalone/freedom-metal/src/drivers/riscv_cpu.c:29
    }
    return (struct metal_cpu *)NULL;
2040283e:	4781                	li	a5,0
/home/khj/Desktop/hello_standalone/freedom-metal/src/drivers/riscv_cpu.c:30
}
20402840:	853e                	mv	a0,a5
20402842:	4472                	lw	s0,28(sp)
20402844:	6105                	addi	sp,sp,32
20402846:	8082                	ret

20402848 <__metal_myhart_id>:
__metal_myhart_id():
/home/khj/Desktop/hello_standalone/freedom-metal/src/drivers/riscv_cpu.c:32

uintptr_t __metal_myhart_id(void) {
20402848:	1101                	addi	sp,sp,-32
2040284a:	ce22                	sw	s0,28(sp)
2040284c:	1000                	addi	s0,sp,32
/home/khj/Desktop/hello_standalone/freedom-metal/src/drivers/riscv_cpu.c:34
    uintptr_t myhart;
    __asm__ volatile("csrr %0, mhartid" : "=r"(myhart));
2040284e:	f14027f3          	csrr	a5,mhartid
20402852:	fef42623          	sw	a5,-20(s0)
/home/khj/Desktop/hello_standalone/freedom-metal/src/drivers/riscv_cpu.c:35
    return myhart;
20402856:	fec42783          	lw	a5,-20(s0)
/home/khj/Desktop/hello_standalone/freedom-metal/src/drivers/riscv_cpu.c:36
}
2040285a:	853e                	mv	a0,a5
2040285c:	4472                	lw	s0,28(sp)
2040285e:	6105                	addi	sp,sp,32
20402860:	8082                	ret

20402862 <__metal_interrupt_global_enable>:
__metal_interrupt_global_enable():
/home/khj/Desktop/hello_standalone/freedom-metal/src/drivers/riscv_cpu.c:45
    for (ptr = base; ptr < (base + size); ptr++) {
        *ptr = 0;
    }
}

void __metal_interrupt_global_enable(void) {
20402862:	1101                	addi	sp,sp,-32
20402864:	ce22                	sw	s0,28(sp)
20402866:	1000                	addi	s0,sp,32
/home/khj/Desktop/hello_standalone/freedom-metal/src/drivers/riscv_cpu.c:47
    uintptr_t m;
    __asm__ volatile("csrrs %0, mstatus, %1"
20402868:	47a1                	li	a5,8
2040286a:	3007a7f3          	csrrs	a5,mstatus,a5
2040286e:	fef42623          	sw	a5,-20(s0)
/home/khj/Desktop/hello_standalone/freedom-metal/src/drivers/riscv_cpu.c:50
                     : "=r"(m)
                     : "r"(METAL_MIE_INTERRUPT));
}
20402872:	0001                	nop
20402874:	4472                	lw	s0,28(sp)
20402876:	6105                	addi	sp,sp,32
20402878:	8082                	ret

2040287a <__metal_interrupt_global_disable>:
__metal_interrupt_global_disable():
/home/khj/Desktop/hello_standalone/freedom-metal/src/drivers/riscv_cpu.c:52

void __metal_interrupt_global_disable(void) {
2040287a:	1101                	addi	sp,sp,-32
2040287c:	ce22                	sw	s0,28(sp)
2040287e:	1000                	addi	s0,sp,32
/home/khj/Desktop/hello_standalone/freedom-metal/src/drivers/riscv_cpu.c:54
    uintptr_t m;
    __asm__ volatile("csrrc %0, mstatus, %1"
20402880:	47a1                	li	a5,8
20402882:	3007b7f3          	csrrc	a5,mstatus,a5
20402886:	fef42623          	sw	a5,-20(s0)
/home/khj/Desktop/hello_standalone/freedom-metal/src/drivers/riscv_cpu.c:57
                     : "=r"(m)
                     : "r"(METAL_MIE_INTERRUPT));
}
2040288a:	0001                	nop
2040288c:	4472                	lw	s0,28(sp)
2040288e:	6105                	addi	sp,sp,32
20402890:	8082                	ret

20402892 <__metal_interrupt_software_enable>:
__metal_interrupt_software_enable():
/home/khj/Desktop/hello_standalone/freedom-metal/src/drivers/riscv_cpu.c:59

void __metal_interrupt_software_enable(void) {
20402892:	1101                	addi	sp,sp,-32
20402894:	ce22                	sw	s0,28(sp)
20402896:	1000                	addi	s0,sp,32
/home/khj/Desktop/hello_standalone/freedom-metal/src/drivers/riscv_cpu.c:61
    uintptr_t m;
    __asm__ volatile("csrrs %0, mie, %1"
20402898:	47a1                	li	a5,8
2040289a:	3047a7f3          	csrrs	a5,mie,a5
2040289e:	fef42623          	sw	a5,-20(s0)
/home/khj/Desktop/hello_standalone/freedom-metal/src/drivers/riscv_cpu.c:64
                     : "=r"(m)
                     : "r"(METAL_LOCAL_INTERRUPT_SW));
}
204028a2:	0001                	nop
204028a4:	4472                	lw	s0,28(sp)
204028a6:	6105                	addi	sp,sp,32
204028a8:	8082                	ret

204028aa <__metal_interrupt_software_disable>:
__metal_interrupt_software_disable():
/home/khj/Desktop/hello_standalone/freedom-metal/src/drivers/riscv_cpu.c:66

void __metal_interrupt_software_disable(void) {
204028aa:	1101                	addi	sp,sp,-32
204028ac:	ce22                	sw	s0,28(sp)
204028ae:	1000                	addi	s0,sp,32
/home/khj/Desktop/hello_standalone/freedom-metal/src/drivers/riscv_cpu.c:68
    uintptr_t m;
    __asm__ volatile("csrrc %0, mie, %1"
204028b0:	47a1                	li	a5,8
204028b2:	3047b7f3          	csrrc	a5,mie,a5
204028b6:	fef42623          	sw	a5,-20(s0)
/home/khj/Desktop/hello_standalone/freedom-metal/src/drivers/riscv_cpu.c:71
                     : "=r"(m)
                     : "r"(METAL_LOCAL_INTERRUPT_SW));
}
204028ba:	0001                	nop
204028bc:	4472                	lw	s0,28(sp)
204028be:	6105                	addi	sp,sp,32
204028c0:	8082                	ret

204028c2 <__metal_interrupt_timer_enable>:
__metal_interrupt_timer_enable():
/home/khj/Desktop/hello_standalone/freedom-metal/src/drivers/riscv_cpu.c:73

void __metal_interrupt_timer_enable(void) {
204028c2:	1101                	addi	sp,sp,-32
204028c4:	ce22                	sw	s0,28(sp)
204028c6:	1000                	addi	s0,sp,32
/home/khj/Desktop/hello_standalone/freedom-metal/src/drivers/riscv_cpu.c:75
    uintptr_t m;
    __asm__ volatile("csrrs %0, mie, %1"
204028c8:	08000793          	li	a5,128
204028cc:	3047a7f3          	csrrs	a5,mie,a5
204028d0:	fef42623          	sw	a5,-20(s0)
/home/khj/Desktop/hello_standalone/freedom-metal/src/drivers/riscv_cpu.c:78
                     : "=r"(m)
                     : "r"(METAL_LOCAL_INTERRUPT_TMR));
}
204028d4:	0001                	nop
204028d6:	4472                	lw	s0,28(sp)
204028d8:	6105                	addi	sp,sp,32
204028da:	8082                	ret

204028dc <__metal_interrupt_timer_disable>:
__metal_interrupt_timer_disable():
/home/khj/Desktop/hello_standalone/freedom-metal/src/drivers/riscv_cpu.c:80

void __metal_interrupt_timer_disable(void) {
204028dc:	1101                	addi	sp,sp,-32
204028de:	ce22                	sw	s0,28(sp)
204028e0:	1000                	addi	s0,sp,32
/home/khj/Desktop/hello_standalone/freedom-metal/src/drivers/riscv_cpu.c:82
    uintptr_t m;
    __asm__ volatile("csrrc %0, mie, %1"
204028e2:	08000793          	li	a5,128
204028e6:	3047b7f3          	csrrc	a5,mie,a5
204028ea:	fef42623          	sw	a5,-20(s0)
/home/khj/Desktop/hello_standalone/freedom-metal/src/drivers/riscv_cpu.c:85
                     : "=r"(m)
                     : "r"(METAL_LOCAL_INTERRUPT_TMR));
}
204028ee:	0001                	nop
204028f0:	4472                	lw	s0,28(sp)
204028f2:	6105                	addi	sp,sp,32
204028f4:	8082                	ret

204028f6 <__metal_interrupt_external_enable>:
__metal_interrupt_external_enable():
/home/khj/Desktop/hello_standalone/freedom-metal/src/drivers/riscv_cpu.c:87

void __metal_interrupt_external_enable(void) {
204028f6:	1101                	addi	sp,sp,-32
204028f8:	ce22                	sw	s0,28(sp)
204028fa:	1000                	addi	s0,sp,32
/home/khj/Desktop/hello_standalone/freedom-metal/src/drivers/riscv_cpu.c:89
    uintptr_t m;
    __asm__ volatile("csrrs %0, mie, %1"
204028fc:	6785                	lui	a5,0x1
204028fe:	80078793          	addi	a5,a5,-2048 # 800 <__heap_size>
20402902:	3047a7f3          	csrrs	a5,mie,a5
20402906:	fef42623          	sw	a5,-20(s0)
/home/khj/Desktop/hello_standalone/freedom-metal/src/drivers/riscv_cpu.c:92
                     : "=r"(m)
                     : "r"(METAL_LOCAL_INTERRUPT_EXT));
}
2040290a:	0001                	nop
2040290c:	4472                	lw	s0,28(sp)
2040290e:	6105                	addi	sp,sp,32
20402910:	8082                	ret

20402912 <__metal_interrupt_external_disable>:
__metal_interrupt_external_disable():
/home/khj/Desktop/hello_standalone/freedom-metal/src/drivers/riscv_cpu.c:94

void __metal_interrupt_external_disable(void) {
20402912:	1101                	addi	sp,sp,-32
20402914:	ce22                	sw	s0,28(sp)
20402916:	1000                	addi	s0,sp,32
/home/khj/Desktop/hello_standalone/freedom-metal/src/drivers/riscv_cpu.c:96
    unsigned long m;
    __asm__ volatile("csrrc %0, mie, %1"
20402918:	6785                	lui	a5,0x1
2040291a:	80078793          	addi	a5,a5,-2048 # 800 <__heap_size>
2040291e:	3047b7f3          	csrrc	a5,mie,a5
20402922:	fef42623          	sw	a5,-20(s0)
/home/khj/Desktop/hello_standalone/freedom-metal/src/drivers/riscv_cpu.c:99
                     : "=r"(m)
                     : "r"(METAL_LOCAL_INTERRUPT_EXT));
}
20402926:	0001                	nop
20402928:	4472                	lw	s0,28(sp)
2040292a:	6105                	addi	sp,sp,32
2040292c:	8082                	ret

2040292e <__metal_interrupt_local_enable>:
__metal_interrupt_local_enable():
/home/khj/Desktop/hello_standalone/freedom-metal/src/drivers/riscv_cpu.c:101

void __metal_interrupt_local_enable(int id) {
2040292e:	7179                	addi	sp,sp,-48
20402930:	d622                	sw	s0,44(sp)
20402932:	1800                	addi	s0,sp,48
20402934:	fca42e23          	sw	a0,-36(s0)
/home/khj/Desktop/hello_standalone/freedom-metal/src/drivers/riscv_cpu.c:102
    uintptr_t b = 1 << id;
20402938:	fdc42783          	lw	a5,-36(s0)
2040293c:	4705                	li	a4,1
2040293e:	00f717b3          	sll	a5,a4,a5
20402942:	fef42623          	sw	a5,-20(s0)
/home/khj/Desktop/hello_standalone/freedom-metal/src/drivers/riscv_cpu.c:104
    uintptr_t m;
    __asm__ volatile("csrrs %0, mie, %1" : "=r"(m) : "r"(b));
20402946:	fec42783          	lw	a5,-20(s0)
2040294a:	3047a7f3          	csrrs	a5,mie,a5
2040294e:	fef42423          	sw	a5,-24(s0)
/home/khj/Desktop/hello_standalone/freedom-metal/src/drivers/riscv_cpu.c:105
}
20402952:	0001                	nop
20402954:	5432                	lw	s0,44(sp)
20402956:	6145                	addi	sp,sp,48
20402958:	8082                	ret

2040295a <__metal_interrupt_local_disable>:
__metal_interrupt_local_disable():
/home/khj/Desktop/hello_standalone/freedom-metal/src/drivers/riscv_cpu.c:107

void __metal_interrupt_local_disable(int id) {
2040295a:	7179                	addi	sp,sp,-48
2040295c:	d622                	sw	s0,44(sp)
2040295e:	1800                	addi	s0,sp,48
20402960:	fca42e23          	sw	a0,-36(s0)
/home/khj/Desktop/hello_standalone/freedom-metal/src/drivers/riscv_cpu.c:108
    uintptr_t b = 1 << id;
20402964:	fdc42783          	lw	a5,-36(s0)
20402968:	4705                	li	a4,1
2040296a:	00f717b3          	sll	a5,a4,a5
2040296e:	fef42623          	sw	a5,-20(s0)
/home/khj/Desktop/hello_standalone/freedom-metal/src/drivers/riscv_cpu.c:110
    uintptr_t m;
    __asm__ volatile("csrrc %0, mie, %1" : "=r"(m) : "r"(b));
20402972:	fec42783          	lw	a5,-20(s0)
20402976:	3047b7f3          	csrrc	a5,mie,a5
2040297a:	fef42423          	sw	a5,-24(s0)
/home/khj/Desktop/hello_standalone/freedom-metal/src/drivers/riscv_cpu.c:111
}
2040297e:	0001                	nop
20402980:	5432                	lw	s0,44(sp)
20402982:	6145                	addi	sp,sp,48
20402984:	8082                	ret

20402986 <__metal_default_exception_handler>:
__metal_default_exception_handler():
/home/khj/Desktop/hello_standalone/freedom-metal/src/drivers/riscv_cpu.c:113

void __metal_default_exception_handler(struct metal_cpu *cpu, int ecode) {
20402986:	1101                	addi	sp,sp,-32
20402988:	ce06                	sw	ra,28(sp)
2040298a:	cc22                	sw	s0,24(sp)
2040298c:	1000                	addi	s0,sp,32
2040298e:	fea42623          	sw	a0,-20(s0)
20402992:	feb42423          	sw	a1,-24(s0)
/home/khj/Desktop/hello_standalone/freedom-metal/src/drivers/riscv_cpu.c:114
    metal_shutdown(100);
20402996:	06400513          	li	a0,100
2040299a:	2f3030ef          	jal	ra,2040648c <metal_shutdown>

2040299e <__metal_default_interrupt_handler>:
__metal_default_interrupt_handler():
/home/khj/Desktop/hello_standalone/freedom-metal/src/drivers/riscv_cpu.c:117
}

void __metal_default_interrupt_handler(int id, void *priv) {
2040299e:	1101                	addi	sp,sp,-32
204029a0:	ce06                	sw	ra,28(sp)
204029a2:	cc22                	sw	s0,24(sp)
204029a4:	1000                	addi	s0,sp,32
204029a6:	fea42623          	sw	a0,-20(s0)
204029aa:	feb42423          	sw	a1,-24(s0)
/home/khj/Desktop/hello_standalone/freedom-metal/src/drivers/riscv_cpu.c:118
    metal_shutdown(200);
204029ae:	0c800513          	li	a0,200
204029b2:	2db030ef          	jal	ra,2040648c <metal_shutdown>

204029b6 <metal_interrupt_vector_handler>:
metal_interrupt_vector_handler():
/home/khj/Desktop/hello_standalone/freedom-metal/src/drivers/riscv_cpu.c:122
}

/* The metal_interrupt_vector_handler() function can be redefined. */
void __attribute__((weak, interrupt)) metal_interrupt_vector_handler(void) {
204029b6:	715d                	addi	sp,sp,-80
204029b8:	c686                	sw	ra,76(sp)
204029ba:	c496                	sw	t0,72(sp)
204029bc:	c29a                	sw	t1,68(sp)
204029be:	c09e                	sw	t2,64(sp)
204029c0:	de22                	sw	s0,60(sp)
204029c2:	dc2a                	sw	a0,56(sp)
204029c4:	da2e                	sw	a1,52(sp)
204029c6:	d832                	sw	a2,48(sp)
204029c8:	d636                	sw	a3,44(sp)
204029ca:	d43a                	sw	a4,40(sp)
204029cc:	d23e                	sw	a5,36(sp)
204029ce:	d042                	sw	a6,32(sp)
204029d0:	ce46                	sw	a7,28(sp)
204029d2:	cc72                	sw	t3,24(sp)
204029d4:	ca76                	sw	t4,20(sp)
204029d6:	c87a                	sw	t5,16(sp)
204029d8:	c67e                	sw	t6,12(sp)
204029da:	0880                	addi	s0,sp,80
/home/khj/Desktop/hello_standalone/freedom-metal/src/drivers/riscv_cpu.c:123
    metal_shutdown(300);
204029dc:	12c00513          	li	a0,300
204029e0:	2ad030ef          	jal	ra,2040648c <metal_shutdown>

204029e4 <metal_software_interrupt_vector_handler>:
metal_software_interrupt_vector_handler():
/home/khj/Desktop/hello_standalone/freedom-metal/src/drivers/riscv_cpu.c:128
}

/* The metal_software_interrupt_vector_handler() function can be redefined. */
void __attribute__((weak, interrupt))
metal_software_interrupt_vector_handler(void) {
204029e4:	711d                	addi	sp,sp,-96
204029e6:	ce86                	sw	ra,92(sp)
204029e8:	cc96                	sw	t0,88(sp)
204029ea:	ca9a                	sw	t1,84(sp)
204029ec:	c89e                	sw	t2,80(sp)
204029ee:	c6a2                	sw	s0,76(sp)
204029f0:	c4aa                	sw	a0,72(sp)
204029f2:	c2ae                	sw	a1,68(sp)
204029f4:	c0b2                	sw	a2,64(sp)
204029f6:	de36                	sw	a3,60(sp)
204029f8:	dc3a                	sw	a4,56(sp)
204029fa:	da3e                	sw	a5,52(sp)
204029fc:	d842                	sw	a6,48(sp)
204029fe:	d646                	sw	a7,44(sp)
20402a00:	d472                	sw	t3,40(sp)
20402a02:	d276                	sw	t4,36(sp)
20402a04:	d07a                	sw	t5,32(sp)
20402a06:	ce7e                	sw	t6,28(sp)
20402a08:	1080                	addi	s0,sp,96
/home/khj/Desktop/hello_standalone/freedom-metal/src/drivers/riscv_cpu.c:129
    __METAL_IRQ_VECTOR_HANDLER(METAL_INTERRUPT_ID_SW);
20402a0a:	3d3d                	jal	20402848 <__metal_myhart_id>
20402a0c:	872a                	mv	a4,a0
20402a0e:	070a                	slli	a4,a4,0x2
20402a10:	80c18793          	addi	a5,gp,-2036 # 800007ac <__metal_cpu_table>
20402a14:	97ba                	add	a5,a5,a4
20402a16:	439c                	lw	a5,0(a5)
20402a18:	faf42623          	sw	a5,-84(s0)
20402a1c:	fac42783          	lw	a5,-84(s0)
20402a20:	c785                	beqz	a5,20402a48 <metal_software_interrupt_vector_handler+0x64>
/home/khj/Desktop/hello_standalone/freedom-metal/src/drivers/riscv_cpu.c:129 (discriminator 1)
20402a22:	fac42503          	lw	a0,-84(s0)
20402a26:	3365                	jal	204027ce <__metal_driver_cpu_interrupt_controller>
20402a28:	faa42423          	sw	a0,-88(s0)
20402a2c:	fa842783          	lw	a5,-88(s0)
20402a30:	0e07a783          	lw	a5,224(a5)
20402a34:	faf42223          	sw	a5,-92(s0)
20402a38:	fa842783          	lw	a5,-88(s0)
20402a3c:	0d87a783          	lw	a5,216(a5)
20402a40:	fa442583          	lw	a1,-92(s0)
20402a44:	450d                	li	a0,3
20402a46:	9782                	jalr	a5
/home/khj/Desktop/hello_standalone/freedom-metal/src/drivers/riscv_cpu.c:130
}
20402a48:	0001                	nop
20402a4a:	40f6                	lw	ra,92(sp)
20402a4c:	42e6                	lw	t0,88(sp)
20402a4e:	4356                	lw	t1,84(sp)
20402a50:	43c6                	lw	t2,80(sp)
20402a52:	4436                	lw	s0,76(sp)
20402a54:	4526                	lw	a0,72(sp)
20402a56:	4596                	lw	a1,68(sp)
20402a58:	4606                	lw	a2,64(sp)
20402a5a:	56f2                	lw	a3,60(sp)
20402a5c:	5762                	lw	a4,56(sp)
20402a5e:	57d2                	lw	a5,52(sp)
20402a60:	5842                	lw	a6,48(sp)
20402a62:	58b2                	lw	a7,44(sp)
20402a64:	5e22                	lw	t3,40(sp)
20402a66:	5e92                	lw	t4,36(sp)
20402a68:	5f02                	lw	t5,32(sp)
20402a6a:	4ff2                	lw	t6,28(sp)
20402a6c:	6125                	addi	sp,sp,96
20402a6e:	30200073          	mret

20402a72 <__metal_default_sw_handler>:
__metal_default_sw_handler():
/home/khj/Desktop/hello_standalone/freedom-metal/src/drivers/riscv_cpu.c:132

void __metal_default_sw_handler(int id, void *priv) {
20402a72:	7179                	addi	sp,sp,-48
20402a74:	d606                	sw	ra,44(sp)
20402a76:	d422                	sw	s0,40(sp)
20402a78:	1800                	addi	s0,sp,48
20402a7a:	fca42e23          	sw	a0,-36(s0)
20402a7e:	fcb42c23          	sw	a1,-40(s0)
/home/khj/Desktop/hello_standalone/freedom-metal/src/drivers/riscv_cpu.c:135
    uintptr_t mcause;
    struct __metal_driver_riscv_cpu_intc *intc;
    struct __metal_driver_cpu *cpu = __metal_cpu_table[__metal_myhart_id()];
20402a82:	33d9                	jal	20402848 <__metal_myhart_id>
20402a84:	872a                	mv	a4,a0
20402a86:	070a                	slli	a4,a4,0x2
20402a88:	80c18793          	addi	a5,gp,-2036 # 800007ac <__metal_cpu_table>
20402a8c:	97ba                	add	a5,a5,a4
20402a8e:	439c                	lw	a5,0(a5)
20402a90:	fef42623          	sw	a5,-20(s0)
/home/khj/Desktop/hello_standalone/freedom-metal/src/drivers/riscv_cpu.c:137

    __asm__ volatile("csrr %0, mcause" : "=r"(mcause));
20402a94:	342027f3          	csrr	a5,mcause
20402a98:	fef42423          	sw	a5,-24(s0)
/home/khj/Desktop/hello_standalone/freedom-metal/src/drivers/riscv_cpu.c:138
    if (cpu) {
20402a9c:	fec42783          	lw	a5,-20(s0)
20402aa0:	c795                	beqz	a5,20402acc <__metal_default_sw_handler+0x5a>
/home/khj/Desktop/hello_standalone/freedom-metal/src/drivers/riscv_cpu.c:140
        intc = (struct __metal_driver_riscv_cpu_intc *)
            __metal_driver_cpu_interrupt_controller((struct metal_cpu *)cpu);
20402aa2:	fec42503          	lw	a0,-20(s0)
20402aa6:	3325                	jal	204027ce <__metal_driver_cpu_interrupt_controller>
20402aa8:	fea42223          	sw	a0,-28(s0)
/home/khj/Desktop/hello_standalone/freedom-metal/src/drivers/riscv_cpu.c:141
        intc->metal_exception_table[mcause & METAL_MCAUSE_CAUSE](
20402aac:	fe842783          	lw	a5,-24(s0)
20402ab0:	3ff7f793          	andi	a5,a5,1023
20402ab4:	fe442703          	lw	a4,-28(s0)
20402ab8:	0e878793          	addi	a5,a5,232
20402abc:	078a                	slli	a5,a5,0x2
20402abe:	97ba                	add	a5,a5,a4
20402ac0:	439c                	lw	a5,0(a5)
20402ac2:	fdc42583          	lw	a1,-36(s0)
20402ac6:	fec42503          	lw	a0,-20(s0)
20402aca:	9782                	jalr	a5
/home/khj/Desktop/hello_standalone/freedom-metal/src/drivers/riscv_cpu.c:144
            (struct metal_cpu *)cpu, id);
    }
}
20402acc:	0001                	nop
20402ace:	50b2                	lw	ra,44(sp)
20402ad0:	5422                	lw	s0,40(sp)
20402ad2:	6145                	addi	sp,sp,48
20402ad4:	8082                	ret

20402ad6 <metal_timer_interrupt_vector_handler>:
metal_timer_interrupt_vector_handler():
/home/khj/Desktop/hello_standalone/freedom-metal/src/drivers/riscv_cpu.c:148

/* The metal_timer_interrupt_vector_handler() function can be redefined. */
void __attribute__((weak, interrupt))
metal_timer_interrupt_vector_handler(void) {
20402ad6:	711d                	addi	sp,sp,-96
20402ad8:	ce86                	sw	ra,92(sp)
20402ada:	cc96                	sw	t0,88(sp)
20402adc:	ca9a                	sw	t1,84(sp)
20402ade:	c89e                	sw	t2,80(sp)
20402ae0:	c6a2                	sw	s0,76(sp)
20402ae2:	c4aa                	sw	a0,72(sp)
20402ae4:	c2ae                	sw	a1,68(sp)
20402ae6:	c0b2                	sw	a2,64(sp)
20402ae8:	de36                	sw	a3,60(sp)
20402aea:	dc3a                	sw	a4,56(sp)
20402aec:	da3e                	sw	a5,52(sp)
20402aee:	d842                	sw	a6,48(sp)
20402af0:	d646                	sw	a7,44(sp)
20402af2:	d472                	sw	t3,40(sp)
20402af4:	d276                	sw	t4,36(sp)
20402af6:	d07a                	sw	t5,32(sp)
20402af8:	ce7e                	sw	t6,28(sp)
20402afa:	1080                	addi	s0,sp,96
/home/khj/Desktop/hello_standalone/freedom-metal/src/drivers/riscv_cpu.c:149
    __METAL_IRQ_VECTOR_HANDLER(METAL_INTERRUPT_ID_TMR);
20402afc:	33b1                	jal	20402848 <__metal_myhart_id>
20402afe:	872a                	mv	a4,a0
20402b00:	070a                	slli	a4,a4,0x2
20402b02:	80c18793          	addi	a5,gp,-2036 # 800007ac <__metal_cpu_table>
20402b06:	97ba                	add	a5,a5,a4
20402b08:	439c                	lw	a5,0(a5)
20402b0a:	faf42623          	sw	a5,-84(s0)
20402b0e:	fac42783          	lw	a5,-84(s0)
20402b12:	c785                	beqz	a5,20402b3a <metal_timer_interrupt_vector_handler+0x64>
/home/khj/Desktop/hello_standalone/freedom-metal/src/drivers/riscv_cpu.c:149 (discriminator 1)
20402b14:	fac42503          	lw	a0,-84(s0)
20402b18:	395d                	jal	204027ce <__metal_driver_cpu_interrupt_controller>
20402b1a:	faa42423          	sw	a0,-88(s0)
20402b1e:	fa842783          	lw	a5,-88(s0)
20402b22:	1407a783          	lw	a5,320(a5)
20402b26:	faf42223          	sw	a5,-92(s0)
20402b2a:	fa842783          	lw	a5,-88(s0)
20402b2e:	1387a783          	lw	a5,312(a5)
20402b32:	fa442583          	lw	a1,-92(s0)
20402b36:	451d                	li	a0,7
20402b38:	9782                	jalr	a5
/home/khj/Desktop/hello_standalone/freedom-metal/src/drivers/riscv_cpu.c:150
}
20402b3a:	0001                	nop
20402b3c:	40f6                	lw	ra,92(sp)
20402b3e:	42e6                	lw	t0,88(sp)
20402b40:	4356                	lw	t1,84(sp)
20402b42:	43c6                	lw	t2,80(sp)
20402b44:	4436                	lw	s0,76(sp)
20402b46:	4526                	lw	a0,72(sp)
20402b48:	4596                	lw	a1,68(sp)
20402b4a:	4606                	lw	a2,64(sp)
20402b4c:	56f2                	lw	a3,60(sp)
20402b4e:	5762                	lw	a4,56(sp)
20402b50:	57d2                	lw	a5,52(sp)
20402b52:	5842                	lw	a6,48(sp)
20402b54:	58b2                	lw	a7,44(sp)
20402b56:	5e22                	lw	t3,40(sp)
20402b58:	5e92                	lw	t4,36(sp)
20402b5a:	5f02                	lw	t5,32(sp)
20402b5c:	4ff2                	lw	t6,28(sp)
20402b5e:	6125                	addi	sp,sp,96
20402b60:	30200073          	mret

20402b64 <__metal_default_beu_handler>:
__metal_default_beu_handler():
/home/khj/Desktop/hello_standalone/freedom-metal/src/drivers/riscv_cpu.c:152

void __metal_default_beu_handler(int id, void *priv) {}
20402b64:	1101                	addi	sp,sp,-32
20402b66:	ce22                	sw	s0,28(sp)
20402b68:	1000                	addi	s0,sp,32
20402b6a:	fea42623          	sw	a0,-20(s0)
20402b6e:	feb42423          	sw	a1,-24(s0)
20402b72:	0001                	nop
20402b74:	4472                	lw	s0,28(sp)
20402b76:	6105                	addi	sp,sp,32
20402b78:	8082                	ret

20402b7a <__metal_default_timer_handler>:
__metal_default_timer_handler():
/home/khj/Desktop/hello_standalone/freedom-metal/src/drivers/riscv_cpu.c:154

void __metal_default_timer_handler(int id, void *priv) {
20402b7a:	7179                	addi	sp,sp,-48
20402b7c:	d606                	sw	ra,44(sp)
20402b7e:	d422                	sw	s0,40(sp)
20402b80:	1800                	addi	s0,sp,48
20402b82:	fca42e23          	sw	a0,-36(s0)
20402b86:	fcb42c23          	sw	a1,-40(s0)
/home/khj/Desktop/hello_standalone/freedom-metal/src/drivers/riscv_cpu.c:155
    struct metal_cpu *cpu = __metal_driver_cpu_get(__metal_myhart_id());
20402b8a:	397d                	jal	20402848 <__metal_myhart_id>
20402b8c:	87aa                	mv	a5,a0
20402b8e:	853e                	mv	a0,a5
20402b90:	3171                	jal	2040281c <__metal_driver_cpu_get>
20402b92:	fea42623          	sw	a0,-20(s0)
/home/khj/Desktop/hello_standalone/freedom-metal/src/drivers/riscv_cpu.c:156
    unsigned long long time = __metal_driver_cpu_mtime_get(cpu);
20402b96:	fec42503          	lw	a0,-20(s0)
20402b9a:	21e010ef          	jal	ra,20403db8 <__metal_driver_cpu_mtime_get>
20402b9e:	fea42023          	sw	a0,-32(s0)
20402ba2:	feb42223          	sw	a1,-28(s0)
/home/khj/Desktop/hello_standalone/freedom-metal/src/drivers/riscv_cpu.c:159

    /* Set a 10 cycle timer */
    __metal_driver_cpu_mtimecmp_set(cpu, time + 10);
20402ba6:	fe042783          	lw	a5,-32(s0)
20402baa:	fe442803          	lw	a6,-28(s0)
20402bae:	45a9                	li	a1,10
20402bb0:	4601                	li	a2,0
20402bb2:	00b786b3          	add	a3,a5,a1
20402bb6:	8536                	mv	a0,a3
20402bb8:	00f53533          	sltu	a0,a0,a5
20402bbc:	00c80733          	add	a4,a6,a2
20402bc0:	00e507b3          	add	a5,a0,a4
20402bc4:	873e                	mv	a4,a5
20402bc6:	87b6                	mv	a5,a3
20402bc8:	883a                	mv	a6,a4
20402bca:	85be                	mv	a1,a5
20402bcc:	8642                	mv	a2,a6
20402bce:	fec42503          	lw	a0,-20(s0)
20402bd2:	24c010ef          	jal	ra,20403e1e <__metal_driver_cpu_mtimecmp_set>
/home/khj/Desktop/hello_standalone/freedom-metal/src/drivers/riscv_cpu.c:160
}
20402bd6:	0001                	nop
20402bd8:	50b2                	lw	ra,44(sp)
20402bda:	5422                	lw	s0,40(sp)
20402bdc:	6145                	addi	sp,sp,48
20402bde:	8082                	ret
	...

20402c00 <__metal_exception_handler>:
__metal_exception_handler():
/home/khj/Desktop/hello_standalone/freedom-metal/src/drivers/riscv_cpu.c:169
metal_external_interrupt_vector_handler(void) {
    __METAL_IRQ_VECTOR_HANDLER(METAL_INTERRUPT_ID_EXT);
}

void __metal_exception_handler(void) __attribute__((interrupt, aligned(128)));
void __metal_exception_handler(void) {
20402c00:	7119                	addi	sp,sp,-128
20402c02:	de86                	sw	ra,124(sp)
20402c04:	dc96                	sw	t0,120(sp)
20402c06:	da9a                	sw	t1,116(sp)
20402c08:	d89e                	sw	t2,112(sp)
20402c0a:	d6a2                	sw	s0,108(sp)
20402c0c:	d4aa                	sw	a0,104(sp)
20402c0e:	d2ae                	sw	a1,100(sp)
20402c10:	d0b2                	sw	a2,96(sp)
20402c12:	ceb6                	sw	a3,92(sp)
20402c14:	ccba                	sw	a4,88(sp)
20402c16:	cabe                	sw	a5,84(sp)
20402c18:	c8c2                	sw	a6,80(sp)
20402c1a:	c6c6                	sw	a7,76(sp)
20402c1c:	c4f2                	sw	t3,72(sp)
20402c1e:	c2f6                	sw	t4,68(sp)
20402c20:	c0fa                	sw	t5,64(sp)
20402c22:	de7e                	sw	t6,60(sp)
20402c24:	0100                	addi	s0,sp,128
/home/khj/Desktop/hello_standalone/freedom-metal/src/drivers/riscv_cpu.c:174
    int id;
    void *priv;
    uintptr_t mcause, mepc, mtval, mtvec;
    struct __metal_driver_riscv_cpu_intc *intc;
    struct __metal_driver_cpu *cpu = __metal_cpu_table[__metal_myhart_id()];
20402c26:	310d                	jal	20402848 <__metal_myhart_id>
20402c28:	872a                	mv	a4,a0
20402c2a:	070a                	slli	a4,a4,0x2
20402c2c:	80c18793          	addi	a5,gp,-2036 # 800007ac <__metal_cpu_table>
20402c30:	97ba                	add	a5,a5,a4
20402c32:	439c                	lw	a5,0(a5)
20402c34:	faf42623          	sw	a5,-84(s0)
/home/khj/Desktop/hello_standalone/freedom-metal/src/drivers/riscv_cpu.c:176

    __asm__ volatile("csrr %0, mcause" : "=r"(mcause));
20402c38:	342027f3          	csrr	a5,mcause
20402c3c:	faf42423          	sw	a5,-88(s0)
/home/khj/Desktop/hello_standalone/freedom-metal/src/drivers/riscv_cpu.c:177
    __asm__ volatile("csrr %0, mepc" : "=r"(mepc));
20402c40:	341027f3          	csrr	a5,mepc
20402c44:	faf42223          	sw	a5,-92(s0)
/home/khj/Desktop/hello_standalone/freedom-metal/src/drivers/riscv_cpu.c:178
    __asm__ volatile("csrr %0, mtval" : "=r"(mtval));
20402c48:	343027f3          	csrr	a5,mtval
20402c4c:	faf42023          	sw	a5,-96(s0)
/home/khj/Desktop/hello_standalone/freedom-metal/src/drivers/riscv_cpu.c:179
    __asm__ volatile("csrr %0, mtvec" : "=r"(mtvec));
20402c50:	305027f3          	csrr	a5,mtvec
20402c54:	f8f42e23          	sw	a5,-100(s0)
/home/khj/Desktop/hello_standalone/freedom-metal/src/drivers/riscv_cpu.c:181

    if (cpu) {
20402c58:	fac42783          	lw	a5,-84(s0)
20402c5c:	cbf5                	beqz	a5,20402d50 <__metal_exception_handler+0x150>
/home/khj/Desktop/hello_standalone/freedom-metal/src/drivers/riscv_cpu.c:183
        intc = (struct __metal_driver_riscv_cpu_intc *)
            __metal_driver_cpu_interrupt_controller((struct metal_cpu *)cpu);
20402c5e:	fac42503          	lw	a0,-84(s0)
20402c62:	36b5                	jal	204027ce <__metal_driver_cpu_interrupt_controller>
20402c64:	f8a42c23          	sw	a0,-104(s0)
/home/khj/Desktop/hello_standalone/freedom-metal/src/drivers/riscv_cpu.c:184
        id = mcause & METAL_MCAUSE_CAUSE;
20402c68:	fa842783          	lw	a5,-88(s0)
20402c6c:	3ff7f793          	andi	a5,a5,1023
20402c70:	f8f42a23          	sw	a5,-108(s0)
/home/khj/Desktop/hello_standalone/freedom-metal/src/drivers/riscv_cpu.c:185
        if (mcause & METAL_MCAUSE_INTR) {
20402c74:	fa842783          	lw	a5,-88(s0)
20402c78:	0a07de63          	bgez	a5,20402d34 <__metal_exception_handler+0x134>
/home/khj/Desktop/hello_standalone/freedom-metal/src/drivers/riscv_cpu.c:186
            if (id == METAL_INTERRUPT_ID_BEU) {
20402c7c:	f9442703          	lw	a4,-108(s0)
20402c80:	08000793          	li	a5,128
20402c84:	02f71263          	bne	a4,a5,20402ca8 <__metal_exception_handler+0xa8>
/home/khj/Desktop/hello_standalone/freedom-metal/src/drivers/riscv_cpu.c:187
                priv = intc->metal_int_beu.exint_data;
20402c88:	f9842783          	lw	a5,-104(s0)
20402c8c:	3987a783          	lw	a5,920(a5)
20402c90:	f8f42823          	sw	a5,-112(s0)
/home/khj/Desktop/hello_standalone/freedom-metal/src/drivers/riscv_cpu.c:188
                intc->metal_int_beu.handler(id, priv);
20402c94:	f9842783          	lw	a5,-104(s0)
20402c98:	3907a783          	lw	a5,912(a5)
20402c9c:	f9042583          	lw	a1,-112(s0)
20402ca0:	f9442503          	lw	a0,-108(s0)
20402ca4:	9782                	jalr	a5
/home/khj/Desktop/hello_standalone/freedom-metal/src/drivers/riscv_cpu.c:189
                return;
20402ca6:	a06d                	j	20402d50 <__metal_exception_handler+0x150>
/home/khj/Desktop/hello_standalone/freedom-metal/src/drivers/riscv_cpu.c:191
            }
            if ((id < METAL_INTERRUPT_ID_CSW) ||
20402ca8:	f9442703          	lw	a4,-108(s0)
20402cac:	47ad                	li	a5,11
20402cae:	00e7d763          	bge	a5,a4,20402cbc <__metal_exception_handler+0xbc>
/home/khj/Desktop/hello_standalone/freedom-metal/src/drivers/riscv_cpu.c:192 (discriminator 1)
                ((mtvec & METAL_MTVEC_MASK) == METAL_MTVEC_DIRECT)) {
20402cb2:	f9c42783          	lw	a5,-100(s0)
20402cb6:	03f7f793          	andi	a5,a5,63
/home/khj/Desktop/hello_standalone/freedom-metal/src/drivers/riscv_cpu.c:191 (discriminator 1)
            if ((id < METAL_INTERRUPT_ID_CSW) ||
20402cba:	ef9d                	bnez	a5,20402cf8 <__metal_exception_handler+0xf8>
/home/khj/Desktop/hello_standalone/freedom-metal/src/drivers/riscv_cpu.c:193
                priv = intc->metal_int_table[id].exint_data;
20402cbc:	f9842683          	lw	a3,-104(s0)
20402cc0:	f9442703          	lw	a4,-108(s0)
20402cc4:	87ba                	mv	a5,a4
20402cc6:	0786                	slli	a5,a5,0x1
20402cc8:	97ba                	add	a5,a5,a4
20402cca:	078e                	slli	a5,a5,0x3
20402ccc:	97b6                	add	a5,a5,a3
20402cce:	0987a783          	lw	a5,152(a5)
20402cd2:	f8f42823          	sw	a5,-112(s0)
/home/khj/Desktop/hello_standalone/freedom-metal/src/drivers/riscv_cpu.c:194
                intc->metal_int_table[id].handler(id, priv);
20402cd6:	f9842683          	lw	a3,-104(s0)
20402cda:	f9442703          	lw	a4,-108(s0)
20402cde:	87ba                	mv	a5,a4
20402ce0:	0786                	slli	a5,a5,0x1
20402ce2:	97ba                	add	a5,a5,a4
20402ce4:	078e                	slli	a5,a5,0x3
20402ce6:	97b6                	add	a5,a5,a3
20402ce8:	0907a783          	lw	a5,144(a5)
20402cec:	f9042583          	lw	a1,-112(s0)
20402cf0:	f9442503          	lw	a0,-108(s0)
20402cf4:	9782                	jalr	a5
/home/khj/Desktop/hello_standalone/freedom-metal/src/drivers/riscv_cpu.c:195
                return;
20402cf6:	a8a9                	j	20402d50 <__metal_exception_handler+0x150>
/home/khj/Desktop/hello_standalone/freedom-metal/src/drivers/riscv_cpu.c:197
            }
            if ((mtvec & METAL_MTVEC_MASK) == METAL_MTVEC_CLIC) {
20402cf8:	f9c42783          	lw	a5,-100(s0)
20402cfc:	03f7f713          	andi	a4,a5,63
20402d00:	4789                	li	a5,2
20402d02:	04f71763          	bne	a4,a5,20402d50 <__metal_exception_handler+0x150>
/home/khj/Desktop/hello_standalone/freedom-metal/src/drivers/riscv_cpu.c:201
                uintptr_t mtvt;
                metal_interrupt_handler_t mtvt_handler;

                __asm__ volatile("csrr %0, 0x307" : "=r"(mtvt));
20402d06:	307027f3          	csrr	a5,mtvt
20402d0a:	f8f42623          	sw	a5,-116(s0)
/home/khj/Desktop/hello_standalone/freedom-metal/src/drivers/riscv_cpu.c:202
                priv = intc->metal_int_table[METAL_INTERRUPT_ID_SW].sub_int;
20402d0e:	f9842783          	lw	a5,-104(s0)
20402d12:	0dc7a783          	lw	a5,220(a5)
20402d16:	f8f42823          	sw	a5,-112(s0)
/home/khj/Desktop/hello_standalone/freedom-metal/src/drivers/riscv_cpu.c:203
                mtvt_handler = (metal_interrupt_handler_t) * (uintptr_t *)mtvt;
20402d1a:	f8c42783          	lw	a5,-116(s0)
20402d1e:	439c                	lw	a5,0(a5)
20402d20:	f8f42423          	sw	a5,-120(s0)
/home/khj/Desktop/hello_standalone/freedom-metal/src/drivers/riscv_cpu.c:204
                mtvt_handler(id, priv);
20402d24:	f8842783          	lw	a5,-120(s0)
20402d28:	f9042583          	lw	a1,-112(s0)
20402d2c:	f9442503          	lw	a0,-108(s0)
20402d30:	9782                	jalr	a5
/home/khj/Desktop/hello_standalone/freedom-metal/src/drivers/riscv_cpu.c:205
                return;
20402d32:	a839                	j	20402d50 <__metal_exception_handler+0x150>
/home/khj/Desktop/hello_standalone/freedom-metal/src/drivers/riscv_cpu.c:208
            }
        } else {
            intc->metal_exception_table[id]((struct metal_cpu *)cpu, id);
20402d34:	f9842703          	lw	a4,-104(s0)
20402d38:	f9442783          	lw	a5,-108(s0)
20402d3c:	0e878793          	addi	a5,a5,232
20402d40:	078a                	slli	a5,a5,0x2
20402d42:	97ba                	add	a5,a5,a4
20402d44:	439c                	lw	a5,0(a5)
20402d46:	f9442583          	lw	a1,-108(s0)
20402d4a:	fac42503          	lw	a0,-84(s0)
20402d4e:	9782                	jalr	a5
/home/khj/Desktop/hello_standalone/freedom-metal/src/drivers/riscv_cpu.c:211
        }
    }
}
20402d50:	50f6                	lw	ra,124(sp)
20402d52:	52e6                	lw	t0,120(sp)
20402d54:	5356                	lw	t1,116(sp)
20402d56:	53c6                	lw	t2,112(sp)
20402d58:	5436                	lw	s0,108(sp)
20402d5a:	5526                	lw	a0,104(sp)
20402d5c:	5596                	lw	a1,100(sp)
20402d5e:	5606                	lw	a2,96(sp)
20402d60:	46f6                	lw	a3,92(sp)
20402d62:	4766                	lw	a4,88(sp)
20402d64:	47d6                	lw	a5,84(sp)
20402d66:	4846                	lw	a6,80(sp)
20402d68:	48b6                	lw	a7,76(sp)
20402d6a:	4e26                	lw	t3,72(sp)
20402d6c:	4e96                	lw	t4,68(sp)
20402d6e:	4f06                	lw	t5,64(sp)
20402d70:	5ff2                	lw	t6,60(sp)
20402d72:	6109                	addi	sp,sp,128
20402d74:	30200073          	mret
	...

20402df2 <metal_lc0_interrupt_vector_handler>:
metal_lc0_interrupt_vector_handler():
/home/khj/Desktop/hello_standalone/freedom-metal/src/drivers/riscv_cpu.c:214

/* The metal_lc0_interrupt_vector_handler() function can be redefined. */
void __attribute__((weak, interrupt)) metal_lc0_interrupt_vector_handler(void) {
20402df2:	711d                	addi	sp,sp,-96
20402df4:	ce86                	sw	ra,92(sp)
20402df6:	cc96                	sw	t0,88(sp)
20402df8:	ca9a                	sw	t1,84(sp)
20402dfa:	c89e                	sw	t2,80(sp)
20402dfc:	c6a2                	sw	s0,76(sp)
20402dfe:	c4aa                	sw	a0,72(sp)
20402e00:	c2ae                	sw	a1,68(sp)
20402e02:	c0b2                	sw	a2,64(sp)
20402e04:	de36                	sw	a3,60(sp)
20402e06:	dc3a                	sw	a4,56(sp)
20402e08:	da3e                	sw	a5,52(sp)
20402e0a:	d842                	sw	a6,48(sp)
20402e0c:	d646                	sw	a7,44(sp)
20402e0e:	d472                	sw	t3,40(sp)
20402e10:	d276                	sw	t4,36(sp)
20402e12:	d07a                	sw	t5,32(sp)
20402e14:	ce7e                	sw	t6,28(sp)
20402e16:	1080                	addi	s0,sp,96
/home/khj/Desktop/hello_standalone/freedom-metal/src/drivers/riscv_cpu.c:215
    __METAL_IRQ_VECTOR_HANDLER(METAL_INTERRUPT_ID_LC0);
20402e18:	a31ff0ef          	jal	ra,20402848 <__metal_myhart_id>
20402e1c:	872a                	mv	a4,a0
20402e1e:	070a                	slli	a4,a4,0x2
20402e20:	80c18793          	addi	a5,gp,-2036 # 800007ac <__metal_cpu_table>
20402e24:	97ba                	add	a5,a5,a4
20402e26:	439c                	lw	a5,0(a5)
20402e28:	faf42623          	sw	a5,-84(s0)
20402e2c:	fac42783          	lw	a5,-84(s0)
20402e30:	c78d                	beqz	a5,20402e5a <metal_lc0_interrupt_vector_handler+0x68>
/home/khj/Desktop/hello_standalone/freedom-metal/src/drivers/riscv_cpu.c:215 (discriminator 1)
20402e32:	fac42503          	lw	a0,-84(s0)
20402e36:	999ff0ef          	jal	ra,204027ce <__metal_driver_cpu_interrupt_controller>
20402e3a:	faa42423          	sw	a0,-88(s0)
20402e3e:	fa842783          	lw	a5,-88(s0)
20402e42:	2187a783          	lw	a5,536(a5)
20402e46:	faf42223          	sw	a5,-92(s0)
20402e4a:	fa842783          	lw	a5,-88(s0)
20402e4e:	2107a783          	lw	a5,528(a5)
20402e52:	fa442583          	lw	a1,-92(s0)
20402e56:	4541                	li	a0,16
20402e58:	9782                	jalr	a5
/home/khj/Desktop/hello_standalone/freedom-metal/src/drivers/riscv_cpu.c:216
}
20402e5a:	0001                	nop
20402e5c:	40f6                	lw	ra,92(sp)
20402e5e:	42e6                	lw	t0,88(sp)
20402e60:	4356                	lw	t1,84(sp)
20402e62:	43c6                	lw	t2,80(sp)
20402e64:	4436                	lw	s0,76(sp)
20402e66:	4526                	lw	a0,72(sp)
20402e68:	4596                	lw	a1,68(sp)
20402e6a:	4606                	lw	a2,64(sp)
20402e6c:	56f2                	lw	a3,60(sp)
20402e6e:	5762                	lw	a4,56(sp)
20402e70:	57d2                	lw	a5,52(sp)
20402e72:	5842                	lw	a6,48(sp)
20402e74:	58b2                	lw	a7,44(sp)
20402e76:	5e22                	lw	t3,40(sp)
20402e78:	5e92                	lw	t4,36(sp)
20402e7a:	5f02                	lw	t5,32(sp)
20402e7c:	4ff2                	lw	t6,28(sp)
20402e7e:	6125                	addi	sp,sp,96
20402e80:	30200073          	mret

20402e84 <metal_lc1_interrupt_vector_handler>:
metal_lc1_interrupt_vector_handler():
/home/khj/Desktop/hello_standalone/freedom-metal/src/drivers/riscv_cpu.c:219

/* The metal_lc1_interrupt_vector_handler() function can be redefined. */
void __attribute__((weak, interrupt)) metal_lc1_interrupt_vector_handler(void) {
20402e84:	711d                	addi	sp,sp,-96
20402e86:	ce86                	sw	ra,92(sp)
20402e88:	cc96                	sw	t0,88(sp)
20402e8a:	ca9a                	sw	t1,84(sp)
20402e8c:	c89e                	sw	t2,80(sp)
20402e8e:	c6a2                	sw	s0,76(sp)
20402e90:	c4aa                	sw	a0,72(sp)
20402e92:	c2ae                	sw	a1,68(sp)
20402e94:	c0b2                	sw	a2,64(sp)
20402e96:	de36                	sw	a3,60(sp)
20402e98:	dc3a                	sw	a4,56(sp)
20402e9a:	da3e                	sw	a5,52(sp)
20402e9c:	d842                	sw	a6,48(sp)
20402e9e:	d646                	sw	a7,44(sp)
20402ea0:	d472                	sw	t3,40(sp)
20402ea2:	d276                	sw	t4,36(sp)
20402ea4:	d07a                	sw	t5,32(sp)
20402ea6:	ce7e                	sw	t6,28(sp)
20402ea8:	1080                	addi	s0,sp,96
/home/khj/Desktop/hello_standalone/freedom-metal/src/drivers/riscv_cpu.c:220
    __METAL_IRQ_VECTOR_HANDLER(METAL_INTERRUPT_ID_LC1);
20402eaa:	99fff0ef          	jal	ra,20402848 <__metal_myhart_id>
20402eae:	872a                	mv	a4,a0
20402eb0:	070a                	slli	a4,a4,0x2
20402eb2:	80c18793          	addi	a5,gp,-2036 # 800007ac <__metal_cpu_table>
20402eb6:	97ba                	add	a5,a5,a4
20402eb8:	439c                	lw	a5,0(a5)
20402eba:	faf42623          	sw	a5,-84(s0)
20402ebe:	fac42783          	lw	a5,-84(s0)
20402ec2:	c78d                	beqz	a5,20402eec <metal_lc1_interrupt_vector_handler+0x68>
/home/khj/Desktop/hello_standalone/freedom-metal/src/drivers/riscv_cpu.c:220 (discriminator 1)
20402ec4:	fac42503          	lw	a0,-84(s0)
20402ec8:	907ff0ef          	jal	ra,204027ce <__metal_driver_cpu_interrupt_controller>
20402ecc:	faa42423          	sw	a0,-88(s0)
20402ed0:	fa842783          	lw	a5,-88(s0)
20402ed4:	2307a783          	lw	a5,560(a5)
20402ed8:	faf42223          	sw	a5,-92(s0)
20402edc:	fa842783          	lw	a5,-88(s0)
20402ee0:	2287a783          	lw	a5,552(a5)
20402ee4:	fa442583          	lw	a1,-92(s0)
20402ee8:	4545                	li	a0,17
20402eea:	9782                	jalr	a5
/home/khj/Desktop/hello_standalone/freedom-metal/src/drivers/riscv_cpu.c:221
}
20402eec:	0001                	nop
20402eee:	40f6                	lw	ra,92(sp)
20402ef0:	42e6                	lw	t0,88(sp)
20402ef2:	4356                	lw	t1,84(sp)
20402ef4:	43c6                	lw	t2,80(sp)
20402ef6:	4436                	lw	s0,76(sp)
20402ef8:	4526                	lw	a0,72(sp)
20402efa:	4596                	lw	a1,68(sp)
20402efc:	4606                	lw	a2,64(sp)
20402efe:	56f2                	lw	a3,60(sp)
20402f00:	5762                	lw	a4,56(sp)
20402f02:	57d2                	lw	a5,52(sp)
20402f04:	5842                	lw	a6,48(sp)
20402f06:	58b2                	lw	a7,44(sp)
20402f08:	5e22                	lw	t3,40(sp)
20402f0a:	5e92                	lw	t4,36(sp)
20402f0c:	5f02                	lw	t5,32(sp)
20402f0e:	4ff2                	lw	t6,28(sp)
20402f10:	6125                	addi	sp,sp,96
20402f12:	30200073          	mret

20402f16 <metal_lc2_interrupt_vector_handler>:
metal_lc2_interrupt_vector_handler():
/home/khj/Desktop/hello_standalone/freedom-metal/src/drivers/riscv_cpu.c:224

/* The metal_lc2_interrupt_vector_handler() function can be redefined. */
void __attribute__((weak, interrupt)) metal_lc2_interrupt_vector_handler(void) {
20402f16:	711d                	addi	sp,sp,-96
20402f18:	ce86                	sw	ra,92(sp)
20402f1a:	cc96                	sw	t0,88(sp)
20402f1c:	ca9a                	sw	t1,84(sp)
20402f1e:	c89e                	sw	t2,80(sp)
20402f20:	c6a2                	sw	s0,76(sp)
20402f22:	c4aa                	sw	a0,72(sp)
20402f24:	c2ae                	sw	a1,68(sp)
20402f26:	c0b2                	sw	a2,64(sp)
20402f28:	de36                	sw	a3,60(sp)
20402f2a:	dc3a                	sw	a4,56(sp)
20402f2c:	da3e                	sw	a5,52(sp)
20402f2e:	d842                	sw	a6,48(sp)
20402f30:	d646                	sw	a7,44(sp)
20402f32:	d472                	sw	t3,40(sp)
20402f34:	d276                	sw	t4,36(sp)
20402f36:	d07a                	sw	t5,32(sp)
20402f38:	ce7e                	sw	t6,28(sp)
20402f3a:	1080                	addi	s0,sp,96
/home/khj/Desktop/hello_standalone/freedom-metal/src/drivers/riscv_cpu.c:225
    __METAL_IRQ_VECTOR_HANDLER(METAL_INTERRUPT_ID_LC2);
20402f3c:	90dff0ef          	jal	ra,20402848 <__metal_myhart_id>
20402f40:	872a                	mv	a4,a0
20402f42:	070a                	slli	a4,a4,0x2
20402f44:	80c18793          	addi	a5,gp,-2036 # 800007ac <__metal_cpu_table>
20402f48:	97ba                	add	a5,a5,a4
20402f4a:	439c                	lw	a5,0(a5)
20402f4c:	faf42623          	sw	a5,-84(s0)
20402f50:	fac42783          	lw	a5,-84(s0)
20402f54:	c78d                	beqz	a5,20402f7e <metal_lc2_interrupt_vector_handler+0x68>
/home/khj/Desktop/hello_standalone/freedom-metal/src/drivers/riscv_cpu.c:225 (discriminator 1)
20402f56:	fac42503          	lw	a0,-84(s0)
20402f5a:	875ff0ef          	jal	ra,204027ce <__metal_driver_cpu_interrupt_controller>
20402f5e:	faa42423          	sw	a0,-88(s0)
20402f62:	fa842783          	lw	a5,-88(s0)
20402f66:	2487a783          	lw	a5,584(a5)
20402f6a:	faf42223          	sw	a5,-92(s0)
20402f6e:	fa842783          	lw	a5,-88(s0)
20402f72:	2407a783          	lw	a5,576(a5)
20402f76:	fa442583          	lw	a1,-92(s0)
20402f7a:	4549                	li	a0,18
20402f7c:	9782                	jalr	a5
/home/khj/Desktop/hello_standalone/freedom-metal/src/drivers/riscv_cpu.c:226
}
20402f7e:	0001                	nop
20402f80:	40f6                	lw	ra,92(sp)
20402f82:	42e6                	lw	t0,88(sp)
20402f84:	4356                	lw	t1,84(sp)
20402f86:	43c6                	lw	t2,80(sp)
20402f88:	4436                	lw	s0,76(sp)
20402f8a:	4526                	lw	a0,72(sp)
20402f8c:	4596                	lw	a1,68(sp)
20402f8e:	4606                	lw	a2,64(sp)
20402f90:	56f2                	lw	a3,60(sp)
20402f92:	5762                	lw	a4,56(sp)
20402f94:	57d2                	lw	a5,52(sp)
20402f96:	5842                	lw	a6,48(sp)
20402f98:	58b2                	lw	a7,44(sp)
20402f9a:	5e22                	lw	t3,40(sp)
20402f9c:	5e92                	lw	t4,36(sp)
20402f9e:	5f02                	lw	t5,32(sp)
20402fa0:	4ff2                	lw	t6,28(sp)
20402fa2:	6125                	addi	sp,sp,96
20402fa4:	30200073          	mret

20402fa8 <metal_lc3_interrupt_vector_handler>:
metal_lc3_interrupt_vector_handler():
/home/khj/Desktop/hello_standalone/freedom-metal/src/drivers/riscv_cpu.c:229

/* The metal_lc3_interrupt_vector_handler() function can be redefined. */
void __attribute__((weak, interrupt)) metal_lc3_interrupt_vector_handler(void) {
20402fa8:	711d                	addi	sp,sp,-96
20402faa:	ce86                	sw	ra,92(sp)
20402fac:	cc96                	sw	t0,88(sp)
20402fae:	ca9a                	sw	t1,84(sp)
20402fb0:	c89e                	sw	t2,80(sp)
20402fb2:	c6a2                	sw	s0,76(sp)
20402fb4:	c4aa                	sw	a0,72(sp)
20402fb6:	c2ae                	sw	a1,68(sp)
20402fb8:	c0b2                	sw	a2,64(sp)
20402fba:	de36                	sw	a3,60(sp)
20402fbc:	dc3a                	sw	a4,56(sp)
20402fbe:	da3e                	sw	a5,52(sp)
20402fc0:	d842                	sw	a6,48(sp)
20402fc2:	d646                	sw	a7,44(sp)
20402fc4:	d472                	sw	t3,40(sp)
20402fc6:	d276                	sw	t4,36(sp)
20402fc8:	d07a                	sw	t5,32(sp)
20402fca:	ce7e                	sw	t6,28(sp)
20402fcc:	1080                	addi	s0,sp,96
/home/khj/Desktop/hello_standalone/freedom-metal/src/drivers/riscv_cpu.c:230
    __METAL_IRQ_VECTOR_HANDLER(METAL_INTERRUPT_ID_LC3);
20402fce:	87bff0ef          	jal	ra,20402848 <__metal_myhart_id>
20402fd2:	872a                	mv	a4,a0
20402fd4:	070a                	slli	a4,a4,0x2
20402fd6:	80c18793          	addi	a5,gp,-2036 # 800007ac <__metal_cpu_table>
20402fda:	97ba                	add	a5,a5,a4
20402fdc:	439c                	lw	a5,0(a5)
20402fde:	faf42623          	sw	a5,-84(s0)
20402fe2:	fac42783          	lw	a5,-84(s0)
20402fe6:	c78d                	beqz	a5,20403010 <metal_lc3_interrupt_vector_handler+0x68>
/home/khj/Desktop/hello_standalone/freedom-metal/src/drivers/riscv_cpu.c:230 (discriminator 1)
20402fe8:	fac42503          	lw	a0,-84(s0)
20402fec:	fe2ff0ef          	jal	ra,204027ce <__metal_driver_cpu_interrupt_controller>
20402ff0:	faa42423          	sw	a0,-88(s0)
20402ff4:	fa842783          	lw	a5,-88(s0)
20402ff8:	2607a783          	lw	a5,608(a5)
20402ffc:	faf42223          	sw	a5,-92(s0)
20403000:	fa842783          	lw	a5,-88(s0)
20403004:	2587a783          	lw	a5,600(a5)
20403008:	fa442583          	lw	a1,-92(s0)
2040300c:	454d                	li	a0,19
2040300e:	9782                	jalr	a5
/home/khj/Desktop/hello_standalone/freedom-metal/src/drivers/riscv_cpu.c:231
}
20403010:	0001                	nop
20403012:	40f6                	lw	ra,92(sp)
20403014:	42e6                	lw	t0,88(sp)
20403016:	4356                	lw	t1,84(sp)
20403018:	43c6                	lw	t2,80(sp)
2040301a:	4436                	lw	s0,76(sp)
2040301c:	4526                	lw	a0,72(sp)
2040301e:	4596                	lw	a1,68(sp)
20403020:	4606                	lw	a2,64(sp)
20403022:	56f2                	lw	a3,60(sp)
20403024:	5762                	lw	a4,56(sp)
20403026:	57d2                	lw	a5,52(sp)
20403028:	5842                	lw	a6,48(sp)
2040302a:	58b2                	lw	a7,44(sp)
2040302c:	5e22                	lw	t3,40(sp)
2040302e:	5e92                	lw	t4,36(sp)
20403030:	5f02                	lw	t5,32(sp)
20403032:	4ff2                	lw	t6,28(sp)
20403034:	6125                	addi	sp,sp,96
20403036:	30200073          	mret

2040303a <metal_lc4_interrupt_vector_handler>:
metal_lc4_interrupt_vector_handler():
/home/khj/Desktop/hello_standalone/freedom-metal/src/drivers/riscv_cpu.c:234

/* The metal_lc4_interrupt_vector_handler() function can be redefined. */
void __attribute__((weak, interrupt)) metal_lc4_interrupt_vector_handler(void) {
2040303a:	711d                	addi	sp,sp,-96
2040303c:	ce86                	sw	ra,92(sp)
2040303e:	cc96                	sw	t0,88(sp)
20403040:	ca9a                	sw	t1,84(sp)
20403042:	c89e                	sw	t2,80(sp)
20403044:	c6a2                	sw	s0,76(sp)
20403046:	c4aa                	sw	a0,72(sp)
20403048:	c2ae                	sw	a1,68(sp)
2040304a:	c0b2                	sw	a2,64(sp)
2040304c:	de36                	sw	a3,60(sp)
2040304e:	dc3a                	sw	a4,56(sp)
20403050:	da3e                	sw	a5,52(sp)
20403052:	d842                	sw	a6,48(sp)
20403054:	d646                	sw	a7,44(sp)
20403056:	d472                	sw	t3,40(sp)
20403058:	d276                	sw	t4,36(sp)
2040305a:	d07a                	sw	t5,32(sp)
2040305c:	ce7e                	sw	t6,28(sp)
2040305e:	1080                	addi	s0,sp,96
/home/khj/Desktop/hello_standalone/freedom-metal/src/drivers/riscv_cpu.c:235
    __METAL_IRQ_VECTOR_HANDLER(METAL_INTERRUPT_ID_LC4);
20403060:	fe8ff0ef          	jal	ra,20402848 <__metal_myhart_id>
20403064:	872a                	mv	a4,a0
20403066:	070a                	slli	a4,a4,0x2
20403068:	80c18793          	addi	a5,gp,-2036 # 800007ac <__metal_cpu_table>
2040306c:	97ba                	add	a5,a5,a4
2040306e:	439c                	lw	a5,0(a5)
20403070:	faf42623          	sw	a5,-84(s0)
20403074:	fac42783          	lw	a5,-84(s0)
20403078:	c78d                	beqz	a5,204030a2 <metal_lc4_interrupt_vector_handler+0x68>
/home/khj/Desktop/hello_standalone/freedom-metal/src/drivers/riscv_cpu.c:235 (discriminator 1)
2040307a:	fac42503          	lw	a0,-84(s0)
2040307e:	f50ff0ef          	jal	ra,204027ce <__metal_driver_cpu_interrupt_controller>
20403082:	faa42423          	sw	a0,-88(s0)
20403086:	fa842783          	lw	a5,-88(s0)
2040308a:	2787a783          	lw	a5,632(a5)
2040308e:	faf42223          	sw	a5,-92(s0)
20403092:	fa842783          	lw	a5,-88(s0)
20403096:	2707a783          	lw	a5,624(a5)
2040309a:	fa442583          	lw	a1,-92(s0)
2040309e:	4551                	li	a0,20
204030a0:	9782                	jalr	a5
/home/khj/Desktop/hello_standalone/freedom-metal/src/drivers/riscv_cpu.c:236
}
204030a2:	0001                	nop
204030a4:	40f6                	lw	ra,92(sp)
204030a6:	42e6                	lw	t0,88(sp)
204030a8:	4356                	lw	t1,84(sp)
204030aa:	43c6                	lw	t2,80(sp)
204030ac:	4436                	lw	s0,76(sp)
204030ae:	4526                	lw	a0,72(sp)
204030b0:	4596                	lw	a1,68(sp)
204030b2:	4606                	lw	a2,64(sp)
204030b4:	56f2                	lw	a3,60(sp)
204030b6:	5762                	lw	a4,56(sp)
204030b8:	57d2                	lw	a5,52(sp)
204030ba:	5842                	lw	a6,48(sp)
204030bc:	58b2                	lw	a7,44(sp)
204030be:	5e22                	lw	t3,40(sp)
204030c0:	5e92                	lw	t4,36(sp)
204030c2:	5f02                	lw	t5,32(sp)
204030c4:	4ff2                	lw	t6,28(sp)
204030c6:	6125                	addi	sp,sp,96
204030c8:	30200073          	mret

204030cc <metal_lc5_interrupt_vector_handler>:
metal_lc5_interrupt_vector_handler():
/home/khj/Desktop/hello_standalone/freedom-metal/src/drivers/riscv_cpu.c:239

/* The metal_lc5_interrupt_vector_handler() function can be redefined. */
void __attribute__((weak, interrupt)) metal_lc5_interrupt_vector_handler(void) {
204030cc:	711d                	addi	sp,sp,-96
204030ce:	ce86                	sw	ra,92(sp)
204030d0:	cc96                	sw	t0,88(sp)
204030d2:	ca9a                	sw	t1,84(sp)
204030d4:	c89e                	sw	t2,80(sp)
204030d6:	c6a2                	sw	s0,76(sp)
204030d8:	c4aa                	sw	a0,72(sp)
204030da:	c2ae                	sw	a1,68(sp)
204030dc:	c0b2                	sw	a2,64(sp)
204030de:	de36                	sw	a3,60(sp)
204030e0:	dc3a                	sw	a4,56(sp)
204030e2:	da3e                	sw	a5,52(sp)
204030e4:	d842                	sw	a6,48(sp)
204030e6:	d646                	sw	a7,44(sp)
204030e8:	d472                	sw	t3,40(sp)
204030ea:	d276                	sw	t4,36(sp)
204030ec:	d07a                	sw	t5,32(sp)
204030ee:	ce7e                	sw	t6,28(sp)
204030f0:	1080                	addi	s0,sp,96
/home/khj/Desktop/hello_standalone/freedom-metal/src/drivers/riscv_cpu.c:240
    __METAL_IRQ_VECTOR_HANDLER(METAL_INTERRUPT_ID_LC5);
204030f2:	f56ff0ef          	jal	ra,20402848 <__metal_myhart_id>
204030f6:	872a                	mv	a4,a0
204030f8:	070a                	slli	a4,a4,0x2
204030fa:	80c18793          	addi	a5,gp,-2036 # 800007ac <__metal_cpu_table>
204030fe:	97ba                	add	a5,a5,a4
20403100:	439c                	lw	a5,0(a5)
20403102:	faf42623          	sw	a5,-84(s0)
20403106:	fac42783          	lw	a5,-84(s0)
2040310a:	c78d                	beqz	a5,20403134 <metal_lc5_interrupt_vector_handler+0x68>
/home/khj/Desktop/hello_standalone/freedom-metal/src/drivers/riscv_cpu.c:240 (discriminator 1)
2040310c:	fac42503          	lw	a0,-84(s0)
20403110:	ebeff0ef          	jal	ra,204027ce <__metal_driver_cpu_interrupt_controller>
20403114:	faa42423          	sw	a0,-88(s0)
20403118:	fa842783          	lw	a5,-88(s0)
2040311c:	2907a783          	lw	a5,656(a5)
20403120:	faf42223          	sw	a5,-92(s0)
20403124:	fa842783          	lw	a5,-88(s0)
20403128:	2887a783          	lw	a5,648(a5)
2040312c:	fa442583          	lw	a1,-92(s0)
20403130:	4555                	li	a0,21
20403132:	9782                	jalr	a5
/home/khj/Desktop/hello_standalone/freedom-metal/src/drivers/riscv_cpu.c:241
}
20403134:	0001                	nop
20403136:	40f6                	lw	ra,92(sp)
20403138:	42e6                	lw	t0,88(sp)
2040313a:	4356                	lw	t1,84(sp)
2040313c:	43c6                	lw	t2,80(sp)
2040313e:	4436                	lw	s0,76(sp)
20403140:	4526                	lw	a0,72(sp)
20403142:	4596                	lw	a1,68(sp)
20403144:	4606                	lw	a2,64(sp)
20403146:	56f2                	lw	a3,60(sp)
20403148:	5762                	lw	a4,56(sp)
2040314a:	57d2                	lw	a5,52(sp)
2040314c:	5842                	lw	a6,48(sp)
2040314e:	58b2                	lw	a7,44(sp)
20403150:	5e22                	lw	t3,40(sp)
20403152:	5e92                	lw	t4,36(sp)
20403154:	5f02                	lw	t5,32(sp)
20403156:	4ff2                	lw	t6,28(sp)
20403158:	6125                	addi	sp,sp,96
2040315a:	30200073          	mret

2040315e <metal_lc6_interrupt_vector_handler>:
metal_lc6_interrupt_vector_handler():
/home/khj/Desktop/hello_standalone/freedom-metal/src/drivers/riscv_cpu.c:244

/* The metal_lc6_interrupt_vector_handler() function can be redefined. */
void __attribute__((weak, interrupt)) metal_lc6_interrupt_vector_handler(void) {
2040315e:	711d                	addi	sp,sp,-96
20403160:	ce86                	sw	ra,92(sp)
20403162:	cc96                	sw	t0,88(sp)
20403164:	ca9a                	sw	t1,84(sp)
20403166:	c89e                	sw	t2,80(sp)
20403168:	c6a2                	sw	s0,76(sp)
2040316a:	c4aa                	sw	a0,72(sp)
2040316c:	c2ae                	sw	a1,68(sp)
2040316e:	c0b2                	sw	a2,64(sp)
20403170:	de36                	sw	a3,60(sp)
20403172:	dc3a                	sw	a4,56(sp)
20403174:	da3e                	sw	a5,52(sp)
20403176:	d842                	sw	a6,48(sp)
20403178:	d646                	sw	a7,44(sp)
2040317a:	d472                	sw	t3,40(sp)
2040317c:	d276                	sw	t4,36(sp)
2040317e:	d07a                	sw	t5,32(sp)
20403180:	ce7e                	sw	t6,28(sp)
20403182:	1080                	addi	s0,sp,96
/home/khj/Desktop/hello_standalone/freedom-metal/src/drivers/riscv_cpu.c:245
    __METAL_IRQ_VECTOR_HANDLER(METAL_INTERRUPT_ID_LC6);
20403184:	ec4ff0ef          	jal	ra,20402848 <__metal_myhart_id>
20403188:	872a                	mv	a4,a0
2040318a:	070a                	slli	a4,a4,0x2
2040318c:	80c18793          	addi	a5,gp,-2036 # 800007ac <__metal_cpu_table>
20403190:	97ba                	add	a5,a5,a4
20403192:	439c                	lw	a5,0(a5)
20403194:	faf42623          	sw	a5,-84(s0)
20403198:	fac42783          	lw	a5,-84(s0)
2040319c:	c78d                	beqz	a5,204031c6 <metal_lc6_interrupt_vector_handler+0x68>
/home/khj/Desktop/hello_standalone/freedom-metal/src/drivers/riscv_cpu.c:245 (discriminator 1)
2040319e:	fac42503          	lw	a0,-84(s0)
204031a2:	e2cff0ef          	jal	ra,204027ce <__metal_driver_cpu_interrupt_controller>
204031a6:	faa42423          	sw	a0,-88(s0)
204031aa:	fa842783          	lw	a5,-88(s0)
204031ae:	2a87a783          	lw	a5,680(a5)
204031b2:	faf42223          	sw	a5,-92(s0)
204031b6:	fa842783          	lw	a5,-88(s0)
204031ba:	2a07a783          	lw	a5,672(a5)
204031be:	fa442583          	lw	a1,-92(s0)
204031c2:	4559                	li	a0,22
204031c4:	9782                	jalr	a5
/home/khj/Desktop/hello_standalone/freedom-metal/src/drivers/riscv_cpu.c:246
}
204031c6:	0001                	nop
204031c8:	40f6                	lw	ra,92(sp)
204031ca:	42e6                	lw	t0,88(sp)
204031cc:	4356                	lw	t1,84(sp)
204031ce:	43c6                	lw	t2,80(sp)
204031d0:	4436                	lw	s0,76(sp)
204031d2:	4526                	lw	a0,72(sp)
204031d4:	4596                	lw	a1,68(sp)
204031d6:	4606                	lw	a2,64(sp)
204031d8:	56f2                	lw	a3,60(sp)
204031da:	5762                	lw	a4,56(sp)
204031dc:	57d2                	lw	a5,52(sp)
204031de:	5842                	lw	a6,48(sp)
204031e0:	58b2                	lw	a7,44(sp)
204031e2:	5e22                	lw	t3,40(sp)
204031e4:	5e92                	lw	t4,36(sp)
204031e6:	5f02                	lw	t5,32(sp)
204031e8:	4ff2                	lw	t6,28(sp)
204031ea:	6125                	addi	sp,sp,96
204031ec:	30200073          	mret

204031f0 <metal_lc7_interrupt_vector_handler>:
metal_lc7_interrupt_vector_handler():
/home/khj/Desktop/hello_standalone/freedom-metal/src/drivers/riscv_cpu.c:249

/* The metal_lc7_interrupt_vector_handler() function can be redefined. */
void __attribute__((weak, interrupt)) metal_lc7_interrupt_vector_handler(void) {
204031f0:	711d                	addi	sp,sp,-96
204031f2:	ce86                	sw	ra,92(sp)
204031f4:	cc96                	sw	t0,88(sp)
204031f6:	ca9a                	sw	t1,84(sp)
204031f8:	c89e                	sw	t2,80(sp)
204031fa:	c6a2                	sw	s0,76(sp)
204031fc:	c4aa                	sw	a0,72(sp)
204031fe:	c2ae                	sw	a1,68(sp)
20403200:	c0b2                	sw	a2,64(sp)
20403202:	de36                	sw	a3,60(sp)
20403204:	dc3a                	sw	a4,56(sp)
20403206:	da3e                	sw	a5,52(sp)
20403208:	d842                	sw	a6,48(sp)
2040320a:	d646                	sw	a7,44(sp)
2040320c:	d472                	sw	t3,40(sp)
2040320e:	d276                	sw	t4,36(sp)
20403210:	d07a                	sw	t5,32(sp)
20403212:	ce7e                	sw	t6,28(sp)
20403214:	1080                	addi	s0,sp,96
/home/khj/Desktop/hello_standalone/freedom-metal/src/drivers/riscv_cpu.c:250
    __METAL_IRQ_VECTOR_HANDLER(METAL_INTERRUPT_ID_LC7);
20403216:	e32ff0ef          	jal	ra,20402848 <__metal_myhart_id>
2040321a:	872a                	mv	a4,a0
2040321c:	070a                	slli	a4,a4,0x2
2040321e:	80c18793          	addi	a5,gp,-2036 # 800007ac <__metal_cpu_table>
20403222:	97ba                	add	a5,a5,a4
20403224:	439c                	lw	a5,0(a5)
20403226:	faf42623          	sw	a5,-84(s0)
2040322a:	fac42783          	lw	a5,-84(s0)
2040322e:	c78d                	beqz	a5,20403258 <metal_lc7_interrupt_vector_handler+0x68>
/home/khj/Desktop/hello_standalone/freedom-metal/src/drivers/riscv_cpu.c:250 (discriminator 1)
20403230:	fac42503          	lw	a0,-84(s0)
20403234:	d9aff0ef          	jal	ra,204027ce <__metal_driver_cpu_interrupt_controller>
20403238:	faa42423          	sw	a0,-88(s0)
2040323c:	fa842783          	lw	a5,-88(s0)
20403240:	2c07a783          	lw	a5,704(a5)
20403244:	faf42223          	sw	a5,-92(s0)
20403248:	fa842783          	lw	a5,-88(s0)
2040324c:	2b87a783          	lw	a5,696(a5)
20403250:	fa442583          	lw	a1,-92(s0)
20403254:	455d                	li	a0,23
20403256:	9782                	jalr	a5
/home/khj/Desktop/hello_standalone/freedom-metal/src/drivers/riscv_cpu.c:251
}
20403258:	0001                	nop
2040325a:	40f6                	lw	ra,92(sp)
2040325c:	42e6                	lw	t0,88(sp)
2040325e:	4356                	lw	t1,84(sp)
20403260:	43c6                	lw	t2,80(sp)
20403262:	4436                	lw	s0,76(sp)
20403264:	4526                	lw	a0,72(sp)
20403266:	4596                	lw	a1,68(sp)
20403268:	4606                	lw	a2,64(sp)
2040326a:	56f2                	lw	a3,60(sp)
2040326c:	5762                	lw	a4,56(sp)
2040326e:	57d2                	lw	a5,52(sp)
20403270:	5842                	lw	a6,48(sp)
20403272:	58b2                	lw	a7,44(sp)
20403274:	5e22                	lw	t3,40(sp)
20403276:	5e92                	lw	t4,36(sp)
20403278:	5f02                	lw	t5,32(sp)
2040327a:	4ff2                	lw	t6,28(sp)
2040327c:	6125                	addi	sp,sp,96
2040327e:	30200073          	mret

20403282 <metal_lc8_interrupt_vector_handler>:
metal_lc8_interrupt_vector_handler():
/home/khj/Desktop/hello_standalone/freedom-metal/src/drivers/riscv_cpu.c:254

/* The metal_lc8_interrupt_vector_handler() function can be redefined. */
void __attribute__((weak, interrupt)) metal_lc8_interrupt_vector_handler(void) {
20403282:	711d                	addi	sp,sp,-96
20403284:	ce86                	sw	ra,92(sp)
20403286:	cc96                	sw	t0,88(sp)
20403288:	ca9a                	sw	t1,84(sp)
2040328a:	c89e                	sw	t2,80(sp)
2040328c:	c6a2                	sw	s0,76(sp)
2040328e:	c4aa                	sw	a0,72(sp)
20403290:	c2ae                	sw	a1,68(sp)
20403292:	c0b2                	sw	a2,64(sp)
20403294:	de36                	sw	a3,60(sp)
20403296:	dc3a                	sw	a4,56(sp)
20403298:	da3e                	sw	a5,52(sp)
2040329a:	d842                	sw	a6,48(sp)
2040329c:	d646                	sw	a7,44(sp)
2040329e:	d472                	sw	t3,40(sp)
204032a0:	d276                	sw	t4,36(sp)
204032a2:	d07a                	sw	t5,32(sp)
204032a4:	ce7e                	sw	t6,28(sp)
204032a6:	1080                	addi	s0,sp,96
/home/khj/Desktop/hello_standalone/freedom-metal/src/drivers/riscv_cpu.c:255
    __METAL_IRQ_VECTOR_HANDLER(METAL_INTERRUPT_ID_LC8);
204032a8:	da0ff0ef          	jal	ra,20402848 <__metal_myhart_id>
204032ac:	872a                	mv	a4,a0
204032ae:	070a                	slli	a4,a4,0x2
204032b0:	80c18793          	addi	a5,gp,-2036 # 800007ac <__metal_cpu_table>
204032b4:	97ba                	add	a5,a5,a4
204032b6:	439c                	lw	a5,0(a5)
204032b8:	faf42623          	sw	a5,-84(s0)
204032bc:	fac42783          	lw	a5,-84(s0)
204032c0:	c78d                	beqz	a5,204032ea <metal_lc8_interrupt_vector_handler+0x68>
/home/khj/Desktop/hello_standalone/freedom-metal/src/drivers/riscv_cpu.c:255 (discriminator 1)
204032c2:	fac42503          	lw	a0,-84(s0)
204032c6:	d08ff0ef          	jal	ra,204027ce <__metal_driver_cpu_interrupt_controller>
204032ca:	faa42423          	sw	a0,-88(s0)
204032ce:	fa842783          	lw	a5,-88(s0)
204032d2:	2d87a783          	lw	a5,728(a5)
204032d6:	faf42223          	sw	a5,-92(s0)
204032da:	fa842783          	lw	a5,-88(s0)
204032de:	2d07a783          	lw	a5,720(a5)
204032e2:	fa442583          	lw	a1,-92(s0)
204032e6:	4561                	li	a0,24
204032e8:	9782                	jalr	a5
/home/khj/Desktop/hello_standalone/freedom-metal/src/drivers/riscv_cpu.c:256
}
204032ea:	0001                	nop
204032ec:	40f6                	lw	ra,92(sp)
204032ee:	42e6                	lw	t0,88(sp)
204032f0:	4356                	lw	t1,84(sp)
204032f2:	43c6                	lw	t2,80(sp)
204032f4:	4436                	lw	s0,76(sp)
204032f6:	4526                	lw	a0,72(sp)
204032f8:	4596                	lw	a1,68(sp)
204032fa:	4606                	lw	a2,64(sp)
204032fc:	56f2                	lw	a3,60(sp)
204032fe:	5762                	lw	a4,56(sp)
20403300:	57d2                	lw	a5,52(sp)
20403302:	5842                	lw	a6,48(sp)
20403304:	58b2                	lw	a7,44(sp)
20403306:	5e22                	lw	t3,40(sp)
20403308:	5e92                	lw	t4,36(sp)
2040330a:	5f02                	lw	t5,32(sp)
2040330c:	4ff2                	lw	t6,28(sp)
2040330e:	6125                	addi	sp,sp,96
20403310:	30200073          	mret

20403314 <metal_lc9_interrupt_vector_handler>:
metal_lc9_interrupt_vector_handler():
/home/khj/Desktop/hello_standalone/freedom-metal/src/drivers/riscv_cpu.c:259

/* The metal_lc9_interrupt_vector_handler() function can be redefined. */
void __attribute__((weak, interrupt)) metal_lc9_interrupt_vector_handler(void) {
20403314:	711d                	addi	sp,sp,-96
20403316:	ce86                	sw	ra,92(sp)
20403318:	cc96                	sw	t0,88(sp)
2040331a:	ca9a                	sw	t1,84(sp)
2040331c:	c89e                	sw	t2,80(sp)
2040331e:	c6a2                	sw	s0,76(sp)
20403320:	c4aa                	sw	a0,72(sp)
20403322:	c2ae                	sw	a1,68(sp)
20403324:	c0b2                	sw	a2,64(sp)
20403326:	de36                	sw	a3,60(sp)
20403328:	dc3a                	sw	a4,56(sp)
2040332a:	da3e                	sw	a5,52(sp)
2040332c:	d842                	sw	a6,48(sp)
2040332e:	d646                	sw	a7,44(sp)
20403330:	d472                	sw	t3,40(sp)
20403332:	d276                	sw	t4,36(sp)
20403334:	d07a                	sw	t5,32(sp)
20403336:	ce7e                	sw	t6,28(sp)
20403338:	1080                	addi	s0,sp,96
/home/khj/Desktop/hello_standalone/freedom-metal/src/drivers/riscv_cpu.c:260
    __METAL_IRQ_VECTOR_HANDLER(METAL_INTERRUPT_ID_LC9);
2040333a:	d0eff0ef          	jal	ra,20402848 <__metal_myhart_id>
2040333e:	872a                	mv	a4,a0
20403340:	070a                	slli	a4,a4,0x2
20403342:	80c18793          	addi	a5,gp,-2036 # 800007ac <__metal_cpu_table>
20403346:	97ba                	add	a5,a5,a4
20403348:	439c                	lw	a5,0(a5)
2040334a:	faf42623          	sw	a5,-84(s0)
2040334e:	fac42783          	lw	a5,-84(s0)
20403352:	c78d                	beqz	a5,2040337c <metal_lc9_interrupt_vector_handler+0x68>
/home/khj/Desktop/hello_standalone/freedom-metal/src/drivers/riscv_cpu.c:260 (discriminator 1)
20403354:	fac42503          	lw	a0,-84(s0)
20403358:	c76ff0ef          	jal	ra,204027ce <__metal_driver_cpu_interrupt_controller>
2040335c:	faa42423          	sw	a0,-88(s0)
20403360:	fa842783          	lw	a5,-88(s0)
20403364:	2f07a783          	lw	a5,752(a5)
20403368:	faf42223          	sw	a5,-92(s0)
2040336c:	fa842783          	lw	a5,-88(s0)
20403370:	2e87a783          	lw	a5,744(a5)
20403374:	fa442583          	lw	a1,-92(s0)
20403378:	4565                	li	a0,25
2040337a:	9782                	jalr	a5
/home/khj/Desktop/hello_standalone/freedom-metal/src/drivers/riscv_cpu.c:261
}
2040337c:	0001                	nop
2040337e:	40f6                	lw	ra,92(sp)
20403380:	42e6                	lw	t0,88(sp)
20403382:	4356                	lw	t1,84(sp)
20403384:	43c6                	lw	t2,80(sp)
20403386:	4436                	lw	s0,76(sp)
20403388:	4526                	lw	a0,72(sp)
2040338a:	4596                	lw	a1,68(sp)
2040338c:	4606                	lw	a2,64(sp)
2040338e:	56f2                	lw	a3,60(sp)
20403390:	5762                	lw	a4,56(sp)
20403392:	57d2                	lw	a5,52(sp)
20403394:	5842                	lw	a6,48(sp)
20403396:	58b2                	lw	a7,44(sp)
20403398:	5e22                	lw	t3,40(sp)
2040339a:	5e92                	lw	t4,36(sp)
2040339c:	5f02                	lw	t5,32(sp)
2040339e:	4ff2                	lw	t6,28(sp)
204033a0:	6125                	addi	sp,sp,96
204033a2:	30200073          	mret

204033a6 <metal_lc10_interrupt_vector_handler>:
metal_lc10_interrupt_vector_handler():
/home/khj/Desktop/hello_standalone/freedom-metal/src/drivers/riscv_cpu.c:265

/* The metal_lc10_interrupt_vector_handler() function can be redefined. */
void __attribute__((weak, interrupt))
metal_lc10_interrupt_vector_handler(void) {
204033a6:	711d                	addi	sp,sp,-96
204033a8:	ce86                	sw	ra,92(sp)
204033aa:	cc96                	sw	t0,88(sp)
204033ac:	ca9a                	sw	t1,84(sp)
204033ae:	c89e                	sw	t2,80(sp)
204033b0:	c6a2                	sw	s0,76(sp)
204033b2:	c4aa                	sw	a0,72(sp)
204033b4:	c2ae                	sw	a1,68(sp)
204033b6:	c0b2                	sw	a2,64(sp)
204033b8:	de36                	sw	a3,60(sp)
204033ba:	dc3a                	sw	a4,56(sp)
204033bc:	da3e                	sw	a5,52(sp)
204033be:	d842                	sw	a6,48(sp)
204033c0:	d646                	sw	a7,44(sp)
204033c2:	d472                	sw	t3,40(sp)
204033c4:	d276                	sw	t4,36(sp)
204033c6:	d07a                	sw	t5,32(sp)
204033c8:	ce7e                	sw	t6,28(sp)
204033ca:	1080                	addi	s0,sp,96
/home/khj/Desktop/hello_standalone/freedom-metal/src/drivers/riscv_cpu.c:266
    __METAL_IRQ_VECTOR_HANDLER(METAL_INTERRUPT_ID_LC10);
204033cc:	c7cff0ef          	jal	ra,20402848 <__metal_myhart_id>
204033d0:	872a                	mv	a4,a0
204033d2:	070a                	slli	a4,a4,0x2
204033d4:	80c18793          	addi	a5,gp,-2036 # 800007ac <__metal_cpu_table>
204033d8:	97ba                	add	a5,a5,a4
204033da:	439c                	lw	a5,0(a5)
204033dc:	faf42623          	sw	a5,-84(s0)
204033e0:	fac42783          	lw	a5,-84(s0)
204033e4:	c78d                	beqz	a5,2040340e <metal_lc10_interrupt_vector_handler+0x68>
/home/khj/Desktop/hello_standalone/freedom-metal/src/drivers/riscv_cpu.c:266 (discriminator 1)
204033e6:	fac42503          	lw	a0,-84(s0)
204033ea:	be4ff0ef          	jal	ra,204027ce <__metal_driver_cpu_interrupt_controller>
204033ee:	faa42423          	sw	a0,-88(s0)
204033f2:	fa842783          	lw	a5,-88(s0)
204033f6:	3087a783          	lw	a5,776(a5)
204033fa:	faf42223          	sw	a5,-92(s0)
204033fe:	fa842783          	lw	a5,-88(s0)
20403402:	3007a783          	lw	a5,768(a5)
20403406:	fa442583          	lw	a1,-92(s0)
2040340a:	4569                	li	a0,26
2040340c:	9782                	jalr	a5
/home/khj/Desktop/hello_standalone/freedom-metal/src/drivers/riscv_cpu.c:267
}
2040340e:	0001                	nop
20403410:	40f6                	lw	ra,92(sp)
20403412:	42e6                	lw	t0,88(sp)
20403414:	4356                	lw	t1,84(sp)
20403416:	43c6                	lw	t2,80(sp)
20403418:	4436                	lw	s0,76(sp)
2040341a:	4526                	lw	a0,72(sp)
2040341c:	4596                	lw	a1,68(sp)
2040341e:	4606                	lw	a2,64(sp)
20403420:	56f2                	lw	a3,60(sp)
20403422:	5762                	lw	a4,56(sp)
20403424:	57d2                	lw	a5,52(sp)
20403426:	5842                	lw	a6,48(sp)
20403428:	58b2                	lw	a7,44(sp)
2040342a:	5e22                	lw	t3,40(sp)
2040342c:	5e92                	lw	t4,36(sp)
2040342e:	5f02                	lw	t5,32(sp)
20403430:	4ff2                	lw	t6,28(sp)
20403432:	6125                	addi	sp,sp,96
20403434:	30200073          	mret

20403438 <metal_lc11_interrupt_vector_handler>:
metal_lc11_interrupt_vector_handler():
/home/khj/Desktop/hello_standalone/freedom-metal/src/drivers/riscv_cpu.c:271

/* The metal_lc11_interrupt_vector_handler() function can be redefined. */
void __attribute__((weak, interrupt))
metal_lc11_interrupt_vector_handler(void) {
20403438:	711d                	addi	sp,sp,-96
2040343a:	ce86                	sw	ra,92(sp)
2040343c:	cc96                	sw	t0,88(sp)
2040343e:	ca9a                	sw	t1,84(sp)
20403440:	c89e                	sw	t2,80(sp)
20403442:	c6a2                	sw	s0,76(sp)
20403444:	c4aa                	sw	a0,72(sp)
20403446:	c2ae                	sw	a1,68(sp)
20403448:	c0b2                	sw	a2,64(sp)
2040344a:	de36                	sw	a3,60(sp)
2040344c:	dc3a                	sw	a4,56(sp)
2040344e:	da3e                	sw	a5,52(sp)
20403450:	d842                	sw	a6,48(sp)
20403452:	d646                	sw	a7,44(sp)
20403454:	d472                	sw	t3,40(sp)
20403456:	d276                	sw	t4,36(sp)
20403458:	d07a                	sw	t5,32(sp)
2040345a:	ce7e                	sw	t6,28(sp)
2040345c:	1080                	addi	s0,sp,96
/home/khj/Desktop/hello_standalone/freedom-metal/src/drivers/riscv_cpu.c:272
    __METAL_IRQ_VECTOR_HANDLER(METAL_INTERRUPT_ID_LC11);
2040345e:	beaff0ef          	jal	ra,20402848 <__metal_myhart_id>
20403462:	872a                	mv	a4,a0
20403464:	070a                	slli	a4,a4,0x2
20403466:	80c18793          	addi	a5,gp,-2036 # 800007ac <__metal_cpu_table>
2040346a:	97ba                	add	a5,a5,a4
2040346c:	439c                	lw	a5,0(a5)
2040346e:	faf42623          	sw	a5,-84(s0)
20403472:	fac42783          	lw	a5,-84(s0)
20403476:	c78d                	beqz	a5,204034a0 <metal_lc11_interrupt_vector_handler+0x68>
/home/khj/Desktop/hello_standalone/freedom-metal/src/drivers/riscv_cpu.c:272 (discriminator 1)
20403478:	fac42503          	lw	a0,-84(s0)
2040347c:	b52ff0ef          	jal	ra,204027ce <__metal_driver_cpu_interrupt_controller>
20403480:	faa42423          	sw	a0,-88(s0)
20403484:	fa842783          	lw	a5,-88(s0)
20403488:	3207a783          	lw	a5,800(a5)
2040348c:	faf42223          	sw	a5,-92(s0)
20403490:	fa842783          	lw	a5,-88(s0)
20403494:	3187a783          	lw	a5,792(a5)
20403498:	fa442583          	lw	a1,-92(s0)
2040349c:	456d                	li	a0,27
2040349e:	9782                	jalr	a5
/home/khj/Desktop/hello_standalone/freedom-metal/src/drivers/riscv_cpu.c:273
}
204034a0:	0001                	nop
204034a2:	40f6                	lw	ra,92(sp)
204034a4:	42e6                	lw	t0,88(sp)
204034a6:	4356                	lw	t1,84(sp)
204034a8:	43c6                	lw	t2,80(sp)
204034aa:	4436                	lw	s0,76(sp)
204034ac:	4526                	lw	a0,72(sp)
204034ae:	4596                	lw	a1,68(sp)
204034b0:	4606                	lw	a2,64(sp)
204034b2:	56f2                	lw	a3,60(sp)
204034b4:	5762                	lw	a4,56(sp)
204034b6:	57d2                	lw	a5,52(sp)
204034b8:	5842                	lw	a6,48(sp)
204034ba:	58b2                	lw	a7,44(sp)
204034bc:	5e22                	lw	t3,40(sp)
204034be:	5e92                	lw	t4,36(sp)
204034c0:	5f02                	lw	t5,32(sp)
204034c2:	4ff2                	lw	t6,28(sp)
204034c4:	6125                	addi	sp,sp,96
204034c6:	30200073          	mret

204034ca <metal_lc12_interrupt_vector_handler>:
metal_lc12_interrupt_vector_handler():
/home/khj/Desktop/hello_standalone/freedom-metal/src/drivers/riscv_cpu.c:277

/* The metal_lc12_interrupt_vector_handler() function can be redefined. */
void __attribute__((weak, interrupt))
metal_lc12_interrupt_vector_handler(void) {
204034ca:	711d                	addi	sp,sp,-96
204034cc:	ce86                	sw	ra,92(sp)
204034ce:	cc96                	sw	t0,88(sp)
204034d0:	ca9a                	sw	t1,84(sp)
204034d2:	c89e                	sw	t2,80(sp)
204034d4:	c6a2                	sw	s0,76(sp)
204034d6:	c4aa                	sw	a0,72(sp)
204034d8:	c2ae                	sw	a1,68(sp)
204034da:	c0b2                	sw	a2,64(sp)
204034dc:	de36                	sw	a3,60(sp)
204034de:	dc3a                	sw	a4,56(sp)
204034e0:	da3e                	sw	a5,52(sp)
204034e2:	d842                	sw	a6,48(sp)
204034e4:	d646                	sw	a7,44(sp)
204034e6:	d472                	sw	t3,40(sp)
204034e8:	d276                	sw	t4,36(sp)
204034ea:	d07a                	sw	t5,32(sp)
204034ec:	ce7e                	sw	t6,28(sp)
204034ee:	1080                	addi	s0,sp,96
/home/khj/Desktop/hello_standalone/freedom-metal/src/drivers/riscv_cpu.c:278
    __METAL_IRQ_VECTOR_HANDLER(METAL_INTERRUPT_ID_LC12);
204034f0:	b58ff0ef          	jal	ra,20402848 <__metal_myhart_id>
204034f4:	872a                	mv	a4,a0
204034f6:	070a                	slli	a4,a4,0x2
204034f8:	80c18793          	addi	a5,gp,-2036 # 800007ac <__metal_cpu_table>
204034fc:	97ba                	add	a5,a5,a4
204034fe:	439c                	lw	a5,0(a5)
20403500:	faf42623          	sw	a5,-84(s0)
20403504:	fac42783          	lw	a5,-84(s0)
20403508:	c78d                	beqz	a5,20403532 <metal_lc12_interrupt_vector_handler+0x68>
/home/khj/Desktop/hello_standalone/freedom-metal/src/drivers/riscv_cpu.c:278 (discriminator 1)
2040350a:	fac42503          	lw	a0,-84(s0)
2040350e:	ac0ff0ef          	jal	ra,204027ce <__metal_driver_cpu_interrupt_controller>
20403512:	faa42423          	sw	a0,-88(s0)
20403516:	fa842783          	lw	a5,-88(s0)
2040351a:	3387a783          	lw	a5,824(a5)
2040351e:	faf42223          	sw	a5,-92(s0)
20403522:	fa842783          	lw	a5,-88(s0)
20403526:	3307a783          	lw	a5,816(a5)
2040352a:	fa442583          	lw	a1,-92(s0)
2040352e:	4571                	li	a0,28
20403530:	9782                	jalr	a5
/home/khj/Desktop/hello_standalone/freedom-metal/src/drivers/riscv_cpu.c:279
}
20403532:	0001                	nop
20403534:	40f6                	lw	ra,92(sp)
20403536:	42e6                	lw	t0,88(sp)
20403538:	4356                	lw	t1,84(sp)
2040353a:	43c6                	lw	t2,80(sp)
2040353c:	4436                	lw	s0,76(sp)
2040353e:	4526                	lw	a0,72(sp)
20403540:	4596                	lw	a1,68(sp)
20403542:	4606                	lw	a2,64(sp)
20403544:	56f2                	lw	a3,60(sp)
20403546:	5762                	lw	a4,56(sp)
20403548:	57d2                	lw	a5,52(sp)
2040354a:	5842                	lw	a6,48(sp)
2040354c:	58b2                	lw	a7,44(sp)
2040354e:	5e22                	lw	t3,40(sp)
20403550:	5e92                	lw	t4,36(sp)
20403552:	5f02                	lw	t5,32(sp)
20403554:	4ff2                	lw	t6,28(sp)
20403556:	6125                	addi	sp,sp,96
20403558:	30200073          	mret

2040355c <metal_lc13_interrupt_vector_handler>:
metal_lc13_interrupt_vector_handler():
/home/khj/Desktop/hello_standalone/freedom-metal/src/drivers/riscv_cpu.c:283

/* The metal_lc13_interrupt_vector_handler() function can be redefined. */
void __attribute__((weak, interrupt))
metal_lc13_interrupt_vector_handler(void) {
2040355c:	711d                	addi	sp,sp,-96
2040355e:	ce86                	sw	ra,92(sp)
20403560:	cc96                	sw	t0,88(sp)
20403562:	ca9a                	sw	t1,84(sp)
20403564:	c89e                	sw	t2,80(sp)
20403566:	c6a2                	sw	s0,76(sp)
20403568:	c4aa                	sw	a0,72(sp)
2040356a:	c2ae                	sw	a1,68(sp)
2040356c:	c0b2                	sw	a2,64(sp)
2040356e:	de36                	sw	a3,60(sp)
20403570:	dc3a                	sw	a4,56(sp)
20403572:	da3e                	sw	a5,52(sp)
20403574:	d842                	sw	a6,48(sp)
20403576:	d646                	sw	a7,44(sp)
20403578:	d472                	sw	t3,40(sp)
2040357a:	d276                	sw	t4,36(sp)
2040357c:	d07a                	sw	t5,32(sp)
2040357e:	ce7e                	sw	t6,28(sp)
20403580:	1080                	addi	s0,sp,96
/home/khj/Desktop/hello_standalone/freedom-metal/src/drivers/riscv_cpu.c:284
    __METAL_IRQ_VECTOR_HANDLER(METAL_INTERRUPT_ID_LC13);
20403582:	ac6ff0ef          	jal	ra,20402848 <__metal_myhart_id>
20403586:	872a                	mv	a4,a0
20403588:	070a                	slli	a4,a4,0x2
2040358a:	80c18793          	addi	a5,gp,-2036 # 800007ac <__metal_cpu_table>
2040358e:	97ba                	add	a5,a5,a4
20403590:	439c                	lw	a5,0(a5)
20403592:	faf42623          	sw	a5,-84(s0)
20403596:	fac42783          	lw	a5,-84(s0)
2040359a:	c78d                	beqz	a5,204035c4 <metal_lc13_interrupt_vector_handler+0x68>
/home/khj/Desktop/hello_standalone/freedom-metal/src/drivers/riscv_cpu.c:284 (discriminator 1)
2040359c:	fac42503          	lw	a0,-84(s0)
204035a0:	a2eff0ef          	jal	ra,204027ce <__metal_driver_cpu_interrupt_controller>
204035a4:	faa42423          	sw	a0,-88(s0)
204035a8:	fa842783          	lw	a5,-88(s0)
204035ac:	3507a783          	lw	a5,848(a5)
204035b0:	faf42223          	sw	a5,-92(s0)
204035b4:	fa842783          	lw	a5,-88(s0)
204035b8:	3487a783          	lw	a5,840(a5)
204035bc:	fa442583          	lw	a1,-92(s0)
204035c0:	4575                	li	a0,29
204035c2:	9782                	jalr	a5
/home/khj/Desktop/hello_standalone/freedom-metal/src/drivers/riscv_cpu.c:285
}
204035c4:	0001                	nop
204035c6:	40f6                	lw	ra,92(sp)
204035c8:	42e6                	lw	t0,88(sp)
204035ca:	4356                	lw	t1,84(sp)
204035cc:	43c6                	lw	t2,80(sp)
204035ce:	4436                	lw	s0,76(sp)
204035d0:	4526                	lw	a0,72(sp)
204035d2:	4596                	lw	a1,68(sp)
204035d4:	4606                	lw	a2,64(sp)
204035d6:	56f2                	lw	a3,60(sp)
204035d8:	5762                	lw	a4,56(sp)
204035da:	57d2                	lw	a5,52(sp)
204035dc:	5842                	lw	a6,48(sp)
204035de:	58b2                	lw	a7,44(sp)
204035e0:	5e22                	lw	t3,40(sp)
204035e2:	5e92                	lw	t4,36(sp)
204035e4:	5f02                	lw	t5,32(sp)
204035e6:	4ff2                	lw	t6,28(sp)
204035e8:	6125                	addi	sp,sp,96
204035ea:	30200073          	mret

204035ee <metal_lc14_interrupt_vector_handler>:
metal_lc14_interrupt_vector_handler():
/home/khj/Desktop/hello_standalone/freedom-metal/src/drivers/riscv_cpu.c:289

/* The metal_lc14_interrupt_vector_handler() function can be redefined. */
void __attribute__((weak, interrupt))
metal_lc14_interrupt_vector_handler(void) {
204035ee:	711d                	addi	sp,sp,-96
204035f0:	ce86                	sw	ra,92(sp)
204035f2:	cc96                	sw	t0,88(sp)
204035f4:	ca9a                	sw	t1,84(sp)
204035f6:	c89e                	sw	t2,80(sp)
204035f8:	c6a2                	sw	s0,76(sp)
204035fa:	c4aa                	sw	a0,72(sp)
204035fc:	c2ae                	sw	a1,68(sp)
204035fe:	c0b2                	sw	a2,64(sp)
20403600:	de36                	sw	a3,60(sp)
20403602:	dc3a                	sw	a4,56(sp)
20403604:	da3e                	sw	a5,52(sp)
20403606:	d842                	sw	a6,48(sp)
20403608:	d646                	sw	a7,44(sp)
2040360a:	d472                	sw	t3,40(sp)
2040360c:	d276                	sw	t4,36(sp)
2040360e:	d07a                	sw	t5,32(sp)
20403610:	ce7e                	sw	t6,28(sp)
20403612:	1080                	addi	s0,sp,96
/home/khj/Desktop/hello_standalone/freedom-metal/src/drivers/riscv_cpu.c:290
    __METAL_IRQ_VECTOR_HANDLER(METAL_INTERRUPT_ID_LC14);
20403614:	a34ff0ef          	jal	ra,20402848 <__metal_myhart_id>
20403618:	872a                	mv	a4,a0
2040361a:	070a                	slli	a4,a4,0x2
2040361c:	80c18793          	addi	a5,gp,-2036 # 800007ac <__metal_cpu_table>
20403620:	97ba                	add	a5,a5,a4
20403622:	439c                	lw	a5,0(a5)
20403624:	faf42623          	sw	a5,-84(s0)
20403628:	fac42783          	lw	a5,-84(s0)
2040362c:	c78d                	beqz	a5,20403656 <metal_lc14_interrupt_vector_handler+0x68>
/home/khj/Desktop/hello_standalone/freedom-metal/src/drivers/riscv_cpu.c:290 (discriminator 1)
2040362e:	fac42503          	lw	a0,-84(s0)
20403632:	99cff0ef          	jal	ra,204027ce <__metal_driver_cpu_interrupt_controller>
20403636:	faa42423          	sw	a0,-88(s0)
2040363a:	fa842783          	lw	a5,-88(s0)
2040363e:	3687a783          	lw	a5,872(a5)
20403642:	faf42223          	sw	a5,-92(s0)
20403646:	fa842783          	lw	a5,-88(s0)
2040364a:	3607a783          	lw	a5,864(a5)
2040364e:	fa442583          	lw	a1,-92(s0)
20403652:	4579                	li	a0,30
20403654:	9782                	jalr	a5
/home/khj/Desktop/hello_standalone/freedom-metal/src/drivers/riscv_cpu.c:291
}
20403656:	0001                	nop
20403658:	40f6                	lw	ra,92(sp)
2040365a:	42e6                	lw	t0,88(sp)
2040365c:	4356                	lw	t1,84(sp)
2040365e:	43c6                	lw	t2,80(sp)
20403660:	4436                	lw	s0,76(sp)
20403662:	4526                	lw	a0,72(sp)
20403664:	4596                	lw	a1,68(sp)
20403666:	4606                	lw	a2,64(sp)
20403668:	56f2                	lw	a3,60(sp)
2040366a:	5762                	lw	a4,56(sp)
2040366c:	57d2                	lw	a5,52(sp)
2040366e:	5842                	lw	a6,48(sp)
20403670:	58b2                	lw	a7,44(sp)
20403672:	5e22                	lw	t3,40(sp)
20403674:	5e92                	lw	t4,36(sp)
20403676:	5f02                	lw	t5,32(sp)
20403678:	4ff2                	lw	t6,28(sp)
2040367a:	6125                	addi	sp,sp,96
2040367c:	30200073          	mret

20403680 <metal_lc15_interrupt_vector_handler>:
metal_lc15_interrupt_vector_handler():
/home/khj/Desktop/hello_standalone/freedom-metal/src/drivers/riscv_cpu.c:295

/* The metal_lc15_interrupt_vector_handler() function can be redefined. */
void __attribute__((weak, interrupt))
metal_lc15_interrupt_vector_handler(void) {
20403680:	711d                	addi	sp,sp,-96
20403682:	ce86                	sw	ra,92(sp)
20403684:	cc96                	sw	t0,88(sp)
20403686:	ca9a                	sw	t1,84(sp)
20403688:	c89e                	sw	t2,80(sp)
2040368a:	c6a2                	sw	s0,76(sp)
2040368c:	c4aa                	sw	a0,72(sp)
2040368e:	c2ae                	sw	a1,68(sp)
20403690:	c0b2                	sw	a2,64(sp)
20403692:	de36                	sw	a3,60(sp)
20403694:	dc3a                	sw	a4,56(sp)
20403696:	da3e                	sw	a5,52(sp)
20403698:	d842                	sw	a6,48(sp)
2040369a:	d646                	sw	a7,44(sp)
2040369c:	d472                	sw	t3,40(sp)
2040369e:	d276                	sw	t4,36(sp)
204036a0:	d07a                	sw	t5,32(sp)
204036a2:	ce7e                	sw	t6,28(sp)
204036a4:	1080                	addi	s0,sp,96
/home/khj/Desktop/hello_standalone/freedom-metal/src/drivers/riscv_cpu.c:296
    __METAL_IRQ_VECTOR_HANDLER(METAL_INTERRUPT_ID_LC15);
204036a6:	9a2ff0ef          	jal	ra,20402848 <__metal_myhart_id>
204036aa:	872a                	mv	a4,a0
204036ac:	070a                	slli	a4,a4,0x2
204036ae:	80c18793          	addi	a5,gp,-2036 # 800007ac <__metal_cpu_table>
204036b2:	97ba                	add	a5,a5,a4
204036b4:	439c                	lw	a5,0(a5)
204036b6:	faf42623          	sw	a5,-84(s0)
204036ba:	fac42783          	lw	a5,-84(s0)
204036be:	c78d                	beqz	a5,204036e8 <metal_lc15_interrupt_vector_handler+0x68>
/home/khj/Desktop/hello_standalone/freedom-metal/src/drivers/riscv_cpu.c:296 (discriminator 1)
204036c0:	fac42503          	lw	a0,-84(s0)
204036c4:	90aff0ef          	jal	ra,204027ce <__metal_driver_cpu_interrupt_controller>
204036c8:	faa42423          	sw	a0,-88(s0)
204036cc:	fa842783          	lw	a5,-88(s0)
204036d0:	3807a783          	lw	a5,896(a5)
204036d4:	faf42223          	sw	a5,-92(s0)
204036d8:	fa842783          	lw	a5,-88(s0)
204036dc:	3787a783          	lw	a5,888(a5)
204036e0:	fa442583          	lw	a1,-92(s0)
204036e4:	457d                	li	a0,31
204036e6:	9782                	jalr	a5
/home/khj/Desktop/hello_standalone/freedom-metal/src/drivers/riscv_cpu.c:297
}
204036e8:	0001                	nop
204036ea:	40f6                	lw	ra,92(sp)
204036ec:	42e6                	lw	t0,88(sp)
204036ee:	4356                	lw	t1,84(sp)
204036f0:	43c6                	lw	t2,80(sp)
204036f2:	4436                	lw	s0,76(sp)
204036f4:	4526                	lw	a0,72(sp)
204036f6:	4596                	lw	a1,68(sp)
204036f8:	4606                	lw	a2,64(sp)
204036fa:	56f2                	lw	a3,60(sp)
204036fc:	5762                	lw	a4,56(sp)
204036fe:	57d2                	lw	a5,52(sp)
20403700:	5842                	lw	a6,48(sp)
20403702:	58b2                	lw	a7,44(sp)
20403704:	5e22                	lw	t3,40(sp)
20403706:	5e92                	lw	t4,36(sp)
20403708:	5f02                	lw	t5,32(sp)
2040370a:	4ff2                	lw	t6,28(sp)
2040370c:	6125                	addi	sp,sp,96
2040370e:	30200073          	mret

20403712 <__metal_controller_interrupt_vector_mode>:
__metal_controller_interrupt_vector_mode():
/home/khj/Desktop/hello_standalone/freedom-metal/src/drivers/riscv_cpu.c:299

metal_vector_mode __metal_controller_interrupt_vector_mode(void) {
20403712:	1101                	addi	sp,sp,-32
20403714:	ce22                	sw	s0,28(sp)
20403716:	1000                	addi	s0,sp,32
/home/khj/Desktop/hello_standalone/freedom-metal/src/drivers/riscv_cpu.c:302
    uintptr_t val;

    __asm__ volatile("csrr %0, mtvec" : "=r"(val));
20403718:	305027f3          	csrr	a5,mtvec
2040371c:	fef42623          	sw	a5,-20(s0)
/home/khj/Desktop/hello_standalone/freedom-metal/src/drivers/riscv_cpu.c:303
    val &= METAL_MTVEC_MASK;
20403720:	fec42783          	lw	a5,-20(s0)
20403724:	03f7f793          	andi	a5,a5,63
20403728:	fef42623          	sw	a5,-20(s0)
/home/khj/Desktop/hello_standalone/freedom-metal/src/drivers/riscv_cpu.c:305

    switch (val) {
2040372c:	fec42703          	lw	a4,-20(s0)
20403730:	4789                	li	a5,2
20403732:	00f70d63          	beq	a4,a5,2040374c <__metal_controller_interrupt_vector_mode+0x3a>
20403736:	fec42703          	lw	a4,-20(s0)
2040373a:	478d                	li	a5,3
2040373c:	00f70a63          	beq	a4,a5,20403750 <__metal_controller_interrupt_vector_mode+0x3e>
20403740:	fec42703          	lw	a4,-20(s0)
20403744:	4785                	li	a5,1
20403746:	00f70763          	beq	a4,a5,20403754 <__metal_controller_interrupt_vector_mode+0x42>
2040374a:	a039                	j	20403758 <__metal_controller_interrupt_vector_mode+0x46>
/home/khj/Desktop/hello_standalone/freedom-metal/src/drivers/riscv_cpu.c:307
    case METAL_MTVEC_CLIC:
        return METAL_SELECTIVE_VECTOR_MODE;
2040374c:	478d                	li	a5,3
2040374e:	a031                	j	2040375a <__metal_controller_interrupt_vector_mode+0x48>
/home/khj/Desktop/hello_standalone/freedom-metal/src/drivers/riscv_cpu.c:309
    case METAL_MTVEC_CLIC_VECTORED:
        return METAL_HARDWARE_VECTOR_MODE;
20403750:	4791                	li	a5,4
20403752:	a021                	j	2040375a <__metal_controller_interrupt_vector_mode+0x48>
/home/khj/Desktop/hello_standalone/freedom-metal/src/drivers/riscv_cpu.c:311
    case METAL_MTVEC_VECTORED:
        return METAL_VECTOR_MODE;
20403754:	4785                	li	a5,1
20403756:	a011                	j	2040375a <__metal_controller_interrupt_vector_mode+0x48>
/home/khj/Desktop/hello_standalone/freedom-metal/src/drivers/riscv_cpu.c:313
    }
    return METAL_DIRECT_MODE;
20403758:	4781                	li	a5,0
/home/khj/Desktop/hello_standalone/freedom-metal/src/drivers/riscv_cpu.c:314
}
2040375a:	853e                	mv	a0,a5
2040375c:	4472                	lw	s0,28(sp)
2040375e:	6105                	addi	sp,sp,32
20403760:	8082                	ret

20403762 <__metal_controller_interrupt_vector>:
__metal_controller_interrupt_vector():
/home/khj/Desktop/hello_standalone/freedom-metal/src/drivers/riscv_cpu.c:317

void __metal_controller_interrupt_vector(metal_vector_mode mode,
                                         void *vec_table) {
20403762:	7179                	addi	sp,sp,-48
20403764:	d622                	sw	s0,44(sp)
20403766:	1800                	addi	s0,sp,48
20403768:	fca42e23          	sw	a0,-36(s0)
2040376c:	fcb42c23          	sw	a1,-40(s0)
/home/khj/Desktop/hello_standalone/freedom-metal/src/drivers/riscv_cpu.c:320
    uintptr_t trap_entry, val;

    __asm__ volatile("csrr %0, mtvec" : "=r"(val));
20403770:	305027f3          	csrr	a5,mtvec
20403774:	fef42623          	sw	a5,-20(s0)
/home/khj/Desktop/hello_standalone/freedom-metal/src/drivers/riscv_cpu.c:321
    val &= ~(METAL_MTVEC_CLIC_VECTORED | METAL_MTVEC_CLIC_RESERVED);
20403778:	fec42783          	lw	a5,-20(s0)
2040377c:	fc07f793          	andi	a5,a5,-64
20403780:	fef42623          	sw	a5,-20(s0)
/home/khj/Desktop/hello_standalone/freedom-metal/src/drivers/riscv_cpu.c:322
    trap_entry = (uintptr_t)vec_table;
20403784:	fd842783          	lw	a5,-40(s0)
20403788:	fef42423          	sw	a5,-24(s0)
/home/khj/Desktop/hello_standalone/freedom-metal/src/drivers/riscv_cpu.c:324

    switch (mode) {
2040378c:	fdc42703          	lw	a4,-36(s0)
20403790:	4791                	li	a5,4
20403792:	06e7e063          	bltu	a5,a4,204037f2 <__metal_controller_interrupt_vector+0x90>
20403796:	fdc42783          	lw	a5,-36(s0)
2040379a:	00279713          	slli	a4,a5,0x2
2040379e:	204007b7          	lui	a5,0x20400
204037a2:	45c78793          	addi	a5,a5,1116 # 2040045c <__metal_driver_vtable_riscv_clint0+0x64>
204037a6:	97ba                	add	a5,a5,a4
204037a8:	439c                	lw	a5,0(a5)
204037aa:	8782                	jr	a5
/home/khj/Desktop/hello_standalone/freedom-metal/src/drivers/riscv_cpu.c:327
    case METAL_SELECTIVE_NONVECTOR_MODE:
    case METAL_SELECTIVE_VECTOR_MODE:
        __asm__ volatile("csrw 0x307, %0" ::"r"(trap_entry));
204037ac:	fe842783          	lw	a5,-24(s0)
204037b0:	30779073          	csrw	mtvt,a5
/home/khj/Desktop/hello_standalone/freedom-metal/src/drivers/riscv_cpu.c:328
        __asm__ volatile("csrw mtvec, %0" ::"r"(val | METAL_MTVEC_CLIC));
204037b4:	fec42783          	lw	a5,-20(s0)
204037b8:	0027e793          	ori	a5,a5,2
204037bc:	30579073          	csrw	mtvec,a5
/home/khj/Desktop/hello_standalone/freedom-metal/src/drivers/riscv_cpu.c:329
        break;
204037c0:	a80d                	j	204037f2 <__metal_controller_interrupt_vector+0x90>
/home/khj/Desktop/hello_standalone/freedom-metal/src/drivers/riscv_cpu.c:331
    case METAL_HARDWARE_VECTOR_MODE:
        __asm__ volatile("csrw 0x307, %0" ::"r"(trap_entry));
204037c2:	fe842783          	lw	a5,-24(s0)
204037c6:	30779073          	csrw	mtvt,a5
/home/khj/Desktop/hello_standalone/freedom-metal/src/drivers/riscv_cpu.c:333
        __asm__ volatile(
            "csrw mtvec, %0" ::"r"(val | METAL_MTVEC_CLIC_VECTORED));
204037ca:	fec42783          	lw	a5,-20(s0)
204037ce:	0037e793          	ori	a5,a5,3
/home/khj/Desktop/hello_standalone/freedom-metal/src/drivers/riscv_cpu.c:332
        __asm__ volatile(
204037d2:	30579073          	csrw	mtvec,a5
/home/khj/Desktop/hello_standalone/freedom-metal/src/drivers/riscv_cpu.c:334
        break;
204037d6:	a831                	j	204037f2 <__metal_controller_interrupt_vector+0x90>
/home/khj/Desktop/hello_standalone/freedom-metal/src/drivers/riscv_cpu.c:337
    case METAL_VECTOR_MODE:
        __asm__ volatile(
            "csrw mtvec, %0" ::"r"(trap_entry | METAL_MTVEC_VECTORED));
204037d8:	fe842783          	lw	a5,-24(s0)
204037dc:	0017e793          	ori	a5,a5,1
/home/khj/Desktop/hello_standalone/freedom-metal/src/drivers/riscv_cpu.c:336
        __asm__ volatile(
204037e0:	30579073          	csrw	mtvec,a5
/home/khj/Desktop/hello_standalone/freedom-metal/src/drivers/riscv_cpu.c:338
        break;
204037e4:	a039                	j	204037f2 <__metal_controller_interrupt_vector+0x90>
/home/khj/Desktop/hello_standalone/freedom-metal/src/drivers/riscv_cpu.c:341
    case METAL_DIRECT_MODE:
        __asm__ volatile(
            "csrw mtvec, %0" ::"r"(trap_entry & ~METAL_MTVEC_CLIC_VECTORED));
204037e6:	fe842783          	lw	a5,-24(s0)
204037ea:	9bf1                	andi	a5,a5,-4
/home/khj/Desktop/hello_standalone/freedom-metal/src/drivers/riscv_cpu.c:340
        __asm__ volatile(
204037ec:	30579073          	csrw	mtvec,a5
/home/khj/Desktop/hello_standalone/freedom-metal/src/drivers/riscv_cpu.c:342
        break;
204037f0:	0001                	nop
/home/khj/Desktop/hello_standalone/freedom-metal/src/drivers/riscv_cpu.c:344
    }
}
204037f2:	0001                	nop
204037f4:	5432                	lw	s0,44(sp)
204037f6:	6145                	addi	sp,sp,48
204037f8:	8082                	ret

204037fa <__metal_valid_interrupt_id>:
__metal_valid_interrupt_id():
/home/khj/Desktop/hello_standalone/freedom-metal/src/drivers/riscv_cpu.c:346

int __metal_valid_interrupt_id(int id) {
204037fa:	1101                	addi	sp,sp,-32
204037fc:	ce22                	sw	s0,28(sp)
204037fe:	1000                	addi	s0,sp,32
20403800:	fea42623          	sw	a0,-20(s0)
/home/khj/Desktop/hello_standalone/freedom-metal/src/drivers/riscv_cpu.c:347
    switch (id) {
20403804:	fec42703          	lw	a4,-20(s0)
20403808:	47ad                	li	a5,11
2040380a:	04f70263          	beq	a4,a5,2040384e <__metal_valid_interrupt_id+0x54>
2040380e:	fec42703          	lw	a4,-20(s0)
20403812:	47ad                	li	a5,11
20403814:	00e7cd63          	blt	a5,a4,2040382e <__metal_valid_interrupt_id+0x34>
20403818:	fec42703          	lw	a4,-20(s0)
2040381c:	478d                	li	a5,3
2040381e:	02f70863          	beq	a4,a5,2040384e <__metal_valid_interrupt_id+0x54>
20403822:	fec42703          	lw	a4,-20(s0)
20403826:	479d                	li	a5,7
20403828:	02f70363          	beq	a4,a5,2040384e <__metal_valid_interrupt_id+0x54>
/home/khj/Desktop/hello_standalone/freedom-metal/src/drivers/riscv_cpu.c:370
    case METAL_INTERRUPT_ID_LC14:
    case METAL_INTERRUPT_ID_LC15:
    case METAL_INTERRUPT_ID_BEU:
        return 1;
    default:
        break;
2040382c:	a01d                	j	20403852 <__metal_valid_interrupt_id+0x58>
/home/khj/Desktop/hello_standalone/freedom-metal/src/drivers/riscv_cpu.c:347
    switch (id) {
2040382e:	fec42703          	lw	a4,-20(s0)
20403832:	47c1                	li	a5,16
20403834:	00f74f63          	blt	a4,a5,20403852 <__metal_valid_interrupt_id+0x58>
20403838:	fec42703          	lw	a4,-20(s0)
2040383c:	47fd                	li	a5,31
2040383e:	00e7d863          	bge	a5,a4,2040384e <__metal_valid_interrupt_id+0x54>
20403842:	fec42703          	lw	a4,-20(s0)
20403846:	08000793          	li	a5,128
2040384a:	00f71463          	bne	a4,a5,20403852 <__metal_valid_interrupt_id+0x58>
/home/khj/Desktop/hello_standalone/freedom-metal/src/drivers/riscv_cpu.c:368
        return 1;
2040384e:	4785                	li	a5,1
20403850:	a019                	j	20403856 <__metal_valid_interrupt_id+0x5c>
/home/khj/Desktop/hello_standalone/freedom-metal/src/drivers/riscv_cpu.c:370
        break;
20403852:	0001                	nop
/home/khj/Desktop/hello_standalone/freedom-metal/src/drivers/riscv_cpu.c:373
    }

    return 0;
20403854:	4781                	li	a5,0
/home/khj/Desktop/hello_standalone/freedom-metal/src/drivers/riscv_cpu.c:374
}
20403856:	853e                	mv	a0,a5
20403858:	4472                	lw	s0,28(sp)
2040385a:	6105                	addi	sp,sp,32
2040385c:	8082                	ret

2040385e <__metal_local_interrupt_enable>:
__metal_local_interrupt_enable():
/home/khj/Desktop/hello_standalone/freedom-metal/src/drivers/riscv_cpu.c:377

int __metal_local_interrupt_enable(struct metal_interrupt *controller,
                                   metal_interrupt_id_e id, int enable) {
2040385e:	7179                	addi	sp,sp,-48
20403860:	d606                	sw	ra,44(sp)
20403862:	d422                	sw	s0,40(sp)
20403864:	1800                	addi	s0,sp,48
20403866:	fca42e23          	sw	a0,-36(s0)
2040386a:	fcb42c23          	sw	a1,-40(s0)
2040386e:	fcc42a23          	sw	a2,-44(s0)
/home/khj/Desktop/hello_standalone/freedom-metal/src/drivers/riscv_cpu.c:378
    int rc = 0;
20403872:	fe042623          	sw	zero,-20(s0)
/home/khj/Desktop/hello_standalone/freedom-metal/src/drivers/riscv_cpu.c:380

    if (!controller) {
20403876:	fdc42783          	lw	a5,-36(s0)
2040387a:	e399                	bnez	a5,20403880 <__metal_local_interrupt_enable+0x22>
/home/khj/Desktop/hello_standalone/freedom-metal/src/drivers/riscv_cpu.c:381
        return -1;
2040387c:	57fd                	li	a5,-1
2040387e:	a849                	j	20403910 <__metal_local_interrupt_enable+0xb2>
/home/khj/Desktop/hello_standalone/freedom-metal/src/drivers/riscv_cpu.c:384
    }

    switch (id) {
20403880:	fd842703          	lw	a4,-40(s0)
20403884:	47fd                	li	a5,31
20403886:	08e7e063          	bltu	a5,a4,20403906 <__metal_local_interrupt_enable+0xa8>
2040388a:	fd842783          	lw	a5,-40(s0)
2040388e:	00279713          	slli	a4,a5,0x2
20403892:	204007b7          	lui	a5,0x20400
20403896:	47078793          	addi	a5,a5,1136 # 20400470 <__metal_driver_vtable_riscv_clint0+0x78>
2040389a:	97ba                	add	a5,a5,a4
2040389c:	439c                	lw	a5,0(a5)
2040389e:	8782                	jr	a5
/home/khj/Desktop/hello_standalone/freedom-metal/src/drivers/riscv_cpu.c:386
    case METAL_INTERRUPT_ID_BASE:
        if (enable) {
204038a0:	fd442783          	lw	a5,-44(s0)
204038a4:	c781                	beqz	a5,204038ac <__metal_local_interrupt_enable+0x4e>
/home/khj/Desktop/hello_standalone/freedom-metal/src/drivers/riscv_cpu.c:387
            __metal_interrupt_global_enable();
204038a6:	fbdfe0ef          	jal	ra,20402862 <__metal_interrupt_global_enable>
/home/khj/Desktop/hello_standalone/freedom-metal/src/drivers/riscv_cpu.c:391
        } else {
            __metal_interrupt_global_disable();
        }
        break;
204038aa:	a08d                	j	2040390c <__metal_local_interrupt_enable+0xae>
/home/khj/Desktop/hello_standalone/freedom-metal/src/drivers/riscv_cpu.c:389
            __metal_interrupt_global_disable();
204038ac:	fcffe0ef          	jal	ra,2040287a <__metal_interrupt_global_disable>
/home/khj/Desktop/hello_standalone/freedom-metal/src/drivers/riscv_cpu.c:391
        break;
204038b0:	a8b1                	j	2040390c <__metal_local_interrupt_enable+0xae>
/home/khj/Desktop/hello_standalone/freedom-metal/src/drivers/riscv_cpu.c:393
    case METAL_INTERRUPT_ID_SW:
        if (enable) {
204038b2:	fd442783          	lw	a5,-44(s0)
204038b6:	c781                	beqz	a5,204038be <__metal_local_interrupt_enable+0x60>
/home/khj/Desktop/hello_standalone/freedom-metal/src/drivers/riscv_cpu.c:394
            __metal_interrupt_software_enable();
204038b8:	fdbfe0ef          	jal	ra,20402892 <__metal_interrupt_software_enable>
/home/khj/Desktop/hello_standalone/freedom-metal/src/drivers/riscv_cpu.c:398
        } else {
            __metal_interrupt_software_disable();
        }
        break;
204038bc:	a881                	j	2040390c <__metal_local_interrupt_enable+0xae>
/home/khj/Desktop/hello_standalone/freedom-metal/src/drivers/riscv_cpu.c:396
            __metal_interrupt_software_disable();
204038be:	fedfe0ef          	jal	ra,204028aa <__metal_interrupt_software_disable>
/home/khj/Desktop/hello_standalone/freedom-metal/src/drivers/riscv_cpu.c:398
        break;
204038c2:	a0a9                	j	2040390c <__metal_local_interrupt_enable+0xae>
/home/khj/Desktop/hello_standalone/freedom-metal/src/drivers/riscv_cpu.c:400
    case METAL_INTERRUPT_ID_TMR:
        if (enable) {
204038c4:	fd442783          	lw	a5,-44(s0)
204038c8:	c781                	beqz	a5,204038d0 <__metal_local_interrupt_enable+0x72>
/home/khj/Desktop/hello_standalone/freedom-metal/src/drivers/riscv_cpu.c:401
            __metal_interrupt_timer_enable();
204038ca:	ff9fe0ef          	jal	ra,204028c2 <__metal_interrupt_timer_enable>
/home/khj/Desktop/hello_standalone/freedom-metal/src/drivers/riscv_cpu.c:405
        } else {
            __metal_interrupt_timer_disable();
        }
        break;
204038ce:	a83d                	j	2040390c <__metal_local_interrupt_enable+0xae>
/home/khj/Desktop/hello_standalone/freedom-metal/src/drivers/riscv_cpu.c:403
            __metal_interrupt_timer_disable();
204038d0:	80cff0ef          	jal	ra,204028dc <__metal_interrupt_timer_disable>
/home/khj/Desktop/hello_standalone/freedom-metal/src/drivers/riscv_cpu.c:405
        break;
204038d4:	a825                	j	2040390c <__metal_local_interrupt_enable+0xae>
/home/khj/Desktop/hello_standalone/freedom-metal/src/drivers/riscv_cpu.c:407
    case METAL_INTERRUPT_ID_EXT:
        if (enable) {
204038d6:	fd442783          	lw	a5,-44(s0)
204038da:	c781                	beqz	a5,204038e2 <__metal_local_interrupt_enable+0x84>
/home/khj/Desktop/hello_standalone/freedom-metal/src/drivers/riscv_cpu.c:408
            __metal_interrupt_external_enable();
204038dc:	81aff0ef          	jal	ra,204028f6 <__metal_interrupt_external_enable>
/home/khj/Desktop/hello_standalone/freedom-metal/src/drivers/riscv_cpu.c:412
        } else {
            __metal_interrupt_external_disable();
        }
        break;
204038e0:	a035                	j	2040390c <__metal_local_interrupt_enable+0xae>
/home/khj/Desktop/hello_standalone/freedom-metal/src/drivers/riscv_cpu.c:410
            __metal_interrupt_external_disable();
204038e2:	830ff0ef          	jal	ra,20402912 <__metal_interrupt_external_disable>
/home/khj/Desktop/hello_standalone/freedom-metal/src/drivers/riscv_cpu.c:412
        break;
204038e6:	a01d                	j	2040390c <__metal_local_interrupt_enable+0xae>
/home/khj/Desktop/hello_standalone/freedom-metal/src/drivers/riscv_cpu.c:429
    case METAL_INTERRUPT_ID_LC11:
    case METAL_INTERRUPT_ID_LC12:
    case METAL_INTERRUPT_ID_LC13:
    case METAL_INTERRUPT_ID_LC14:
    case METAL_INTERRUPT_ID_LC15:
        if (enable) {
204038e8:	fd442783          	lw	a5,-44(s0)
204038ec:	c799                	beqz	a5,204038fa <__metal_local_interrupt_enable+0x9c>
/home/khj/Desktop/hello_standalone/freedom-metal/src/drivers/riscv_cpu.c:430
            __metal_interrupt_local_enable(id);
204038ee:	fd842783          	lw	a5,-40(s0)
204038f2:	853e                	mv	a0,a5
204038f4:	83aff0ef          	jal	ra,2040292e <__metal_interrupt_local_enable>
/home/khj/Desktop/hello_standalone/freedom-metal/src/drivers/riscv_cpu.c:434
        } else {
            __metal_interrupt_local_disable(id);
        }
        break;
204038f8:	a811                	j	2040390c <__metal_local_interrupt_enable+0xae>
/home/khj/Desktop/hello_standalone/freedom-metal/src/drivers/riscv_cpu.c:432
            __metal_interrupt_local_disable(id);
204038fa:	fd842783          	lw	a5,-40(s0)
204038fe:	853e                	mv	a0,a5
20403900:	85aff0ef          	jal	ra,2040295a <__metal_interrupt_local_disable>
/home/khj/Desktop/hello_standalone/freedom-metal/src/drivers/riscv_cpu.c:434
        break;
20403904:	a021                	j	2040390c <__metal_local_interrupt_enable+0xae>
/home/khj/Desktop/hello_standalone/freedom-metal/src/drivers/riscv_cpu.c:436
    default:
        rc = -1;
20403906:	57fd                	li	a5,-1
20403908:	fef42623          	sw	a5,-20(s0)
/home/khj/Desktop/hello_standalone/freedom-metal/src/drivers/riscv_cpu.c:438
    }
    return rc;
2040390c:	fec42783          	lw	a5,-20(s0)
/home/khj/Desktop/hello_standalone/freedom-metal/src/drivers/riscv_cpu.c:439
}
20403910:	853e                	mv	a0,a5
20403912:	50b2                	lw	ra,44(sp)
20403914:	5422                	lw	s0,40(sp)
20403916:	6145                	addi	sp,sp,48
20403918:	8082                	ret

2040391a <__metal_exception_register>:
__metal_exception_register():
/home/khj/Desktop/hello_standalone/freedom-metal/src/drivers/riscv_cpu.c:442

int __metal_exception_register(struct metal_interrupt *controller, int ecode,
                               metal_exception_handler_t isr) {
2040391a:	7179                	addi	sp,sp,-48
2040391c:	d622                	sw	s0,44(sp)
2040391e:	1800                	addi	s0,sp,48
20403920:	fca42e23          	sw	a0,-36(s0)
20403924:	fcb42c23          	sw	a1,-40(s0)
20403928:	fcc42a23          	sw	a2,-44(s0)
/home/khj/Desktop/hello_standalone/freedom-metal/src/drivers/riscv_cpu.c:443
    struct __metal_driver_riscv_cpu_intc *intc = (void *)(controller);
2040392c:	fdc42783          	lw	a5,-36(s0)
20403930:	fef42623          	sw	a5,-20(s0)
/home/khj/Desktop/hello_standalone/freedom-metal/src/drivers/riscv_cpu.c:445

    if ((ecode < METAL_MAX_EXCEPTION_CODE) && isr) {
20403934:	fd842703          	lw	a4,-40(s0)
20403938:	47ad                	li	a5,11
2040393a:	02e7c263          	blt	a5,a4,2040395e <__metal_exception_register+0x44>
/home/khj/Desktop/hello_standalone/freedom-metal/src/drivers/riscv_cpu.c:445 (discriminator 1)
2040393e:	fd442783          	lw	a5,-44(s0)
20403942:	cf91                	beqz	a5,2040395e <__metal_exception_register+0x44>
/home/khj/Desktop/hello_standalone/freedom-metal/src/drivers/riscv_cpu.c:446
        intc->metal_exception_table[ecode] = isr;
20403944:	fec42703          	lw	a4,-20(s0)
20403948:	fd842783          	lw	a5,-40(s0)
2040394c:	0e878793          	addi	a5,a5,232
20403950:	078a                	slli	a5,a5,0x2
20403952:	97ba                	add	a5,a5,a4
20403954:	fd442703          	lw	a4,-44(s0)
20403958:	c398                	sw	a4,0(a5)
/home/khj/Desktop/hello_standalone/freedom-metal/src/drivers/riscv_cpu.c:447
        return 0;
2040395a:	4781                	li	a5,0
2040395c:	a011                	j	20403960 <__metal_exception_register+0x46>
/home/khj/Desktop/hello_standalone/freedom-metal/src/drivers/riscv_cpu.c:449
    }
    return -1;
2040395e:	57fd                	li	a5,-1
/home/khj/Desktop/hello_standalone/freedom-metal/src/drivers/riscv_cpu.c:450
}
20403960:	853e                	mv	a0,a5
20403962:	5432                	lw	s0,44(sp)
20403964:	6145                	addi	sp,sp,48
20403966:	8082                	ret

20403968 <__metal_driver_riscv_cpu_controller_interrupt_init>:
__metal_driver_riscv_cpu_controller_interrupt_init():
/home/khj/Desktop/hello_standalone/freedom-metal/src/drivers/riscv_cpu.c:454

extern void early_trap_vector(void);
void __metal_driver_riscv_cpu_controller_interrupt_init(
    struct metal_interrupt *controller) {
20403968:	7179                	addi	sp,sp,-48
2040396a:	d606                	sw	ra,44(sp)
2040396c:	d422                	sw	s0,40(sp)
2040396e:	1800                	addi	s0,sp,48
20403970:	fca42e23          	sw	a0,-36(s0)
/home/khj/Desktop/hello_standalone/freedom-metal/src/drivers/riscv_cpu.c:455
    struct __metal_driver_riscv_cpu_intc *intc = (void *)(controller);
20403974:	fdc42783          	lw	a5,-36(s0)
20403978:	fef42223          	sw	a5,-28(s0)
/home/khj/Desktop/hello_standalone/freedom-metal/src/drivers/riscv_cpu.c:457

    if (!intc->init_done) {
2040397c:	fe442783          	lw	a5,-28(s0)
20403980:	43dc                	lw	a5,4(a5)
20403982:	efdd                	bnez	a5,20403a40 <__metal_driver_riscv_cpu_controller_interrupt_init+0xd8>
/home/khj/Desktop/hello_standalone/freedom-metal/src/drivers/riscv_cpu.c:459
        /* Default to use direct interrupt, setup sw cb table*/
        for (int i = 0; i < METAL_MAX_MI; i++) {
20403984:	fe042623          	sw	zero,-20(s0)
20403988:	a0b9                	j	204039d6 <__metal_driver_riscv_cpu_controller_interrupt_init+0x6e>
/home/khj/Desktop/hello_standalone/freedom-metal/src/drivers/riscv_cpu.c:460 (discriminator 3)
            intc->metal_int_table[i].handler = NULL;
2040398a:	fe442683          	lw	a3,-28(s0)
2040398e:	fec42703          	lw	a4,-20(s0)
20403992:	87ba                	mv	a5,a4
20403994:	0786                	slli	a5,a5,0x1
20403996:	97ba                	add	a5,a5,a4
20403998:	078e                	slli	a5,a5,0x3
2040399a:	97b6                	add	a5,a5,a3
2040399c:	0807a823          	sw	zero,144(a5)
/home/khj/Desktop/hello_standalone/freedom-metal/src/drivers/riscv_cpu.c:461 (discriminator 3)
            intc->metal_int_table[i].sub_int = NULL;
204039a0:	fe442683          	lw	a3,-28(s0)
204039a4:	fec42703          	lw	a4,-20(s0)
204039a8:	87ba                	mv	a5,a4
204039aa:	0786                	slli	a5,a5,0x1
204039ac:	97ba                	add	a5,a5,a4
204039ae:	078e                	slli	a5,a5,0x3
204039b0:	97b6                	add	a5,a5,a3
204039b2:	0807aa23          	sw	zero,148(a5)
/home/khj/Desktop/hello_standalone/freedom-metal/src/drivers/riscv_cpu.c:462 (discriminator 3)
            intc->metal_int_table[i].exint_data = NULL;
204039b6:	fe442683          	lw	a3,-28(s0)
204039ba:	fec42703          	lw	a4,-20(s0)
204039be:	87ba                	mv	a5,a4
204039c0:	0786                	slli	a5,a5,0x1
204039c2:	97ba                	add	a5,a5,a4
204039c4:	078e                	slli	a5,a5,0x3
204039c6:	97b6                	add	a5,a5,a3
204039c8:	0807ac23          	sw	zero,152(a5)
/home/khj/Desktop/hello_standalone/freedom-metal/src/drivers/riscv_cpu.c:459 (discriminator 3)
        for (int i = 0; i < METAL_MAX_MI; i++) {
204039cc:	fec42783          	lw	a5,-20(s0)
204039d0:	0785                	addi	a5,a5,1
204039d2:	fef42623          	sw	a5,-20(s0)
/home/khj/Desktop/hello_standalone/freedom-metal/src/drivers/riscv_cpu.c:459 (discriminator 1)
204039d6:	fec42703          	lw	a4,-20(s0)
204039da:	47fd                	li	a5,31
204039dc:	fae7d7e3          	bge	a5,a4,2040398a <__metal_driver_riscv_cpu_controller_interrupt_init+0x22>
/home/khj/Desktop/hello_standalone/freedom-metal/src/drivers/riscv_cpu.c:465
        }

        for (int i = 0; i < METAL_MAX_ME; i++) {
204039e0:	fe042423          	sw	zero,-24(s0)
204039e4:	a01d                	j	20403a0a <__metal_driver_riscv_cpu_controller_interrupt_init+0xa2>
/home/khj/Desktop/hello_standalone/freedom-metal/src/drivers/riscv_cpu.c:466 (discriminator 3)
            intc->metal_exception_table[i] = __metal_default_exception_handler;
204039e6:	fe442703          	lw	a4,-28(s0)
204039ea:	fe842783          	lw	a5,-24(s0)
204039ee:	0e878793          	addi	a5,a5,232
204039f2:	078a                	slli	a5,a5,0x2
204039f4:	97ba                	add	a5,a5,a4
204039f6:	20403737          	lui	a4,0x20403
204039fa:	98670713          	addi	a4,a4,-1658 # 20402986 <__metal_default_exception_handler>
204039fe:	c398                	sw	a4,0(a5)
/home/khj/Desktop/hello_standalone/freedom-metal/src/drivers/riscv_cpu.c:465 (discriminator 3)
        for (int i = 0; i < METAL_MAX_ME; i++) {
20403a00:	fe842783          	lw	a5,-24(s0)
20403a04:	0785                	addi	a5,a5,1
20403a06:	fef42423          	sw	a5,-24(s0)
/home/khj/Desktop/hello_standalone/freedom-metal/src/drivers/riscv_cpu.c:465 (discriminator 1)
20403a0a:	fe842703          	lw	a4,-24(s0)
20403a0e:	47ad                	li	a5,11
20403a10:	fce7dbe3          	bge	a5,a4,204039e6 <__metal_driver_riscv_cpu_controller_interrupt_init+0x7e>
/home/khj/Desktop/hello_standalone/freedom-metal/src/drivers/riscv_cpu.c:475
         * Set the real trap handler if the value of mtvec is equal to
         * early_trap_vector. If mtvec is not equal to early_trap_vector,
         * that means user has own trap handler, then we don't overwrite it.
         */
        uintptr_t mtvec;
        __asm__ volatile("csrr %0, mtvec" : "=r"(mtvec));
20403a14:	305027f3          	csrr	a5,mtvec
20403a18:	fef42023          	sw	a5,-32(s0)
/home/khj/Desktop/hello_standalone/freedom-metal/src/drivers/riscv_cpu.c:476
        if (mtvec == (uintptr_t)&early_trap_vector) {
20403a1c:	204007b7          	lui	a5,0x20400
20403a20:	17878793          	addi	a5,a5,376 # 20400178 <early_trap_vector>
20403a24:	fe042703          	lw	a4,-32(s0)
20403a28:	00f71863          	bne	a4,a5,20403a38 <__metal_driver_riscv_cpu_controller_interrupt_init+0xd0>
/home/khj/Desktop/hello_standalone/freedom-metal/src/drivers/riscv_cpu.c:477
            __metal_controller_interrupt_vector(
20403a2c:	204037b7          	lui	a5,0x20403
20403a30:	c0078593          	addi	a1,a5,-1024 # 20402c00 <__metal_exception_handler>
20403a34:	4501                	li	a0,0
20403a36:	3335                	jal	20403762 <__metal_controller_interrupt_vector>
/home/khj/Desktop/hello_standalone/freedom-metal/src/drivers/riscv_cpu.c:481
                METAL_DIRECT_MODE,
                (void *)(uintptr_t)&__metal_exception_handler);
        }
        intc->init_done = 1;
20403a38:	fe442783          	lw	a5,-28(s0)
20403a3c:	4705                	li	a4,1
20403a3e:	c3d8                	sw	a4,4(a5)
/home/khj/Desktop/hello_standalone/freedom-metal/src/drivers/riscv_cpu.c:483
    }
}
20403a40:	0001                	nop
20403a42:	50b2                	lw	ra,44(sp)
20403a44:	5422                	lw	s0,40(sp)
20403a46:	6145                	addi	sp,sp,48
20403a48:	8082                	ret

20403a4a <__metal_driver_riscv_cpu_controller_interrupt_register>:
__metal_driver_riscv_cpu_controller_interrupt_register():
/home/khj/Desktop/hello_standalone/freedom-metal/src/drivers/riscv_cpu.c:487

int __metal_driver_riscv_cpu_controller_interrupt_register(
    struct metal_interrupt *controller, int id, metal_interrupt_handler_t isr,
    void *priv) {
20403a4a:	7179                	addi	sp,sp,-48
20403a4c:	d606                	sw	ra,44(sp)
20403a4e:	d422                	sw	s0,40(sp)
20403a50:	1800                	addi	s0,sp,48
20403a52:	fca42e23          	sw	a0,-36(s0)
20403a56:	fcb42c23          	sw	a1,-40(s0)
20403a5a:	fcc42a23          	sw	a2,-44(s0)
20403a5e:	fcd42823          	sw	a3,-48(s0)
/home/khj/Desktop/hello_standalone/freedom-metal/src/drivers/riscv_cpu.c:488
    int rc = 0;
20403a62:	fe042623          	sw	zero,-20(s0)
/home/khj/Desktop/hello_standalone/freedom-metal/src/drivers/riscv_cpu.c:489
    struct __metal_driver_riscv_cpu_intc *intc = (void *)(controller);
20403a66:	fdc42783          	lw	a5,-36(s0)
20403a6a:	fef42423          	sw	a5,-24(s0)
/home/khj/Desktop/hello_standalone/freedom-metal/src/drivers/riscv_cpu.c:491

    if (!__metal_valid_interrupt_id(id)) {
20403a6e:	fd842503          	lw	a0,-40(s0)
20403a72:	3361                	jal	204037fa <__metal_valid_interrupt_id>
20403a74:	87aa                	mv	a5,a0
20403a76:	e399                	bnez	a5,20403a7c <__metal_driver_riscv_cpu_controller_interrupt_register+0x32>
/home/khj/Desktop/hello_standalone/freedom-metal/src/drivers/riscv_cpu.c:492
        return -11;
20403a78:	57d5                	li	a5,-11
20403a7a:	aa71                	j	20403c16 <__metal_driver_riscv_cpu_controller_interrupt_register+0x1cc>
/home/khj/Desktop/hello_standalone/freedom-metal/src/drivers/riscv_cpu.c:494
    }
    if ((id == METAL_INTERRUPT_ID_BEU) &&
20403a7c:	fd842703          	lw	a4,-40(s0)
20403a80:	08000793          	li	a5,128
20403a84:	00f71763          	bne	a4,a5,20403a92 <__metal_driver_riscv_cpu_controller_interrupt_register+0x48>
/home/khj/Desktop/hello_standalone/freedom-metal/src/drivers/riscv_cpu.c:495 (discriminator 1)
        (__metal_controller_interrupt_vector_mode() != METAL_DIRECT_MODE)) {
20403a88:	3169                	jal	20403712 <__metal_controller_interrupt_vector_mode>
20403a8a:	87aa                	mv	a5,a0
/home/khj/Desktop/hello_standalone/freedom-metal/src/drivers/riscv_cpu.c:494 (discriminator 1)
    if ((id == METAL_INTERRUPT_ID_BEU) &&
20403a8c:	c399                	beqz	a5,20403a92 <__metal_driver_riscv_cpu_controller_interrupt_register+0x48>
/home/khj/Desktop/hello_standalone/freedom-metal/src/drivers/riscv_cpu.c:498
        /* Only allow registration of the bus error unit interrupt if
         * interrupt vectoring if off */
        return -13;
20403a8e:	57cd                	li	a5,-13
20403a90:	a259                	j	20403c16 <__metal_driver_riscv_cpu_controller_interrupt_register+0x1cc>
/home/khj/Desktop/hello_standalone/freedom-metal/src/drivers/riscv_cpu.c:501
    }

    if (isr) {
20403a92:	fd442783          	lw	a5,-44(s0)
20403a96:	cfb9                	beqz	a5,20403af4 <__metal_driver_riscv_cpu_controller_interrupt_register+0xaa>
/home/khj/Desktop/hello_standalone/freedom-metal/src/drivers/riscv_cpu.c:502
        if (id == METAL_INTERRUPT_ID_BEU) {
20403a98:	fd842703          	lw	a4,-40(s0)
20403a9c:	08000793          	li	a5,128
20403aa0:	00f71f63          	bne	a4,a5,20403abe <__metal_driver_riscv_cpu_controller_interrupt_register+0x74>
/home/khj/Desktop/hello_standalone/freedom-metal/src/drivers/riscv_cpu.c:503
            intc->metal_int_beu.handler = isr;
20403aa4:	fe842783          	lw	a5,-24(s0)
20403aa8:	fd442703          	lw	a4,-44(s0)
20403aac:	38e7a823          	sw	a4,912(a5)
/home/khj/Desktop/hello_standalone/freedom-metal/src/drivers/riscv_cpu.c:504
            intc->metal_int_beu.exint_data = priv;
20403ab0:	fe842783          	lw	a5,-24(s0)
20403ab4:	fd042703          	lw	a4,-48(s0)
20403ab8:	38e7ac23          	sw	a4,920(a5)
20403abc:	aa99                	j	20403c12 <__metal_driver_riscv_cpu_controller_interrupt_register+0x1c8>
/home/khj/Desktop/hello_standalone/freedom-metal/src/drivers/riscv_cpu.c:506
        } else {
            intc->metal_int_table[id].handler = isr;
20403abe:	fe842683          	lw	a3,-24(s0)
20403ac2:	fd842703          	lw	a4,-40(s0)
20403ac6:	87ba                	mv	a5,a4
20403ac8:	0786                	slli	a5,a5,0x1
20403aca:	97ba                	add	a5,a5,a4
20403acc:	078e                	slli	a5,a5,0x3
20403ace:	97b6                	add	a5,a5,a3
20403ad0:	fd442703          	lw	a4,-44(s0)
20403ad4:	08e7a823          	sw	a4,144(a5)
/home/khj/Desktop/hello_standalone/freedom-metal/src/drivers/riscv_cpu.c:507
            intc->metal_int_table[id].exint_data = priv;
20403ad8:	fe842683          	lw	a3,-24(s0)
20403adc:	fd842703          	lw	a4,-40(s0)
20403ae0:	87ba                	mv	a5,a4
20403ae2:	0786                	slli	a5,a5,0x1
20403ae4:	97ba                	add	a5,a5,a4
20403ae6:	078e                	slli	a5,a5,0x3
20403ae8:	97b6                	add	a5,a5,a3
20403aea:	fd042703          	lw	a4,-48(s0)
20403aee:	08e7ac23          	sw	a4,152(a5)
20403af2:	a205                	j	20403c12 <__metal_driver_riscv_cpu_controller_interrupt_register+0x1c8>
/home/khj/Desktop/hello_standalone/freedom-metal/src/drivers/riscv_cpu.c:510
        }
    } else {
        switch (id) {
20403af4:	fd842703          	lw	a4,-40(s0)
20403af8:	47ad                	li	a5,11
20403afa:	0cf70c63          	beq	a4,a5,20403bd2 <__metal_driver_riscv_cpu_controller_interrupt_register+0x188>
20403afe:	fd842703          	lw	a4,-40(s0)
20403b02:	47ad                	li	a5,11
20403b04:	00e7cd63          	blt	a5,a4,20403b1e <__metal_driver_riscv_cpu_controller_interrupt_register+0xd4>
20403b08:	fd842703          	lw	a4,-40(s0)
20403b0c:	478d                	li	a5,3
20403b0e:	02f70963          	beq	a4,a5,20403b40 <__metal_driver_riscv_cpu_controller_interrupt_register+0xf6>
20403b12:	fd842703          	lw	a4,-40(s0)
20403b16:	479d                	li	a5,7
20403b18:	06f70163          	beq	a4,a5,20403b7a <__metal_driver_riscv_cpu_controller_interrupt_register+0x130>
20403b1c:	a8c5                	j	20403c0c <__metal_driver_riscv_cpu_controller_interrupt_register+0x1c2>
20403b1e:	fd842703          	lw	a4,-40(s0)
20403b22:	47c1                	li	a5,16
20403b24:	0ef74463          	blt	a4,a5,20403c0c <__metal_driver_riscv_cpu_controller_interrupt_register+0x1c2>
20403b28:	fd842703          	lw	a4,-40(s0)
20403b2c:	47fd                	li	a5,31
20403b2e:	0ae7d263          	bge	a5,a4,20403bd2 <__metal_driver_riscv_cpu_controller_interrupt_register+0x188>
20403b32:	fd842703          	lw	a4,-40(s0)
20403b36:	08000793          	li	a5,128
20403b3a:	06f70d63          	beq	a4,a5,20403bb4 <__metal_driver_riscv_cpu_controller_interrupt_register+0x16a>
20403b3e:	a0f9                	j	20403c0c <__metal_driver_riscv_cpu_controller_interrupt_register+0x1c2>
/home/khj/Desktop/hello_standalone/freedom-metal/src/drivers/riscv_cpu.c:512
        case METAL_INTERRUPT_ID_SW:
            intc->metal_int_table[id].handler = __metal_default_sw_handler;
20403b40:	fe842683          	lw	a3,-24(s0)
20403b44:	fd842703          	lw	a4,-40(s0)
20403b48:	87ba                	mv	a5,a4
20403b4a:	0786                	slli	a5,a5,0x1
20403b4c:	97ba                	add	a5,a5,a4
20403b4e:	078e                	slli	a5,a5,0x3
20403b50:	97b6                	add	a5,a5,a3
20403b52:	20403737          	lui	a4,0x20403
20403b56:	a7270713          	addi	a4,a4,-1422 # 20402a72 <__metal_default_sw_handler>
20403b5a:	08e7a823          	sw	a4,144(a5)
/home/khj/Desktop/hello_standalone/freedom-metal/src/drivers/riscv_cpu.c:513
            intc->metal_int_table[id].sub_int = priv;
20403b5e:	fe842683          	lw	a3,-24(s0)
20403b62:	fd842703          	lw	a4,-40(s0)
20403b66:	87ba                	mv	a5,a4
20403b68:	0786                	slli	a5,a5,0x1
20403b6a:	97ba                	add	a5,a5,a4
20403b6c:	078e                	slli	a5,a5,0x3
20403b6e:	97b6                	add	a5,a5,a3
20403b70:	fd042703          	lw	a4,-48(s0)
20403b74:	08e7aa23          	sw	a4,148(a5)
/home/khj/Desktop/hello_standalone/freedom-metal/src/drivers/riscv_cpu.c:514
            break;
20403b78:	a869                	j	20403c12 <__metal_driver_riscv_cpu_controller_interrupt_register+0x1c8>
/home/khj/Desktop/hello_standalone/freedom-metal/src/drivers/riscv_cpu.c:516
        case METAL_INTERRUPT_ID_TMR:
            intc->metal_int_table[id].handler = __metal_default_timer_handler;
20403b7a:	fe842683          	lw	a3,-24(s0)
20403b7e:	fd842703          	lw	a4,-40(s0)
20403b82:	87ba                	mv	a5,a4
20403b84:	0786                	slli	a5,a5,0x1
20403b86:	97ba                	add	a5,a5,a4
20403b88:	078e                	slli	a5,a5,0x3
20403b8a:	97b6                	add	a5,a5,a3
20403b8c:	20403737          	lui	a4,0x20403
20403b90:	b7a70713          	addi	a4,a4,-1158 # 20402b7a <__metal_default_timer_handler>
20403b94:	08e7a823          	sw	a4,144(a5)
/home/khj/Desktop/hello_standalone/freedom-metal/src/drivers/riscv_cpu.c:517
            intc->metal_int_table[id].sub_int = priv;
20403b98:	fe842683          	lw	a3,-24(s0)
20403b9c:	fd842703          	lw	a4,-40(s0)
20403ba0:	87ba                	mv	a5,a4
20403ba2:	0786                	slli	a5,a5,0x1
20403ba4:	97ba                	add	a5,a5,a4
20403ba6:	078e                	slli	a5,a5,0x3
20403ba8:	97b6                	add	a5,a5,a3
20403baa:	fd042703          	lw	a4,-48(s0)
20403bae:	08e7aa23          	sw	a4,148(a5)
/home/khj/Desktop/hello_standalone/freedom-metal/src/drivers/riscv_cpu.c:518
            break;
20403bb2:	a085                	j	20403c12 <__metal_driver_riscv_cpu_controller_interrupt_register+0x1c8>
/home/khj/Desktop/hello_standalone/freedom-metal/src/drivers/riscv_cpu.c:520
        case METAL_INTERRUPT_ID_BEU:
            intc->metal_int_beu.handler = __metal_default_beu_handler;
20403bb4:	fe842783          	lw	a5,-24(s0)
20403bb8:	20403737          	lui	a4,0x20403
20403bbc:	b6470713          	addi	a4,a4,-1180 # 20402b64 <__metal_default_beu_handler>
20403bc0:	38e7a823          	sw	a4,912(a5)
/home/khj/Desktop/hello_standalone/freedom-metal/src/drivers/riscv_cpu.c:521
            intc->metal_int_beu.exint_data = priv;
20403bc4:	fe842783          	lw	a5,-24(s0)
20403bc8:	fd042703          	lw	a4,-48(s0)
20403bcc:	38e7ac23          	sw	a4,920(a5)
/home/khj/Desktop/hello_standalone/freedom-metal/src/drivers/riscv_cpu.c:522
            break;
20403bd0:	a089                	j	20403c12 <__metal_driver_riscv_cpu_controller_interrupt_register+0x1c8>
/home/khj/Desktop/hello_standalone/freedom-metal/src/drivers/riscv_cpu.c:540
        case METAL_INTERRUPT_ID_LC11:
        case METAL_INTERRUPT_ID_LC12:
        case METAL_INTERRUPT_ID_LC13:
        case METAL_INTERRUPT_ID_LC14:
        case METAL_INTERRUPT_ID_LC15:
            intc->metal_int_table[id].handler =
20403bd2:	fe842683          	lw	a3,-24(s0)
20403bd6:	fd842703          	lw	a4,-40(s0)
20403bda:	87ba                	mv	a5,a4
20403bdc:	0786                	slli	a5,a5,0x1
20403bde:	97ba                	add	a5,a5,a4
20403be0:	078e                	slli	a5,a5,0x3
20403be2:	97b6                	add	a5,a5,a3
20403be4:	20403737          	lui	a4,0x20403
20403be8:	99e70713          	addi	a4,a4,-1634 # 2040299e <__metal_default_interrupt_handler>
20403bec:	08e7a823          	sw	a4,144(a5)
/home/khj/Desktop/hello_standalone/freedom-metal/src/drivers/riscv_cpu.c:542
                __metal_default_interrupt_handler;
            intc->metal_int_table[id].sub_int = priv;
20403bf0:	fe842683          	lw	a3,-24(s0)
20403bf4:	fd842703          	lw	a4,-40(s0)
20403bf8:	87ba                	mv	a5,a4
20403bfa:	0786                	slli	a5,a5,0x1
20403bfc:	97ba                	add	a5,a5,a4
20403bfe:	078e                	slli	a5,a5,0x3
20403c00:	97b6                	add	a5,a5,a3
20403c02:	fd042703          	lw	a4,-48(s0)
20403c06:	08e7aa23          	sw	a4,148(a5)
/home/khj/Desktop/hello_standalone/freedom-metal/src/drivers/riscv_cpu.c:543
            break;
20403c0a:	a021                	j	20403c12 <__metal_driver_riscv_cpu_controller_interrupt_register+0x1c8>
/home/khj/Desktop/hello_standalone/freedom-metal/src/drivers/riscv_cpu.c:545
        default:
            rc = -12;
20403c0c:	57d1                	li	a5,-12
20403c0e:	fef42623          	sw	a5,-20(s0)
/home/khj/Desktop/hello_standalone/freedom-metal/src/drivers/riscv_cpu.c:548
        }
    }
    return rc;
20403c12:	fec42783          	lw	a5,-20(s0)
/home/khj/Desktop/hello_standalone/freedom-metal/src/drivers/riscv_cpu.c:549
}
20403c16:	853e                	mv	a0,a5
20403c18:	50b2                	lw	ra,44(sp)
20403c1a:	5422                	lw	s0,40(sp)
20403c1c:	6145                	addi	sp,sp,48
20403c1e:	8082                	ret

20403c20 <__metal_driver_riscv_cpu_controller_interrupt_enable>:
__metal_driver_riscv_cpu_controller_interrupt_enable():
/home/khj/Desktop/hello_standalone/freedom-metal/src/drivers/riscv_cpu.c:552

int __metal_driver_riscv_cpu_controller_interrupt_enable(
    struct metal_interrupt *controller, int id) {
20403c20:	1101                	addi	sp,sp,-32
20403c22:	ce06                	sw	ra,28(sp)
20403c24:	cc22                	sw	s0,24(sp)
20403c26:	1000                	addi	s0,sp,32
20403c28:	fea42623          	sw	a0,-20(s0)
20403c2c:	feb42423          	sw	a1,-24(s0)
/home/khj/Desktop/hello_standalone/freedom-metal/src/drivers/riscv_cpu.c:553
    return __metal_local_interrupt_enable(controller, id, METAL_ENABLE);
20403c30:	fe842783          	lw	a5,-24(s0)
20403c34:	4605                	li	a2,1
20403c36:	85be                	mv	a1,a5
20403c38:	fec42503          	lw	a0,-20(s0)
20403c3c:	310d                	jal	2040385e <__metal_local_interrupt_enable>
20403c3e:	87aa                	mv	a5,a0
/home/khj/Desktop/hello_standalone/freedom-metal/src/drivers/riscv_cpu.c:554
}
20403c40:	853e                	mv	a0,a5
20403c42:	40f2                	lw	ra,28(sp)
20403c44:	4462                	lw	s0,24(sp)
20403c46:	6105                	addi	sp,sp,32
20403c48:	8082                	ret

20403c4a <__metal_driver_riscv_cpu_controller_interrupt_disable>:
__metal_driver_riscv_cpu_controller_interrupt_disable():
/home/khj/Desktop/hello_standalone/freedom-metal/src/drivers/riscv_cpu.c:557

int __metal_driver_riscv_cpu_controller_interrupt_disable(
    struct metal_interrupt *controller, int id) {
20403c4a:	1101                	addi	sp,sp,-32
20403c4c:	ce06                	sw	ra,28(sp)
20403c4e:	cc22                	sw	s0,24(sp)
20403c50:	1000                	addi	s0,sp,32
20403c52:	fea42623          	sw	a0,-20(s0)
20403c56:	feb42423          	sw	a1,-24(s0)
/home/khj/Desktop/hello_standalone/freedom-metal/src/drivers/riscv_cpu.c:558
    return __metal_local_interrupt_enable(controller, id, METAL_DISABLE);
20403c5a:	fe842783          	lw	a5,-24(s0)
20403c5e:	4601                	li	a2,0
20403c60:	85be                	mv	a1,a5
20403c62:	fec42503          	lw	a0,-20(s0)
20403c66:	3ee5                	jal	2040385e <__metal_local_interrupt_enable>
20403c68:	87aa                	mv	a5,a0
/home/khj/Desktop/hello_standalone/freedom-metal/src/drivers/riscv_cpu.c:559
}
20403c6a:	853e                	mv	a0,a5
20403c6c:	40f2                	lw	ra,28(sp)
20403c6e:	4462                	lw	s0,24(sp)
20403c70:	6105                	addi	sp,sp,32
20403c72:	8082                	ret

20403c74 <__metal_driver_riscv_cpu_controller_get_vector_mode>:
__metal_driver_riscv_cpu_controller_get_vector_mode():
/home/khj/Desktop/hello_standalone/freedom-metal/src/drivers/riscv_cpu.c:591
    }
    return -1;
}

metal_vector_mode __metal_driver_riscv_cpu_controller_get_vector_mode(
    struct metal_interrupt *controller) {
20403c74:	1101                	addi	sp,sp,-32
20403c76:	ce06                	sw	ra,28(sp)
20403c78:	cc22                	sw	s0,24(sp)
20403c7a:	1000                	addi	s0,sp,32
20403c7c:	fea42623          	sw	a0,-20(s0)
/home/khj/Desktop/hello_standalone/freedom-metal/src/drivers/riscv_cpu.c:592
    return __metal_controller_interrupt_vector_mode();
20403c80:	a93ff0ef          	jal	ra,20403712 <__metal_controller_interrupt_vector_mode>
20403c84:	87aa                	mv	a5,a0
/home/khj/Desktop/hello_standalone/freedom-metal/src/drivers/riscv_cpu.c:593
}
20403c86:	853e                	mv	a0,a5
20403c88:	40f2                	lw	ra,28(sp)
20403c8a:	4462                	lw	s0,24(sp)
20403c8c:	6105                	addi	sp,sp,32
20403c8e:	8082                	ret

20403c90 <__metal_driver_riscv_cpu_controller_set_vector_mode>:
__metal_driver_riscv_cpu_controller_set_vector_mode():
/home/khj/Desktop/hello_standalone/freedom-metal/src/drivers/riscv_cpu.c:596

int __metal_driver_riscv_cpu_controller_set_vector_mode(
    struct metal_interrupt *controller, metal_vector_mode mode) {
20403c90:	1101                	addi	sp,sp,-32
20403c92:	ce06                	sw	ra,28(sp)
20403c94:	cc22                	sw	s0,24(sp)
20403c96:	1000                	addi	s0,sp,32
20403c98:	fea42623          	sw	a0,-20(s0)
20403c9c:	feb42423          	sw	a1,-24(s0)
/home/khj/Desktop/hello_standalone/freedom-metal/src/drivers/riscv_cpu.c:598

    if (mode == METAL_DIRECT_MODE) {
20403ca0:	fe842783          	lw	a5,-24(s0)
20403ca4:	eb99                	bnez	a5,20403cba <__metal_driver_riscv_cpu_controller_set_vector_mode+0x2a>
/home/khj/Desktop/hello_standalone/freedom-metal/src/drivers/riscv_cpu.c:599
        __metal_controller_interrupt_vector(
20403ca6:	204037b7          	lui	a5,0x20403
20403caa:	c0078593          	addi	a1,a5,-1024 # 20402c00 <__metal_exception_handler>
20403cae:	fe842503          	lw	a0,-24(s0)
20403cb2:	ab1ff0ef          	jal	ra,20403762 <__metal_controller_interrupt_vector>
/home/khj/Desktop/hello_standalone/freedom-metal/src/drivers/riscv_cpu.c:601
            mode, (void *)(uintptr_t)&__metal_exception_handler);
        return 0;
20403cb6:	4781                	li	a5,0
20403cb8:	a00d                	j	20403cda <__metal_driver_riscv_cpu_controller_set_vector_mode+0x4a>
/home/khj/Desktop/hello_standalone/freedom-metal/src/drivers/riscv_cpu.c:603
    }
    if (mode == METAL_VECTOR_MODE) {
20403cba:	fe842703          	lw	a4,-24(s0)
20403cbe:	4785                	li	a5,1
20403cc0:	00f71c63          	bne	a4,a5,20403cd8 <__metal_driver_riscv_cpu_controller_set_vector_mode+0x48>
/home/khj/Desktop/hello_standalone/freedom-metal/src/drivers/riscv_cpu.c:604
        __metal_controller_interrupt_vector(
20403cc4:	204067b7          	lui	a5,0x20406
20403cc8:	50078593          	addi	a1,a5,1280 # 20406500 <__metal_vector_table>
20403ccc:	fe842503          	lw	a0,-24(s0)
20403cd0:	a93ff0ef          	jal	ra,20403762 <__metal_controller_interrupt_vector>
/home/khj/Desktop/hello_standalone/freedom-metal/src/drivers/riscv_cpu.c:606
            mode, (void *)(uintptr_t)__metal_vector_table);
        return 0;
20403cd4:	4781                	li	a5,0
20403cd6:	a011                	j	20403cda <__metal_driver_riscv_cpu_controller_set_vector_mode+0x4a>
/home/khj/Desktop/hello_standalone/freedom-metal/src/drivers/riscv_cpu.c:608
    }
    return -1;
20403cd8:	57fd                	li	a5,-1
/home/khj/Desktop/hello_standalone/freedom-metal/src/drivers/riscv_cpu.c:609
}
20403cda:	853e                	mv	a0,a5
20403cdc:	40f2                	lw	ra,28(sp)
20403cde:	4462                	lw	s0,24(sp)
20403ce0:	6105                	addi	sp,sp,32
20403ce2:	8082                	ret

20403ce4 <__metal_driver_riscv_cpu_controller_command_request>:
__metal_driver_riscv_cpu_controller_command_request():
/home/khj/Desktop/hello_standalone/freedom-metal/src/drivers/riscv_cpu.c:612

int __metal_driver_riscv_cpu_controller_command_request(
    struct metal_interrupt *controller, int cmd, void *data) {
20403ce4:	1101                	addi	sp,sp,-32
20403ce6:	ce22                	sw	s0,28(sp)
20403ce8:	1000                	addi	s0,sp,32
20403cea:	fea42623          	sw	a0,-20(s0)
20403cee:	feb42423          	sw	a1,-24(s0)
20403cf2:	fec42223          	sw	a2,-28(s0)
/home/khj/Desktop/hello_standalone/freedom-metal/src/drivers/riscv_cpu.c:615
    /* NOP for now, unless local interrupt lines the like of clic, clint, plic
     */
    return 0;
20403cf6:	4781                	li	a5,0
/home/khj/Desktop/hello_standalone/freedom-metal/src/drivers/riscv_cpu.c:616
}
20403cf8:	853e                	mv	a0,a5
20403cfa:	4472                	lw	s0,28(sp)
20403cfc:	6105                	addi	sp,sp,32
20403cfe:	8082                	ret

20403d00 <__metal_driver_cpu_mcycle_get>:
__metal_driver_cpu_mcycle_get():
/home/khj/Desktop/hello_standalone/freedom-metal/src/drivers/riscv_cpu.c:620

/* CPU driver !!! */

unsigned long long __metal_driver_cpu_mcycle_get(struct metal_cpu *cpu) {
20403d00:	7139                	addi	sp,sp,-64
20403d02:	de22                	sw	s0,60(sp)
20403d04:	0080                	addi	s0,sp,64
20403d06:	fca42623          	sw	a0,-52(s0)
/home/khj/Desktop/hello_standalone/freedom-metal/src/drivers/riscv_cpu.c:621
    unsigned long long val = 0;
20403d0a:	4301                	li	t1,0
20403d0c:	4381                	li	t2,0
20403d0e:	fe642423          	sw	t1,-24(s0)
20403d12:	fe742623          	sw	t2,-20(s0)
/home/khj/Desktop/hello_standalone/freedom-metal/src/drivers/riscv_cpu.c:627 (discriminator 1)

#if __riscv_xlen == 32
    unsigned long hi, hi1, lo;

    do {
        __asm__ volatile("csrr %0, mcycleh" : "=r"(hi));
20403d16:	b8002573          	csrr	a0,mcycleh
20403d1a:	fea42223          	sw	a0,-28(s0)
/home/khj/Desktop/hello_standalone/freedom-metal/src/drivers/riscv_cpu.c:628 (discriminator 1)
        __asm__ volatile("csrr %0, mcycle" : "=r"(lo));
20403d1e:	b0002573          	csrr	a0,mcycle
20403d22:	fea42023          	sw	a0,-32(s0)
/home/khj/Desktop/hello_standalone/freedom-metal/src/drivers/riscv_cpu.c:629 (discriminator 1)
        __asm__ volatile("csrr %0, mcycleh" : "=r"(hi1));
20403d26:	b8002573          	csrr	a0,mcycleh
20403d2a:	fca42e23          	sw	a0,-36(s0)
/home/khj/Desktop/hello_standalone/freedom-metal/src/drivers/riscv_cpu.c:632 (discriminator 1)
        /* hi != hi1 means mcycle overflow during we get value,
         * so we must retry. */
    } while (hi != hi1);
20403d2e:	fe442883          	lw	a7,-28(s0)
20403d32:	fdc42503          	lw	a0,-36(s0)
20403d36:	fea890e3          	bne	a7,a0,20403d16 <__metal_driver_cpu_mcycle_get+0x16>
/home/khj/Desktop/hello_standalone/freedom-metal/src/drivers/riscv_cpu.c:634

    val = ((unsigned long long)hi << 32) | lo;
20403d3a:	fe442503          	lw	a0,-28(s0)
20403d3e:	85aa                	mv	a1,a0
20403d40:	4601                	li	a2,0
20403d42:	00059813          	slli	a6,a1,0x0
20403d46:	4781                	li	a5,0
20403d48:	fe042603          	lw	a2,-32(s0)
20403d4c:	86b2                	mv	a3,a2
20403d4e:	4701                	li	a4,0
20403d50:	00d7e633          	or	a2,a5,a3
20403d54:	fec42423          	sw	a2,-24(s0)
20403d58:	00e867b3          	or	a5,a6,a4
20403d5c:	fef42623          	sw	a5,-20(s0)
/home/khj/Desktop/hello_standalone/freedom-metal/src/drivers/riscv_cpu.c:639
#else
    __asm__ volatile("csrr %0, mcycle" : "=r"(val));
#endif

    return val;
20403d60:	fe842783          	lw	a5,-24(s0)
20403d64:	fec42803          	lw	a6,-20(s0)
/home/khj/Desktop/hello_standalone/freedom-metal/src/drivers/riscv_cpu.c:640
}
20403d68:	853e                	mv	a0,a5
20403d6a:	85c2                	mv	a1,a6
20403d6c:	5472                	lw	s0,60(sp)
20403d6e:	6121                	addi	sp,sp,64
20403d70:	8082                	ret

20403d72 <__metal_driver_cpu_timebase_get>:
__metal_driver_cpu_timebase_get():
/home/khj/Desktop/hello_standalone/freedom-metal/src/drivers/riscv_cpu.c:642

unsigned long long __metal_driver_cpu_timebase_get(struct metal_cpu *cpu) {
20403d72:	7179                	addi	sp,sp,-48
20403d74:	d606                	sw	ra,44(sp)
20403d76:	d422                	sw	s0,40(sp)
20403d78:	d24a                	sw	s2,36(sp)
20403d7a:	d04e                	sw	s3,32(sp)
20403d7c:	1800                	addi	s0,sp,48
20403d7e:	fca42e23          	sw	a0,-36(s0)
/home/khj/Desktop/hello_standalone/freedom-metal/src/drivers/riscv_cpu.c:644
    int timebase;
    if (!cpu) {
20403d82:	fdc42783          	lw	a5,-36(s0)
20403d86:	e781                	bnez	a5,20403d8e <__metal_driver_cpu_timebase_get+0x1c>
/home/khj/Desktop/hello_standalone/freedom-metal/src/drivers/riscv_cpu.c:645
        return 0;
20403d88:	4901                	li	s2,0
20403d8a:	4981                	li	s3,0
20403d8c:	a821                	j	20403da4 <__metal_driver_cpu_timebase_get+0x32>
/home/khj/Desktop/hello_standalone/freedom-metal/src/drivers/riscv_cpu.c:648
    }

    timebase = __metal_driver_cpu_timebase((struct metal_cpu *)cpu);
20403d8e:	fdc42503          	lw	a0,-36(s0)
20403d92:	a13fe0ef          	jal	ra,204027a4 <__metal_driver_cpu_timebase>
20403d96:	fea42623          	sw	a0,-20(s0)
/home/khj/Desktop/hello_standalone/freedom-metal/src/drivers/riscv_cpu.c:649
    return timebase;
20403d9a:	fec42783          	lw	a5,-20(s0)
20403d9e:	893e                	mv	s2,a5
20403da0:	87fd                	srai	a5,a5,0x1f
20403da2:	89be                	mv	s3,a5
20403da4:	87ca                	mv	a5,s2
20403da6:	884e                	mv	a6,s3
/home/khj/Desktop/hello_standalone/freedom-metal/src/drivers/riscv_cpu.c:650
}
20403da8:	853e                	mv	a0,a5
20403daa:	85c2                	mv	a1,a6
20403dac:	50b2                	lw	ra,44(sp)
20403dae:	5422                	lw	s0,40(sp)
20403db0:	5912                	lw	s2,36(sp)
20403db2:	5982                	lw	s3,32(sp)
20403db4:	6145                	addi	sp,sp,48
20403db6:	8082                	ret

20403db8 <__metal_driver_cpu_mtime_get>:
__metal_driver_cpu_mtime_get():
/home/khj/Desktop/hello_standalone/freedom-metal/src/drivers/riscv_cpu.c:652

unsigned long long __metal_driver_cpu_mtime_get(struct metal_cpu *cpu) {
20403db8:	7179                	addi	sp,sp,-48
20403dba:	d606                	sw	ra,44(sp)
20403dbc:	d422                	sw	s0,40(sp)
20403dbe:	1800                	addi	s0,sp,48
20403dc0:	fca42e23          	sw	a0,-36(s0)
/home/khj/Desktop/hello_standalone/freedom-metal/src/drivers/riscv_cpu.c:653
    unsigned long long time = 0;
20403dc4:	4781                	li	a5,0
20403dc6:	4801                	li	a6,0
20403dc8:	fef42023          	sw	a5,-32(s0)
20403dcc:	ff042223          	sw	a6,-28(s0)
/home/khj/Desktop/hello_standalone/freedom-metal/src/drivers/riscv_cpu.c:657
    struct metal_interrupt *tmr_intc;
    struct __metal_driver_riscv_cpu_intc *intc =
        (struct __metal_driver_riscv_cpu_intc *)
            __metal_driver_cpu_interrupt_controller(cpu);
20403dd0:	fdc42503          	lw	a0,-36(s0)
20403dd4:	9fbfe0ef          	jal	ra,204027ce <__metal_driver_cpu_interrupt_controller>
20403dd8:	fea42623          	sw	a0,-20(s0)
/home/khj/Desktop/hello_standalone/freedom-metal/src/drivers/riscv_cpu.c:659

    if (intc) {
20403ddc:	fec42783          	lw	a5,-20(s0)
20403de0:	c78d                	beqz	a5,20403e0a <__metal_driver_cpu_mtime_get+0x52>
/home/khj/Desktop/hello_standalone/freedom-metal/src/drivers/riscv_cpu.c:660
        tmr_intc = intc->metal_int_table[METAL_INTERRUPT_ID_TMR].sub_int;
20403de2:	fec42783          	lw	a5,-20(s0)
20403de6:	13c7a783          	lw	a5,316(a5)
20403dea:	fef42423          	sw	a5,-24(s0)
/home/khj/Desktop/hello_standalone/freedom-metal/src/drivers/riscv_cpu.c:661
        if (tmr_intc) {
20403dee:	fe842783          	lw	a5,-24(s0)
20403df2:	cf81                	beqz	a5,20403e0a <__metal_driver_cpu_mtime_get+0x52>
/home/khj/Desktop/hello_standalone/freedom-metal/src/drivers/riscv_cpu.c:662
            tmr_intc->vtable->command_request(tmr_intc, METAL_TIMER_MTIME_GET,
20403df4:	fe842783          	lw	a5,-24(s0)
20403df8:	439c                	lw	a5,0(a5)
20403dfa:	47f8                	lw	a4,76(a5)
20403dfc:	fe040793          	addi	a5,s0,-32
20403e00:	863e                	mv	a2,a5
20403e02:	4585                	li	a1,1
20403e04:	fe842503          	lw	a0,-24(s0)
20403e08:	9702                	jalr	a4
/home/khj/Desktop/hello_standalone/freedom-metal/src/drivers/riscv_cpu.c:666
                                              &time);
        }
    }
    return time;
20403e0a:	fe042783          	lw	a5,-32(s0)
20403e0e:	fe442803          	lw	a6,-28(s0)
/home/khj/Desktop/hello_standalone/freedom-metal/src/drivers/riscv_cpu.c:667
}
20403e12:	853e                	mv	a0,a5
20403e14:	85c2                	mv	a1,a6
20403e16:	50b2                	lw	ra,44(sp)
20403e18:	5422                	lw	s0,40(sp)
20403e1a:	6145                	addi	sp,sp,48
20403e1c:	8082                	ret

20403e1e <__metal_driver_cpu_mtimecmp_set>:
__metal_driver_cpu_mtimecmp_set():
/home/khj/Desktop/hello_standalone/freedom-metal/src/drivers/riscv_cpu.c:670

int __metal_driver_cpu_mtimecmp_set(struct metal_cpu *cpu,
                                    unsigned long long time) {
20403e1e:	7179                	addi	sp,sp,-48
20403e20:	d606                	sw	ra,44(sp)
20403e22:	d422                	sw	s0,40(sp)
20403e24:	d226                	sw	s1,36(sp)
20403e26:	1800                	addi	s0,sp,48
20403e28:	fca42e23          	sw	a0,-36(s0)
20403e2c:	fcb42823          	sw	a1,-48(s0)
20403e30:	fcc42a23          	sw	a2,-44(s0)
/home/khj/Desktop/hello_standalone/freedom-metal/src/drivers/riscv_cpu.c:671
    int rc = -1;
20403e34:	57fd                	li	a5,-1
20403e36:	fef42623          	sw	a5,-20(s0)
/home/khj/Desktop/hello_standalone/freedom-metal/src/drivers/riscv_cpu.c:675
    struct metal_interrupt *tmr_intc;
    struct __metal_driver_riscv_cpu_intc *intc =
        (struct __metal_driver_riscv_cpu_intc *)
            __metal_driver_cpu_interrupt_controller(cpu);
20403e3a:	fdc42503          	lw	a0,-36(s0)
20403e3e:	991fe0ef          	jal	ra,204027ce <__metal_driver_cpu_interrupt_controller>
20403e42:	fea42423          	sw	a0,-24(s0)
/home/khj/Desktop/hello_standalone/freedom-metal/src/drivers/riscv_cpu.c:677

    if (intc) {
20403e46:	fe842783          	lw	a5,-24(s0)
20403e4a:	cf8d                	beqz	a5,20403e84 <__metal_driver_cpu_mtimecmp_set+0x66>
/home/khj/Desktop/hello_standalone/freedom-metal/src/drivers/riscv_cpu.c:678
        tmr_intc = intc->metal_int_table[METAL_INTERRUPT_ID_TMR].sub_int;
20403e4c:	fe842783          	lw	a5,-24(s0)
20403e50:	13c7a783          	lw	a5,316(a5)
20403e54:	fef42223          	sw	a5,-28(s0)
/home/khj/Desktop/hello_standalone/freedom-metal/src/drivers/riscv_cpu.c:679
        if (tmr_intc) {
20403e58:	fe442783          	lw	a5,-28(s0)
20403e5c:	c785                	beqz	a5,20403e84 <__metal_driver_cpu_mtimecmp_set+0x66>
/home/khj/Desktop/hello_standalone/freedom-metal/src/drivers/riscv_cpu.c:680
            rc = tmr_intc->vtable->mtimecmp_set(
20403e5e:	fe442783          	lw	a5,-28(s0)
20403e62:	439c                	lw	a5,0(a5)
20403e64:	4ba4                	lw	s1,80(a5)
20403e66:	fdc42503          	lw	a0,-36(s0)
20403e6a:	917fe0ef          	jal	ra,20402780 <__metal_driver_cpu_hartid>
20403e6e:	87aa                	mv	a5,a0
20403e70:	fd042603          	lw	a2,-48(s0)
20403e74:	fd442683          	lw	a3,-44(s0)
20403e78:	85be                	mv	a1,a5
20403e7a:	fe442503          	lw	a0,-28(s0)
20403e7e:	9482                	jalr	s1
20403e80:	fea42623          	sw	a0,-20(s0)
/home/khj/Desktop/hello_standalone/freedom-metal/src/drivers/riscv_cpu.c:684
                tmr_intc, __metal_driver_cpu_hartid(cpu), time);
        }
    }
    return rc;
20403e84:	fec42783          	lw	a5,-20(s0)
/home/khj/Desktop/hello_standalone/freedom-metal/src/drivers/riscv_cpu.c:685
}
20403e88:	853e                	mv	a0,a5
20403e8a:	50b2                	lw	ra,44(sp)
20403e8c:	5422                	lw	s0,40(sp)
20403e8e:	5492                	lw	s1,36(sp)
20403e90:	6145                	addi	sp,sp,48
20403e92:	8082                	ret

20403e94 <__metal_driver_cpu_timer_controller_interrupt>:
__metal_driver_cpu_timer_controller_interrupt():
/home/khj/Desktop/hello_standalone/freedom-metal/src/drivers/riscv_cpu.c:688

struct metal_interrupt *
__metal_driver_cpu_timer_controller_interrupt(struct metal_cpu *cpu) {
20403e94:	1101                	addi	sp,sp,-32
20403e96:	ce22                	sw	s0,28(sp)
20403e98:	1000                	addi	s0,sp,32
20403e9a:	fea42623          	sw	a0,-20(s0)
/home/khj/Desktop/hello_standalone/freedom-metal/src/drivers/riscv_cpu.c:690
#ifdef __METAL_DT_RISCV_CLINT0_HANDLE
    return __METAL_DT_RISCV_CLINT0_HANDLE;
20403e9e:	81018793          	addi	a5,gp,-2032 # 800007b0 <__metal_dt_clint_2000000>
/home/khj/Desktop/hello_standalone/freedom-metal/src/drivers/riscv_cpu.c:699
#else
#pragma message("There is no interrupt controller for Timer interrupt")
    return NULL;
#endif
#endif
}
20403ea2:	853e                	mv	a0,a5
20403ea4:	4472                	lw	s0,28(sp)
20403ea6:	6105                	addi	sp,sp,32
20403ea8:	8082                	ret

20403eaa <__metal_driver_cpu_get_timer_interrupt_id>:
__metal_driver_cpu_get_timer_interrupt_id():
/home/khj/Desktop/hello_standalone/freedom-metal/src/drivers/riscv_cpu.c:701

int __metal_driver_cpu_get_timer_interrupt_id(struct metal_cpu *cpu) {
20403eaa:	1101                	addi	sp,sp,-32
20403eac:	ce22                	sw	s0,28(sp)
20403eae:	1000                	addi	s0,sp,32
20403eb0:	fea42623          	sw	a0,-20(s0)
/home/khj/Desktop/hello_standalone/freedom-metal/src/drivers/riscv_cpu.c:702
    return METAL_INTERRUPT_ID_TMR;
20403eb4:	479d                	li	a5,7
/home/khj/Desktop/hello_standalone/freedom-metal/src/drivers/riscv_cpu.c:703
}
20403eb6:	853e                	mv	a0,a5
20403eb8:	4472                	lw	s0,28(sp)
20403eba:	6105                	addi	sp,sp,32
20403ebc:	8082                	ret

20403ebe <__metal_driver_cpu_sw_controller_interrupt>:
__metal_driver_cpu_sw_controller_interrupt():
/home/khj/Desktop/hello_standalone/freedom-metal/src/drivers/riscv_cpu.c:706

struct metal_interrupt *
__metal_driver_cpu_sw_controller_interrupt(struct metal_cpu *cpu) {
20403ebe:	1101                	addi	sp,sp,-32
20403ec0:	ce22                	sw	s0,28(sp)
20403ec2:	1000                	addi	s0,sp,32
20403ec4:	fea42623          	sw	a0,-20(s0)
/home/khj/Desktop/hello_standalone/freedom-metal/src/drivers/riscv_cpu.c:708
#ifdef __METAL_DT_RISCV_CLINT0_HANDLE
    return __METAL_DT_RISCV_CLINT0_HANDLE;
20403ec8:	81018793          	addi	a5,gp,-2032 # 800007b0 <__metal_dt_clint_2000000>
/home/khj/Desktop/hello_standalone/freedom-metal/src/drivers/riscv_cpu.c:717
#else
#pragma message("There is no interrupt controller for Software interrupt")
    return NULL;
#endif
#endif
}
20403ecc:	853e                	mv	a0,a5
20403ece:	4472                	lw	s0,28(sp)
20403ed0:	6105                	addi	sp,sp,32
20403ed2:	8082                	ret

20403ed4 <__metal_driver_cpu_get_sw_interrupt_id>:
__metal_driver_cpu_get_sw_interrupt_id():
/home/khj/Desktop/hello_standalone/freedom-metal/src/drivers/riscv_cpu.c:719

int __metal_driver_cpu_get_sw_interrupt_id(struct metal_cpu *cpu) {
20403ed4:	1101                	addi	sp,sp,-32
20403ed6:	ce22                	sw	s0,28(sp)
20403ed8:	1000                	addi	s0,sp,32
20403eda:	fea42623          	sw	a0,-20(s0)
/home/khj/Desktop/hello_standalone/freedom-metal/src/drivers/riscv_cpu.c:720
    return METAL_INTERRUPT_ID_SW;
20403ede:	478d                	li	a5,3
/home/khj/Desktop/hello_standalone/freedom-metal/src/drivers/riscv_cpu.c:721
}
20403ee0:	853e                	mv	a0,a5
20403ee2:	4472                	lw	s0,28(sp)
20403ee4:	6105                	addi	sp,sp,32
20403ee6:	8082                	ret

20403ee8 <__metal_driver_cpu_set_sw_ipi>:
__metal_driver_cpu_set_sw_ipi():
/home/khj/Desktop/hello_standalone/freedom-metal/src/drivers/riscv_cpu.c:723

int __metal_driver_cpu_set_sw_ipi(struct metal_cpu *cpu, int hartid) {
20403ee8:	7179                	addi	sp,sp,-48
20403eea:	d606                	sw	ra,44(sp)
20403eec:	d422                	sw	s0,40(sp)
20403eee:	1800                	addi	s0,sp,48
20403ef0:	fca42e23          	sw	a0,-36(s0)
20403ef4:	fcb42c23          	sw	a1,-40(s0)
/home/khj/Desktop/hello_standalone/freedom-metal/src/drivers/riscv_cpu.c:724
    int rc = -1;
20403ef8:	57fd                	li	a5,-1
20403efa:	fef42623          	sw	a5,-20(s0)
/home/khj/Desktop/hello_standalone/freedom-metal/src/drivers/riscv_cpu.c:728
    struct metal_interrupt *sw_intc;
    struct __metal_driver_riscv_cpu_intc *intc =
        (struct __metal_driver_riscv_cpu_intc *)
            __metal_driver_cpu_interrupt_controller(cpu);
20403efe:	fdc42503          	lw	a0,-36(s0)
20403f02:	8cdfe0ef          	jal	ra,204027ce <__metal_driver_cpu_interrupt_controller>
20403f06:	fea42423          	sw	a0,-24(s0)
/home/khj/Desktop/hello_standalone/freedom-metal/src/drivers/riscv_cpu.c:730

    if (intc) {
20403f0a:	fe842783          	lw	a5,-24(s0)
20403f0e:	c79d                	beqz	a5,20403f3c <__metal_driver_cpu_set_sw_ipi+0x54>
/home/khj/Desktop/hello_standalone/freedom-metal/src/drivers/riscv_cpu.c:731
        sw_intc = intc->metal_int_table[METAL_INTERRUPT_ID_SW].sub_int;
20403f10:	fe842783          	lw	a5,-24(s0)
20403f14:	0dc7a783          	lw	a5,220(a5)
20403f18:	fef42223          	sw	a5,-28(s0)
/home/khj/Desktop/hello_standalone/freedom-metal/src/drivers/riscv_cpu.c:732
        if (sw_intc) {
20403f1c:	fe442783          	lw	a5,-28(s0)
20403f20:	cf91                	beqz	a5,20403f3c <__metal_driver_cpu_set_sw_ipi+0x54>
/home/khj/Desktop/hello_standalone/freedom-metal/src/drivers/riscv_cpu.c:733
            rc = sw_intc->vtable->command_request(
20403f22:	fe442783          	lw	a5,-28(s0)
20403f26:	439c                	lw	a5,0(a5)
20403f28:	47f8                	lw	a4,76(a5)
20403f2a:	fd840793          	addi	a5,s0,-40
20403f2e:	863e                	mv	a2,a5
20403f30:	458d                	li	a1,3
20403f32:	fe442503          	lw	a0,-28(s0)
20403f36:	9702                	jalr	a4
20403f38:	fea42623          	sw	a0,-20(s0)
/home/khj/Desktop/hello_standalone/freedom-metal/src/drivers/riscv_cpu.c:737
                sw_intc, METAL_SOFTWARE_IPI_SET, &hartid);
        }
    }
    return rc;
20403f3c:	fec42783          	lw	a5,-20(s0)
/home/khj/Desktop/hello_standalone/freedom-metal/src/drivers/riscv_cpu.c:738
}
20403f40:	853e                	mv	a0,a5
20403f42:	50b2                	lw	ra,44(sp)
20403f44:	5422                	lw	s0,40(sp)
20403f46:	6145                	addi	sp,sp,48
20403f48:	8082                	ret

20403f4a <__metal_driver_cpu_clear_sw_ipi>:
__metal_driver_cpu_clear_sw_ipi():
/home/khj/Desktop/hello_standalone/freedom-metal/src/drivers/riscv_cpu.c:740

int __metal_driver_cpu_clear_sw_ipi(struct metal_cpu *cpu, int hartid) {
20403f4a:	7179                	addi	sp,sp,-48
20403f4c:	d606                	sw	ra,44(sp)
20403f4e:	d422                	sw	s0,40(sp)
20403f50:	1800                	addi	s0,sp,48
20403f52:	fca42e23          	sw	a0,-36(s0)
20403f56:	fcb42c23          	sw	a1,-40(s0)
/home/khj/Desktop/hello_standalone/freedom-metal/src/drivers/riscv_cpu.c:741
    int rc = -1;
20403f5a:	57fd                	li	a5,-1
20403f5c:	fef42623          	sw	a5,-20(s0)
/home/khj/Desktop/hello_standalone/freedom-metal/src/drivers/riscv_cpu.c:745
    struct metal_interrupt *sw_intc;
    struct __metal_driver_riscv_cpu_intc *intc =
        (struct __metal_driver_riscv_cpu_intc *)
            __metal_driver_cpu_interrupt_controller(cpu);
20403f60:	fdc42503          	lw	a0,-36(s0)
20403f64:	86bfe0ef          	jal	ra,204027ce <__metal_driver_cpu_interrupt_controller>
20403f68:	fea42423          	sw	a0,-24(s0)
/home/khj/Desktop/hello_standalone/freedom-metal/src/drivers/riscv_cpu.c:747

    if (intc) {
20403f6c:	fe842783          	lw	a5,-24(s0)
20403f70:	c79d                	beqz	a5,20403f9e <__metal_driver_cpu_clear_sw_ipi+0x54>
/home/khj/Desktop/hello_standalone/freedom-metal/src/drivers/riscv_cpu.c:748
        sw_intc = intc->metal_int_table[METAL_INTERRUPT_ID_SW].sub_int;
20403f72:	fe842783          	lw	a5,-24(s0)
20403f76:	0dc7a783          	lw	a5,220(a5)
20403f7a:	fef42223          	sw	a5,-28(s0)
/home/khj/Desktop/hello_standalone/freedom-metal/src/drivers/riscv_cpu.c:749
        if (sw_intc) {
20403f7e:	fe442783          	lw	a5,-28(s0)
20403f82:	cf91                	beqz	a5,20403f9e <__metal_driver_cpu_clear_sw_ipi+0x54>
/home/khj/Desktop/hello_standalone/freedom-metal/src/drivers/riscv_cpu.c:750
            rc = sw_intc->vtable->command_request(
20403f84:	fe442783          	lw	a5,-28(s0)
20403f88:	439c                	lw	a5,0(a5)
20403f8a:	47f8                	lw	a4,76(a5)
20403f8c:	fd840793          	addi	a5,s0,-40
20403f90:	863e                	mv	a2,a5
20403f92:	4589                	li	a1,2
20403f94:	fe442503          	lw	a0,-28(s0)
20403f98:	9702                	jalr	a4
20403f9a:	fea42623          	sw	a0,-20(s0)
/home/khj/Desktop/hello_standalone/freedom-metal/src/drivers/riscv_cpu.c:754
                sw_intc, METAL_SOFTWARE_IPI_CLEAR, &hartid);
        }
    }
    return rc;
20403f9e:	fec42783          	lw	a5,-20(s0)
/home/khj/Desktop/hello_standalone/freedom-metal/src/drivers/riscv_cpu.c:755
}
20403fa2:	853e                	mv	a0,a5
20403fa4:	50b2                	lw	ra,44(sp)
20403fa6:	5422                	lw	s0,40(sp)
20403fa8:	6145                	addi	sp,sp,48
20403faa:	8082                	ret

20403fac <__metal_driver_cpu_get_msip>:
__metal_driver_cpu_get_msip():
/home/khj/Desktop/hello_standalone/freedom-metal/src/drivers/riscv_cpu.c:757

int __metal_driver_cpu_get_msip(struct metal_cpu *cpu, int hartid) {
20403fac:	7179                	addi	sp,sp,-48
20403fae:	d606                	sw	ra,44(sp)
20403fb0:	d422                	sw	s0,40(sp)
20403fb2:	1800                	addi	s0,sp,48
20403fb4:	fca42e23          	sw	a0,-36(s0)
20403fb8:	fcb42c23          	sw	a1,-40(s0)
/home/khj/Desktop/hello_standalone/freedom-metal/src/drivers/riscv_cpu.c:758
    int rc = 0;
20403fbc:	fe042623          	sw	zero,-20(s0)
/home/khj/Desktop/hello_standalone/freedom-metal/src/drivers/riscv_cpu.c:762
    struct metal_interrupt *sw_intc;
    struct __metal_driver_riscv_cpu_intc *intc =
        (struct __metal_driver_riscv_cpu_intc *)
            __metal_driver_cpu_interrupt_controller(cpu);
20403fc0:	fdc42503          	lw	a0,-36(s0)
20403fc4:	80bfe0ef          	jal	ra,204027ce <__metal_driver_cpu_interrupt_controller>
20403fc8:	fea42423          	sw	a0,-24(s0)
/home/khj/Desktop/hello_standalone/freedom-metal/src/drivers/riscv_cpu.c:764

    if (intc) {
20403fcc:	fe842783          	lw	a5,-24(s0)
20403fd0:	c79d                	beqz	a5,20403ffe <__metal_driver_cpu_get_msip+0x52>
/home/khj/Desktop/hello_standalone/freedom-metal/src/drivers/riscv_cpu.c:765
        sw_intc = intc->metal_int_table[METAL_INTERRUPT_ID_SW].sub_int;
20403fd2:	fe842783          	lw	a5,-24(s0)
20403fd6:	0dc7a783          	lw	a5,220(a5)
20403fda:	fef42223          	sw	a5,-28(s0)
/home/khj/Desktop/hello_standalone/freedom-metal/src/drivers/riscv_cpu.c:766
        if (sw_intc) {
20403fde:	fe442783          	lw	a5,-28(s0)
20403fe2:	cf91                	beqz	a5,20403ffe <__metal_driver_cpu_get_msip+0x52>
/home/khj/Desktop/hello_standalone/freedom-metal/src/drivers/riscv_cpu.c:767
            rc = sw_intc->vtable->command_request(
20403fe4:	fe442783          	lw	a5,-28(s0)
20403fe8:	439c                	lw	a5,0(a5)
20403fea:	47f8                	lw	a4,76(a5)
20403fec:	fd840793          	addi	a5,s0,-40
20403ff0:	863e                	mv	a2,a5
20403ff2:	4591                	li	a1,4
20403ff4:	fe442503          	lw	a0,-28(s0)
20403ff8:	9702                	jalr	a4
20403ffa:	fea42623          	sw	a0,-20(s0)
/home/khj/Desktop/hello_standalone/freedom-metal/src/drivers/riscv_cpu.c:771
                sw_intc, METAL_SOFTWARE_MSIP_GET, &hartid);
        }
    }
    return rc;
20403ffe:	fec42783          	lw	a5,-20(s0)
/home/khj/Desktop/hello_standalone/freedom-metal/src/drivers/riscv_cpu.c:772
}
20404002:	853e                	mv	a0,a5
20404004:	50b2                	lw	ra,44(sp)
20404006:	5422                	lw	s0,40(sp)
20404008:	6145                	addi	sp,sp,48
2040400a:	8082                	ret

2040400c <__metal_driver_cpu_controller_interrupt>:
__metal_driver_cpu_controller_interrupt():
/home/khj/Desktop/hello_standalone/freedom-metal/src/drivers/riscv_cpu.c:775

struct metal_interrupt *
__metal_driver_cpu_controller_interrupt(struct metal_cpu *cpu) {
2040400c:	1101                	addi	sp,sp,-32
2040400e:	ce06                	sw	ra,28(sp)
20404010:	cc22                	sw	s0,24(sp)
20404012:	1000                	addi	s0,sp,32
20404014:	fea42623          	sw	a0,-20(s0)
/home/khj/Desktop/hello_standalone/freedom-metal/src/drivers/riscv_cpu.c:776
    return __metal_driver_cpu_interrupt_controller(cpu);
20404018:	fec42503          	lw	a0,-20(s0)
2040401c:	fb2fe0ef          	jal	ra,204027ce <__metal_driver_cpu_interrupt_controller>
20404020:	87aa                	mv	a5,a0
/home/khj/Desktop/hello_standalone/freedom-metal/src/drivers/riscv_cpu.c:777
}
20404022:	853e                	mv	a0,a5
20404024:	40f2                	lw	ra,28(sp)
20404026:	4462                	lw	s0,24(sp)
20404028:	6105                	addi	sp,sp,32
2040402a:	8082                	ret

2040402c <__metal_driver_cpu_exception_register>:
__metal_driver_cpu_exception_register():
/home/khj/Desktop/hello_standalone/freedom-metal/src/drivers/riscv_cpu.c:798
    }
    return -1;
}

int __metal_driver_cpu_exception_register(struct metal_cpu *cpu, int ecode,
                                          metal_exception_handler_t isr) {
2040402c:	7179                	addi	sp,sp,-48
2040402e:	d606                	sw	ra,44(sp)
20404030:	d422                	sw	s0,40(sp)
20404032:	1800                	addi	s0,sp,48
20404034:	fca42e23          	sw	a0,-36(s0)
20404038:	fcb42c23          	sw	a1,-40(s0)
2040403c:	fcc42a23          	sw	a2,-44(s0)
/home/khj/Desktop/hello_standalone/freedom-metal/src/drivers/riscv_cpu.c:801
    struct __metal_driver_riscv_cpu_intc *intc =
        (struct __metal_driver_riscv_cpu_intc *)
            __metal_driver_cpu_interrupt_controller(cpu);
20404040:	fdc42503          	lw	a0,-36(s0)
20404044:	f8afe0ef          	jal	ra,204027ce <__metal_driver_cpu_interrupt_controller>
20404048:	fea42623          	sw	a0,-20(s0)
/home/khj/Desktop/hello_standalone/freedom-metal/src/drivers/riscv_cpu.c:803

    if (intc) {
2040404c:	fec42783          	lw	a5,-20(s0)
20404050:	cb99                	beqz	a5,20404066 <__metal_driver_cpu_exception_register+0x3a>
/home/khj/Desktop/hello_standalone/freedom-metal/src/drivers/riscv_cpu.c:804
        return __metal_exception_register((struct metal_interrupt *)intc, ecode,
20404052:	fd442603          	lw	a2,-44(s0)
20404056:	fd842583          	lw	a1,-40(s0)
2040405a:	fec42503          	lw	a0,-20(s0)
2040405e:	8bdff0ef          	jal	ra,2040391a <__metal_exception_register>
20404062:	87aa                	mv	a5,a0
20404064:	a011                	j	20404068 <__metal_driver_cpu_exception_register+0x3c>
/home/khj/Desktop/hello_standalone/freedom-metal/src/drivers/riscv_cpu.c:807
                                          isr);
    }
    return -1;
20404066:	57fd                	li	a5,-1
/home/khj/Desktop/hello_standalone/freedom-metal/src/drivers/riscv_cpu.c:808
}
20404068:	853e                	mv	a0,a5
2040406a:	50b2                	lw	ra,44(sp)
2040406c:	5422                	lw	s0,40(sp)
2040406e:	6145                	addi	sp,sp,48
20404070:	8082                	ret

20404072 <__metal_driver_cpu_get_instruction_length>:
__metal_driver_cpu_get_instruction_length():
/home/khj/Desktop/hello_standalone/freedom-metal/src/drivers/riscv_cpu.c:811

int __metal_driver_cpu_get_instruction_length(struct metal_cpu *cpu,
                                              uintptr_t epc) {
20404072:	1101                	addi	sp,sp,-32
20404074:	ce22                	sw	s0,28(sp)
20404076:	1000                	addi	s0,sp,32
20404078:	fea42623          	sw	a0,-20(s0)
2040407c:	feb42423          	sw	a1,-24(s0)
/home/khj/Desktop/hello_standalone/freedom-metal/src/drivers/riscv_cpu.c:817
    /**
     * Per ISA compressed instruction has last two bits of opcode set.
     * The encoding '00' '01' '10' are used for compressed instruction.
     * Only enconding '11' isn't regarded as compressed instruction (>16b).
     */
    return ((*(unsigned short *)epc & METAL_INSN_LENGTH_MASK) ==
20404080:	fe842783          	lw	a5,-24(s0)
20404084:	0007d783          	lhu	a5,0(a5)
20404088:	0037f713          	andi	a4,a5,3
/home/khj/Desktop/hello_standalone/freedom-metal/src/drivers/riscv_cpu.c:820
            METAL_INSN_NOT_COMPRESSED)
               ? 4
               : 2;
2040408c:	478d                	li	a5,3
2040408e:	00f71463          	bne	a4,a5,20404096 <__metal_driver_cpu_get_instruction_length+0x24>
/home/khj/Desktop/hello_standalone/freedom-metal/src/drivers/riscv_cpu.c:820 (discriminator 1)
20404092:	4791                	li	a5,4
20404094:	a011                	j	20404098 <__metal_driver_cpu_get_instruction_length+0x26>
/home/khj/Desktop/hello_standalone/freedom-metal/src/drivers/riscv_cpu.c:820 (discriminator 2)
20404096:	4789                	li	a5,2
/home/khj/Desktop/hello_standalone/freedom-metal/src/drivers/riscv_cpu.c:821 (discriminator 5)
}
20404098:	853e                	mv	a0,a5
2040409a:	4472                	lw	s0,28(sp)
2040409c:	6105                	addi	sp,sp,32
2040409e:	8082                	ret

204040a0 <__metal_driver_cpu_get_exception_pc>:
__metal_driver_cpu_get_exception_pc():
/home/khj/Desktop/hello_standalone/freedom-metal/src/drivers/riscv_cpu.c:823

uintptr_t __metal_driver_cpu_get_exception_pc(struct metal_cpu *cpu) {
204040a0:	7179                	addi	sp,sp,-48
204040a2:	d622                	sw	s0,44(sp)
204040a4:	1800                	addi	s0,sp,48
204040a6:	fca42e23          	sw	a0,-36(s0)
/home/khj/Desktop/hello_standalone/freedom-metal/src/drivers/riscv_cpu.c:825
    uintptr_t mepc;
    __asm__ volatile("csrr %0, mepc" : "=r"(mepc));
204040aa:	341027f3          	csrr	a5,mepc
204040ae:	fef42623          	sw	a5,-20(s0)
/home/khj/Desktop/hello_standalone/freedom-metal/src/drivers/riscv_cpu.c:826
    return mepc;
204040b2:	fec42783          	lw	a5,-20(s0)
/home/khj/Desktop/hello_standalone/freedom-metal/src/drivers/riscv_cpu.c:827
}
204040b6:	853e                	mv	a0,a5
204040b8:	5432                	lw	s0,44(sp)
204040ba:	6145                	addi	sp,sp,48
204040bc:	8082                	ret

204040be <__metal_driver_cpu_set_exception_pc>:
__metal_driver_cpu_set_exception_pc():
/home/khj/Desktop/hello_standalone/freedom-metal/src/drivers/riscv_cpu.c:829

int __metal_driver_cpu_set_exception_pc(struct metal_cpu *cpu, uintptr_t mepc) {
204040be:	1101                	addi	sp,sp,-32
204040c0:	ce22                	sw	s0,28(sp)
204040c2:	1000                	addi	s0,sp,32
204040c4:	fea42623          	sw	a0,-20(s0)
204040c8:	feb42423          	sw	a1,-24(s0)
/home/khj/Desktop/hello_standalone/freedom-metal/src/drivers/riscv_cpu.c:830
    __asm__ volatile("csrw mepc, %0" ::"r"(mepc));
204040cc:	fe842783          	lw	a5,-24(s0)
204040d0:	34179073          	csrw	mepc,a5
/home/khj/Desktop/hello_standalone/freedom-metal/src/drivers/riscv_cpu.c:831
    return 0;
204040d4:	4781                	li	a5,0
/home/khj/Desktop/hello_standalone/freedom-metal/src/drivers/riscv_cpu.c:832
}
204040d6:	853e                	mv	a0,a5
204040d8:	4472                	lw	s0,28(sp)
204040da:	6105                	addi	sp,sp,32
204040dc:	8082                	ret

204040de <__metal_driver_cpu_get_buserror>:
__metal_driver_cpu_get_buserror():
/home/khj/Desktop/hello_standalone/freedom-metal/src/drivers/riscv_cpu.c:834

struct metal_buserror *__metal_driver_cpu_get_buserror(struct metal_cpu *cpu) {
204040de:	1101                	addi	sp,sp,-32
204040e0:	ce06                	sw	ra,28(sp)
204040e2:	cc22                	sw	s0,24(sp)
204040e4:	1000                	addi	s0,sp,32
204040e6:	fea42623          	sw	a0,-20(s0)
/home/khj/Desktop/hello_standalone/freedom-metal/src/drivers/riscv_cpu.c:835
    return __metal_driver_cpu_buserror(cpu);
204040ea:	fec42503          	lw	a0,-20(s0)
204040ee:	f0afe0ef          	jal	ra,204027f8 <__metal_driver_cpu_buserror>
204040f2:	87aa                	mv	a5,a0
/home/khj/Desktop/hello_standalone/freedom-metal/src/drivers/riscv_cpu.c:836
}
204040f4:	853e                	mv	a0,a5
204040f6:	40f2                	lw	ra,28(sp)
204040f8:	4462                	lw	s0,24(sp)
204040fa:	6105                	addi	sp,sp,32
204040fc:	8082                	ret

204040fe <__metal_driver_sifive_plic0_control_base>:
__metal_driver_sifive_plic0_control_base():
/home/khj/Desktop/hello_standalone/bsp/build/debug/./metal/machine.h:312



/* --------------------- sifive_plic0 ------------ */
static __inline__ unsigned long __metal_driver_sifive_plic0_control_base(struct metal_interrupt *controller)
{
204040fe:	1101                	addi	sp,sp,-32
20404100:	ce22                	sw	s0,28(sp)
20404102:	1000                	addi	s0,sp,32
20404104:	fea42623          	sw	a0,-20(s0)
/home/khj/Desktop/hello_standalone/bsp/build/debug/./metal/machine.h:313
	if ((uintptr_t)controller == (uintptr_t)&__metal_dt_interrupt_controller_c000000) {
20404108:	fec42703          	lw	a4,-20(s0)
2040410c:	800007b7          	lui	a5,0x80000
20404110:	45878793          	addi	a5,a5,1112 # 80000458 <metal_dtim_0_memory_end+0xffff0458>
20404114:	00f71563          	bne	a4,a5,2040411e <__metal_driver_sifive_plic0_control_base+0x20>
/home/khj/Desktop/hello_standalone/bsp/build/debug/./metal/machine.h:314
		return METAL_RISCV_PLIC0_C000000_BASE_ADDRESS;
20404118:	0c0007b7          	lui	a5,0xc000
2040411c:	a011                	j	20404120 <__metal_driver_sifive_plic0_control_base+0x22>
/home/khj/Desktop/hello_standalone/bsp/build/debug/./metal/machine.h:317
	}
	else {
		return 0;
2040411e:	4781                	li	a5,0
/home/khj/Desktop/hello_standalone/bsp/build/debug/./metal/machine.h:319
	}
}
20404120:	853e                	mv	a0,a5
20404122:	4472                	lw	s0,28(sp)
20404124:	6105                	addi	sp,sp,32
20404126:	8082                	ret

20404128 <__metal_driver_sifive_plic0_num_interrupts>:
__metal_driver_sifive_plic0_num_interrupts():
/home/khj/Desktop/hello_standalone/bsp/build/debug/./metal/machine.h:332
		return 0;
	}
}

static __inline__ int __metal_driver_sifive_plic0_num_interrupts(struct metal_interrupt *controller)
{
20404128:	1101                	addi	sp,sp,-32
2040412a:	ce22                	sw	s0,28(sp)
2040412c:	1000                	addi	s0,sp,32
2040412e:	fea42623          	sw	a0,-20(s0)
/home/khj/Desktop/hello_standalone/bsp/build/debug/./metal/machine.h:333
	if ((uintptr_t)controller == (uintptr_t)&__metal_dt_interrupt_controller_c000000) {
20404132:	fec42703          	lw	a4,-20(s0)
20404136:	800007b7          	lui	a5,0x80000
2040413a:	45878793          	addi	a5,a5,1112 # 80000458 <metal_dtim_0_memory_end+0xffff0458>
2040413e:	00f71463          	bne	a4,a5,20404146 <__metal_driver_sifive_plic0_num_interrupts+0x1e>
/home/khj/Desktop/hello_standalone/bsp/build/debug/./metal/machine.h:334
		return METAL_RISCV_PLIC0_C000000_RISCV_NDEV;
20404142:	47ed                	li	a5,27
20404144:	a011                	j	20404148 <__metal_driver_sifive_plic0_num_interrupts+0x20>
/home/khj/Desktop/hello_standalone/bsp/build/debug/./metal/machine.h:337
	}
	else {
		return 0;
20404146:	4781                	li	a5,0
/home/khj/Desktop/hello_standalone/bsp/build/debug/./metal/machine.h:339
	}
}
20404148:	853e                	mv	a0,a5
2040414a:	4472                	lw	s0,28(sp)
2040414c:	6105                	addi	sp,sp,32
2040414e:	8082                	ret

20404150 <__metal_driver_sifive_plic0_max_priority>:
__metal_driver_sifive_plic0_max_priority():
/home/khj/Desktop/hello_standalone/bsp/build/debug/./metal/machine.h:342

static __inline__ int __metal_driver_sifive_plic0_max_priority(struct metal_interrupt *controller)
{
20404150:	1101                	addi	sp,sp,-32
20404152:	ce22                	sw	s0,28(sp)
20404154:	1000                	addi	s0,sp,32
20404156:	fea42623          	sw	a0,-20(s0)
/home/khj/Desktop/hello_standalone/bsp/build/debug/./metal/machine.h:343
	if ((uintptr_t)controller == (uintptr_t)&__metal_dt_interrupt_controller_c000000) {
2040415a:	fec42703          	lw	a4,-20(s0)
2040415e:	800007b7          	lui	a5,0x80000
20404162:	45878793          	addi	a5,a5,1112 # 80000458 <metal_dtim_0_memory_end+0xffff0458>
20404166:	00f71463          	bne	a4,a5,2040416e <__metal_driver_sifive_plic0_max_priority+0x1e>
/home/khj/Desktop/hello_standalone/bsp/build/debug/./metal/machine.h:344
		return METAL_RISCV_PLIC0_C000000_RISCV_MAX_PRIORITY;
2040416a:	479d                	li	a5,7
2040416c:	a011                	j	20404170 <__metal_driver_sifive_plic0_max_priority+0x20>
/home/khj/Desktop/hello_standalone/bsp/build/debug/./metal/machine.h:347
	}
	else {
		return 0;
2040416e:	4781                	li	a5,0
/home/khj/Desktop/hello_standalone/bsp/build/debug/./metal/machine.h:349
	}
}
20404170:	853e                	mv	a0,a5
20404172:	4472                	lw	s0,28(sp)
20404174:	6105                	addi	sp,sp,32
20404176:	8082                	ret

20404178 <__metal_driver_sifive_plic0_interrupt_parents>:
__metal_driver_sifive_plic0_interrupt_parents():
/home/khj/Desktop/hello_standalone/bsp/build/debug/./metal/machine.h:352

static __inline__ struct metal_interrupt * __metal_driver_sifive_plic0_interrupt_parents(struct metal_interrupt *controller, int idx)
{
20404178:	1101                	addi	sp,sp,-32
2040417a:	ce22                	sw	s0,28(sp)
2040417c:	1000                	addi	s0,sp,32
2040417e:	fea42623          	sw	a0,-20(s0)
20404182:	feb42423          	sw	a1,-24(s0)
/home/khj/Desktop/hello_standalone/bsp/build/debug/./metal/machine.h:353
	if (idx == 0) {
20404186:	fe842783          	lw	a5,-24(s0)
2040418a:	e791                	bnez	a5,20404196 <__metal_driver_sifive_plic0_interrupt_parents+0x1e>
/home/khj/Desktop/hello_standalone/bsp/build/debug/./metal/machine.h:354
		return (struct metal_interrupt *)&__metal_dt_cpu_0_interrupt_controller.controller;
2040418c:	800007b7          	lui	a5,0x80000
20404190:	08878793          	addi	a5,a5,136 # 80000088 <metal_dtim_0_memory_end+0xffff0088>
20404194:	a011                	j	20404198 <__metal_driver_sifive_plic0_interrupt_parents+0x20>
/home/khj/Desktop/hello_standalone/bsp/build/debug/./metal/machine.h:357
	}
	else {
		return NULL;
20404196:	4781                	li	a5,0
/home/khj/Desktop/hello_standalone/bsp/build/debug/./metal/machine.h:359
	}
}
20404198:	853e                	mv	a0,a5
2040419a:	4472                	lw	s0,28(sp)
2040419c:	6105                	addi	sp,sp,32
2040419e:	8082                	ret

204041a0 <__metal_driver_sifive_plic0_interrupt_lines>:
__metal_driver_sifive_plic0_interrupt_lines():
/home/khj/Desktop/hello_standalone/bsp/build/debug/./metal/machine.h:362

static __inline__ int __metal_driver_sifive_plic0_interrupt_lines(struct metal_interrupt *controller, int idx)
{
204041a0:	1101                	addi	sp,sp,-32
204041a2:	ce22                	sw	s0,28(sp)
204041a4:	1000                	addi	s0,sp,32
204041a6:	fea42623          	sw	a0,-20(s0)
204041aa:	feb42423          	sw	a1,-24(s0)
/home/khj/Desktop/hello_standalone/bsp/build/debug/./metal/machine.h:363
	if (idx == 0) {
204041ae:	fe842783          	lw	a5,-24(s0)
204041b2:	e399                	bnez	a5,204041b8 <__metal_driver_sifive_plic0_interrupt_lines+0x18>
/home/khj/Desktop/hello_standalone/bsp/build/debug/./metal/machine.h:364
		return 11;
204041b4:	47ad                	li	a5,11
204041b6:	a011                	j	204041ba <__metal_driver_sifive_plic0_interrupt_lines+0x1a>
/home/khj/Desktop/hello_standalone/bsp/build/debug/./metal/machine.h:367
	}
	else {
		return 0;
204041b8:	4781                	li	a5,0
/home/khj/Desktop/hello_standalone/bsp/build/debug/./metal/machine.h:369
	}
}
204041ba:	853e                	mv	a0,a5
204041bc:	4472                	lw	s0,28(sp)
204041be:	6105                	addi	sp,sp,32
204041c0:	8082                	ret

204041c2 <__metal_driver_sifive_plic0_context_ids>:
__metal_driver_sifive_plic0_context_ids():
/home/khj/Desktop/hello_standalone/bsp/build/debug/./metal/machine.h:372

static __inline__ int __metal_driver_sifive_plic0_context_ids(int hartid)
{
204041c2:	1101                	addi	sp,sp,-32
204041c4:	ce22                	sw	s0,28(sp)
204041c6:	1000                	addi	s0,sp,32
204041c8:	fea42623          	sw	a0,-20(s0)
/home/khj/Desktop/hello_standalone/bsp/build/debug/./metal/machine.h:373
	if (hartid == 0) {
204041cc:	fec42783          	lw	a5,-20(s0)
204041d0:	e399                	bnez	a5,204041d6 <__metal_driver_sifive_plic0_context_ids+0x14>
/home/khj/Desktop/hello_standalone/bsp/build/debug/./metal/machine.h:374
		return 0;
204041d2:	4781                	li	a5,0
204041d4:	a011                	j	204041d8 <__metal_driver_sifive_plic0_context_ids+0x16>
/home/khj/Desktop/hello_standalone/bsp/build/debug/./metal/machine.h:377
	}
	else {
		return -1;
204041d6:	57fd                	li	a5,-1
/home/khj/Desktop/hello_standalone/bsp/build/debug/./metal/machine.h:379
	}
}
204041d8:	853e                	mv	a0,a5
204041da:	4472                	lw	s0,28(sp)
204041dc:	6105                	addi	sp,sp,32
204041de:	8082                	ret

204041e0 <__metal_plic0_claim_interrupt>:
__metal_plic0_claim_interrupt():
/home/khj/Desktop/hello_standalone/freedom-metal/src/drivers/riscv_plic0.c:18
#include <metal/machine.h>
#include <metal/shutdown.h>

unsigned int
__metal_plic0_claim_interrupt(struct __metal_driver_riscv_plic0 *plic,
                              int context_id) {
204041e0:	7179                	addi	sp,sp,-48
204041e2:	d606                	sw	ra,44(sp)
204041e4:	d422                	sw	s0,40(sp)
204041e6:	1800                	addi	s0,sp,48
204041e8:	fca42e23          	sw	a0,-36(s0)
204041ec:	fcb42c23          	sw	a1,-40(s0)
/home/khj/Desktop/hello_standalone/freedom-metal/src/drivers/riscv_plic0.c:19
    unsigned long control_base = __metal_driver_sifive_plic0_control_base(
204041f0:	fdc42503          	lw	a0,-36(s0)
204041f4:	3729                	jal	204040fe <__metal_driver_sifive_plic0_control_base>
204041f6:	fea42623          	sw	a0,-20(s0)
/home/khj/Desktop/hello_standalone/freedom-metal/src/drivers/riscv_plic0.c:21
        (struct metal_interrupt *)plic);
    return __METAL_ACCESS_ONCE(
204041fa:	fd842783          	lw	a5,-40(s0)
204041fe:	00c79713          	slli	a4,a5,0xc
20404202:	fec42783          	lw	a5,-20(s0)
20404206:	973e                	add	a4,a4,a5
20404208:	002007b7          	lui	a5,0x200
2040420c:	0791                	addi	a5,a5,4
2040420e:	97ba                	add	a5,a5,a4
20404210:	439c                	lw	a5,0(a5)
/home/khj/Desktop/hello_standalone/freedom-metal/src/drivers/riscv_plic0.c:25
        (__metal_io_u32 *)(control_base + METAL_RISCV_PLIC0_CONTEXT_BASE +
                           (context_id * METAL_RISCV_PLIC0_CONTEXT_PER_HART) +
                           METAL_RISCV_PLIC0_CONTEXT_CLAIM));
}
20404212:	853e                	mv	a0,a5
20404214:	50b2                	lw	ra,44(sp)
20404216:	5422                	lw	s0,40(sp)
20404218:	6145                	addi	sp,sp,48
2040421a:	8082                	ret

2040421c <__metal_plic0_complete_interrupt>:
__metal_plic0_complete_interrupt():
/home/khj/Desktop/hello_standalone/freedom-metal/src/drivers/riscv_plic0.c:28

void __metal_plic0_complete_interrupt(struct __metal_driver_riscv_plic0 *plic,
                                      int context_id, unsigned int id) {
2040421c:	7179                	addi	sp,sp,-48
2040421e:	d606                	sw	ra,44(sp)
20404220:	d422                	sw	s0,40(sp)
20404222:	1800                	addi	s0,sp,48
20404224:	fca42e23          	sw	a0,-36(s0)
20404228:	fcb42c23          	sw	a1,-40(s0)
2040422c:	fcc42a23          	sw	a2,-44(s0)
/home/khj/Desktop/hello_standalone/freedom-metal/src/drivers/riscv_plic0.c:29
    unsigned long control_base = __metal_driver_sifive_plic0_control_base(
20404230:	fdc42503          	lw	a0,-36(s0)
20404234:	35e9                	jal	204040fe <__metal_driver_sifive_plic0_control_base>
20404236:	fea42623          	sw	a0,-20(s0)
/home/khj/Desktop/hello_standalone/freedom-metal/src/drivers/riscv_plic0.c:31
        (struct metal_interrupt *)plic);
    __METAL_ACCESS_ONCE(
2040423a:	fd842783          	lw	a5,-40(s0)
2040423e:	00c79713          	slli	a4,a5,0xc
20404242:	fec42783          	lw	a5,-20(s0)
20404246:	973e                	add	a4,a4,a5
20404248:	002007b7          	lui	a5,0x200
2040424c:	0791                	addi	a5,a5,4
2040424e:	97ba                	add	a5,a5,a4
20404250:	873e                	mv	a4,a5
/home/khj/Desktop/hello_standalone/freedom-metal/src/drivers/riscv_plic0.c:34
        (__metal_io_u32 *)(control_base + METAL_RISCV_PLIC0_CONTEXT_BASE +
                           (context_id * METAL_RISCV_PLIC0_CONTEXT_PER_HART) +
                           METAL_RISCV_PLIC0_CONTEXT_CLAIM)) = id;
20404252:	fd442783          	lw	a5,-44(s0)
20404256:	c31c                	sw	a5,0(a4)
/home/khj/Desktop/hello_standalone/freedom-metal/src/drivers/riscv_plic0.c:35
}
20404258:	0001                	nop
2040425a:	50b2                	lw	ra,44(sp)
2040425c:	5422                	lw	s0,40(sp)
2040425e:	6145                	addi	sp,sp,48
20404260:	8082                	ret

20404262 <__metal_plic0_set_threshold>:
__metal_plic0_set_threshold():
/home/khj/Desktop/hello_standalone/freedom-metal/src/drivers/riscv_plic0.c:38

int __metal_plic0_set_threshold(struct metal_interrupt *controller,
                                int context_id, unsigned int threshold) {
20404262:	7179                	addi	sp,sp,-48
20404264:	d606                	sw	ra,44(sp)
20404266:	d422                	sw	s0,40(sp)
20404268:	1800                	addi	s0,sp,48
2040426a:	fca42e23          	sw	a0,-36(s0)
2040426e:	fcb42c23          	sw	a1,-40(s0)
20404272:	fcc42a23          	sw	a2,-44(s0)
/home/khj/Desktop/hello_standalone/freedom-metal/src/drivers/riscv_plic0.c:40
    unsigned long control_base =
        __metal_driver_sifive_plic0_control_base(controller);
20404276:	fdc42503          	lw	a0,-36(s0)
2040427a:	3551                	jal	204040fe <__metal_driver_sifive_plic0_control_base>
2040427c:	fea42623          	sw	a0,-20(s0)
/home/khj/Desktop/hello_standalone/freedom-metal/src/drivers/riscv_plic0.c:41
    __METAL_ACCESS_ONCE(
20404280:	fd842783          	lw	a5,-40(s0)
20404284:	00c79713          	slli	a4,a5,0xc
20404288:	fec42783          	lw	a5,-20(s0)
2040428c:	973e                	add	a4,a4,a5
2040428e:	002007b7          	lui	a5,0x200
20404292:	97ba                	add	a5,a5,a4
20404294:	873e                	mv	a4,a5
/home/khj/Desktop/hello_standalone/freedom-metal/src/drivers/riscv_plic0.c:44
        (__metal_io_u32 *)(control_base + METAL_RISCV_PLIC0_CONTEXT_BASE +
                           (context_id * METAL_RISCV_PLIC0_CONTEXT_PER_HART) +
                           METAL_RISCV_PLIC0_CONTEXT_THRESHOLD)) = threshold;
20404296:	fd442783          	lw	a5,-44(s0)
2040429a:	c31c                	sw	a5,0(a4)
/home/khj/Desktop/hello_standalone/freedom-metal/src/drivers/riscv_plic0.c:45
    return 0;
2040429c:	4781                	li	a5,0
/home/khj/Desktop/hello_standalone/freedom-metal/src/drivers/riscv_plic0.c:46
}
2040429e:	853e                	mv	a0,a5
204042a0:	50b2                	lw	ra,44(sp)
204042a2:	5422                	lw	s0,40(sp)
204042a4:	6145                	addi	sp,sp,48
204042a6:	8082                	ret

204042a8 <__metal_plic0_get_threshold>:
__metal_plic0_get_threshold():
/home/khj/Desktop/hello_standalone/freedom-metal/src/drivers/riscv_plic0.c:49

unsigned int __metal_plic0_get_threshold(struct metal_interrupt *controller,
                                         int context_id) {
204042a8:	7179                	addi	sp,sp,-48
204042aa:	d606                	sw	ra,44(sp)
204042ac:	d422                	sw	s0,40(sp)
204042ae:	1800                	addi	s0,sp,48
204042b0:	fca42e23          	sw	a0,-36(s0)
204042b4:	fcb42c23          	sw	a1,-40(s0)
/home/khj/Desktop/hello_standalone/freedom-metal/src/drivers/riscv_plic0.c:51
    unsigned long control_base =
        __metal_driver_sifive_plic0_control_base(controller);
204042b8:	fdc42503          	lw	a0,-36(s0)
204042bc:	3589                	jal	204040fe <__metal_driver_sifive_plic0_control_base>
204042be:	fea42623          	sw	a0,-20(s0)
/home/khj/Desktop/hello_standalone/freedom-metal/src/drivers/riscv_plic0.c:52
    return __METAL_ACCESS_ONCE(
204042c2:	fd842783          	lw	a5,-40(s0)
204042c6:	00c79713          	slli	a4,a5,0xc
204042ca:	fec42783          	lw	a5,-20(s0)
204042ce:	973e                	add	a4,a4,a5
204042d0:	002007b7          	lui	a5,0x200
204042d4:	97ba                	add	a5,a5,a4
204042d6:	439c                	lw	a5,0(a5)
/home/khj/Desktop/hello_standalone/freedom-metal/src/drivers/riscv_plic0.c:56
        (__metal_io_u32 *)(control_base + METAL_RISCV_PLIC0_CONTEXT_BASE +
                           (context_id * METAL_RISCV_PLIC0_CONTEXT_PER_HART) +
                           METAL_RISCV_PLIC0_CONTEXT_THRESHOLD));
}
204042d8:	853e                	mv	a0,a5
204042da:	50b2                	lw	ra,44(sp)
204042dc:	5422                	lw	s0,40(sp)
204042de:	6145                	addi	sp,sp,48
204042e0:	8082                	ret

204042e2 <__metal_driver_riscv_plic0_set_priority>:
__metal_driver_riscv_plic0_set_priority():
/home/khj/Desktop/hello_standalone/freedom-metal/src/drivers/riscv_plic0.c:59

int __metal_driver_riscv_plic0_set_priority(struct metal_interrupt *controller,
                                            int id, unsigned int priority) {
204042e2:	7179                	addi	sp,sp,-48
204042e4:	d606                	sw	ra,44(sp)
204042e6:	d422                	sw	s0,40(sp)
204042e8:	1800                	addi	s0,sp,48
204042ea:	fca42e23          	sw	a0,-36(s0)
204042ee:	fcb42c23          	sw	a1,-40(s0)
204042f2:	fcc42a23          	sw	a2,-44(s0)
/home/khj/Desktop/hello_standalone/freedom-metal/src/drivers/riscv_plic0.c:60
    unsigned long control_base = __metal_driver_sifive_plic0_control_base(
204042f6:	fdc42503          	lw	a0,-36(s0)
204042fa:	3511                	jal	204040fe <__metal_driver_sifive_plic0_control_base>
204042fc:	fea42623          	sw	a0,-20(s0)
/home/khj/Desktop/hello_standalone/freedom-metal/src/drivers/riscv_plic0.c:62
        (struct metal_interrupt *)controller);
    unsigned int max_priority = __metal_driver_sifive_plic0_max_priority(
20404300:	fdc42503          	lw	a0,-36(s0)
20404304:	35b1                	jal	20404150 <__metal_driver_sifive_plic0_max_priority>
20404306:	87aa                	mv	a5,a0
20404308:	fef42423          	sw	a5,-24(s0)
/home/khj/Desktop/hello_standalone/freedom-metal/src/drivers/riscv_plic0.c:64
        (struct metal_interrupt *)controller);
    if ((max_priority) && (priority < max_priority)) {
2040430c:	fe842783          	lw	a5,-24(s0)
20404310:	c785                	beqz	a5,20404338 <__metal_driver_riscv_plic0_set_priority+0x56>
/home/khj/Desktop/hello_standalone/freedom-metal/src/drivers/riscv_plic0.c:64 (discriminator 1)
20404312:	fd442703          	lw	a4,-44(s0)
20404316:	fe842783          	lw	a5,-24(s0)
2040431a:	00f77f63          	bgeu	a4,a5,20404338 <__metal_driver_riscv_plic0_set_priority+0x56>
/home/khj/Desktop/hello_standalone/freedom-metal/src/drivers/riscv_plic0.c:65
        __METAL_ACCESS_ONCE(
2040431e:	fd842783          	lw	a5,-40(s0)
20404322:	078a                	slli	a5,a5,0x2
20404324:	873e                	mv	a4,a5
20404326:	fec42783          	lw	a5,-20(s0)
2040432a:	97ba                	add	a5,a5,a4
2040432c:	873e                	mv	a4,a5
/home/khj/Desktop/hello_standalone/freedom-metal/src/drivers/riscv_plic0.c:67
            (__metal_io_u32 *)(control_base + METAL_RISCV_PLIC0_PRIORITY_BASE +
                               (id << METAL_PLIC_SOURCE_PRIORITY_SHIFT))) =
2040432e:	fd442783          	lw	a5,-44(s0)
20404332:	c31c                	sw	a5,0(a4)
/home/khj/Desktop/hello_standalone/freedom-metal/src/drivers/riscv_plic0.c:69
            priority;
        return 0;
20404334:	4781                	li	a5,0
20404336:	a011                	j	2040433a <__metal_driver_riscv_plic0_set_priority+0x58>
/home/khj/Desktop/hello_standalone/freedom-metal/src/drivers/riscv_plic0.c:71
    }
    return -1;
20404338:	57fd                	li	a5,-1
/home/khj/Desktop/hello_standalone/freedom-metal/src/drivers/riscv_plic0.c:72
}
2040433a:	853e                	mv	a0,a5
2040433c:	50b2                	lw	ra,44(sp)
2040433e:	5422                	lw	s0,40(sp)
20404340:	6145                	addi	sp,sp,48
20404342:	8082                	ret

20404344 <__metal_driver_riscv_plic0_get_priority>:
__metal_driver_riscv_plic0_get_priority():
/home/khj/Desktop/hello_standalone/freedom-metal/src/drivers/riscv_plic0.c:76

unsigned int
__metal_driver_riscv_plic0_get_priority(struct metal_interrupt *controller,
                                        int id) {
20404344:	7179                	addi	sp,sp,-48
20404346:	d606                	sw	ra,44(sp)
20404348:	d422                	sw	s0,40(sp)
2040434a:	1800                	addi	s0,sp,48
2040434c:	fca42e23          	sw	a0,-36(s0)
20404350:	fcb42c23          	sw	a1,-40(s0)
/home/khj/Desktop/hello_standalone/freedom-metal/src/drivers/riscv_plic0.c:78
    unsigned long control_base =
        __metal_driver_sifive_plic0_control_base(controller);
20404354:	fdc42503          	lw	a0,-36(s0)
20404358:	335d                	jal	204040fe <__metal_driver_sifive_plic0_control_base>
2040435a:	fea42623          	sw	a0,-20(s0)
/home/khj/Desktop/hello_standalone/freedom-metal/src/drivers/riscv_plic0.c:80

    return __METAL_ACCESS_ONCE(
2040435e:	fd842783          	lw	a5,-40(s0)
20404362:	078a                	slli	a5,a5,0x2
20404364:	873e                	mv	a4,a5
20404366:	fec42783          	lw	a5,-20(s0)
2040436a:	97ba                	add	a5,a5,a4
2040436c:	439c                	lw	a5,0(a5)
/home/khj/Desktop/hello_standalone/freedom-metal/src/drivers/riscv_plic0.c:83
        (__metal_io_u32 *)(control_base + METAL_RISCV_PLIC0_PRIORITY_BASE +
                           (id << METAL_PLIC_SOURCE_PRIORITY_SHIFT)));
}
2040436e:	853e                	mv	a0,a5
20404370:	50b2                	lw	ra,44(sp)
20404372:	5422                	lw	s0,40(sp)
20404374:	6145                	addi	sp,sp,48
20404376:	8082                	ret

20404378 <__metal_plic0_enable>:
__metal_plic0_enable():
/home/khj/Desktop/hello_standalone/freedom-metal/src/drivers/riscv_plic0.c:86

int __metal_plic0_enable(struct __metal_driver_riscv_plic0 *plic,
                         int context_id, int id, int enable) {
20404378:	7179                	addi	sp,sp,-48
2040437a:	d606                	sw	ra,44(sp)
2040437c:	d422                	sw	s0,40(sp)
2040437e:	1800                	addi	s0,sp,48
20404380:	fca42e23          	sw	a0,-36(s0)
20404384:	fcb42c23          	sw	a1,-40(s0)
20404388:	fcc42a23          	sw	a2,-44(s0)
2040438c:	fcd42823          	sw	a3,-48(s0)
/home/khj/Desktop/hello_standalone/freedom-metal/src/drivers/riscv_plic0.c:88
    unsigned int current;
    unsigned long control_base = __metal_driver_sifive_plic0_control_base(
20404390:	fdc42503          	lw	a0,-36(s0)
20404394:	33ad                	jal	204040fe <__metal_driver_sifive_plic0_control_base>
20404396:	fea42623          	sw	a0,-20(s0)
/home/khj/Desktop/hello_standalone/freedom-metal/src/drivers/riscv_plic0.c:91
        (struct metal_interrupt *)plic);

    current = __METAL_ACCESS_ONCE(
2040439a:	fd842783          	lw	a5,-40(s0)
2040439e:	00779713          	slli	a4,a5,0x7
204043a2:	fec42783          	lw	a5,-20(s0)
204043a6:	97ba                	add	a5,a5,a4
204043a8:	fd442703          	lw	a4,-44(s0)
204043ac:	8715                	srai	a4,a4,0x5
204043ae:	070a                	slli	a4,a4,0x2
204043b0:	973e                	add	a4,a4,a5
204043b2:	6789                	lui	a5,0x2
204043b4:	97ba                	add	a5,a5,a4
204043b6:	439c                	lw	a5,0(a5)
204043b8:	fef42423          	sw	a5,-24(s0)
/home/khj/Desktop/hello_standalone/freedom-metal/src/drivers/riscv_plic0.c:100
    __METAL_ACCESS_ONCE(
        (__metal_io_u32 *)(control_base + METAL_RISCV_PLIC0_ENABLE_BASE +
                           (context_id * METAL_RISCV_PLIC0_ENABLE_PER_HART) +
                           ((id >> METAL_PLIC_SOURCE_SHIFT) * 4))) =
        enable ? (current | (1 << (id & METAL_PLIC_SOURCE_MASK)))
               : (current & ~(1 << (id & METAL_PLIC_SOURCE_MASK)));
204043bc:	fd042783          	lw	a5,-48(s0)
204043c0:	cf81                	beqz	a5,204043d8 <__metal_plic0_enable+0x60>
/home/khj/Desktop/hello_standalone/freedom-metal/src/drivers/riscv_plic0.c:99 (discriminator 1)
        enable ? (current | (1 << (id & METAL_PLIC_SOURCE_MASK)))
204043c2:	fd442783          	lw	a5,-44(s0)
204043c6:	8bfd                	andi	a5,a5,31
204043c8:	4705                	li	a4,1
204043ca:	00f717b3          	sll	a5,a4,a5
204043ce:	873e                	mv	a4,a5
/home/khj/Desktop/hello_standalone/freedom-metal/src/drivers/riscv_plic0.c:100 (discriminator 1)
               : (current & ~(1 << (id & METAL_PLIC_SOURCE_MASK)));
204043d0:	fe842783          	lw	a5,-24(s0)
204043d4:	8fd9                	or	a5,a5,a4
204043d6:	a829                	j	204043f0 <__metal_plic0_enable+0x78>
/home/khj/Desktop/hello_standalone/freedom-metal/src/drivers/riscv_plic0.c:100 (discriminator 2)
204043d8:	fd442783          	lw	a5,-44(s0)
204043dc:	8bfd                	andi	a5,a5,31
204043de:	4705                	li	a4,1
204043e0:	00f717b3          	sll	a5,a4,a5
204043e4:	fff7c793          	not	a5,a5
204043e8:	873e                	mv	a4,a5
204043ea:	fe842783          	lw	a5,-24(s0)
204043ee:	8ff9                	and	a5,a5,a4
/home/khj/Desktop/hello_standalone/freedom-metal/src/drivers/riscv_plic0.c:95
    __METAL_ACCESS_ONCE(
204043f0:	fd842703          	lw	a4,-40(s0)
204043f4:	00771693          	slli	a3,a4,0x7
204043f8:	fec42703          	lw	a4,-20(s0)
204043fc:	9736                	add	a4,a4,a3
204043fe:	fd442683          	lw	a3,-44(s0)
20404402:	8695                	srai	a3,a3,0x5
20404404:	068a                	slli	a3,a3,0x2
20404406:	96ba                	add	a3,a3,a4
20404408:	6709                	lui	a4,0x2
2040440a:	9736                	add	a4,a4,a3
/home/khj/Desktop/hello_standalone/freedom-metal/src/drivers/riscv_plic0.c:98
                           ((id >> METAL_PLIC_SOURCE_SHIFT) * 4))) =
2040440c:	c31c                	sw	a5,0(a4)
/home/khj/Desktop/hello_standalone/freedom-metal/src/drivers/riscv_plic0.c:102

    return 0;
2040440e:	4781                	li	a5,0
/home/khj/Desktop/hello_standalone/freedom-metal/src/drivers/riscv_plic0.c:103
}
20404410:	853e                	mv	a0,a5
20404412:	50b2                	lw	ra,44(sp)
20404414:	5422                	lw	s0,40(sp)
20404416:	6145                	addi	sp,sp,48
20404418:	8082                	ret

2040441a <__metal_plic0_default_handler>:
__metal_plic0_default_handler():
/home/khj/Desktop/hello_standalone/freedom-metal/src/drivers/riscv_plic0.c:105

void __metal_plic0_default_handler(int id, void *priv) { metal_shutdown(300); }
2040441a:	1101                	addi	sp,sp,-32
2040441c:	ce06                	sw	ra,28(sp)
2040441e:	cc22                	sw	s0,24(sp)
20404420:	1000                	addi	s0,sp,32
20404422:	fea42623          	sw	a0,-20(s0)
20404426:	feb42423          	sw	a1,-24(s0)
2040442a:	12c00513          	li	a0,300
2040442e:	05e020ef          	jal	ra,2040648c <metal_shutdown>

20404432 <__metal_plic0_handler>:
__metal_plic0_handler():
/home/khj/Desktop/hello_standalone/freedom-metal/src/drivers/riscv_plic0.c:107

void __metal_plic0_handler(int id, void *priv) {
20404432:	7179                	addi	sp,sp,-48
20404434:	d606                	sw	ra,44(sp)
20404436:	d422                	sw	s0,40(sp)
20404438:	1800                	addi	s0,sp,48
2040443a:	fca42e23          	sw	a0,-36(s0)
2040443e:	fcb42c23          	sw	a1,-40(s0)
/home/khj/Desktop/hello_standalone/freedom-metal/src/drivers/riscv_plic0.c:108
    struct __metal_driver_riscv_plic0 *plic = priv;
20404442:	fd842783          	lw	a5,-40(s0)
20404446:	fef42623          	sw	a5,-20(s0)
/home/khj/Desktop/hello_standalone/freedom-metal/src/drivers/riscv_plic0.c:110
    int contextid =
        __metal_driver_sifive_plic0_context_ids(__metal_myhart_id());
2040444a:	bfefe0ef          	jal	ra,20402848 <__metal_myhart_id>
2040444e:	87aa                	mv	a5,a0
20404450:	853e                	mv	a0,a5
20404452:	3b85                	jal	204041c2 <__metal_driver_sifive_plic0_context_ids>
20404454:	fea42423          	sw	a0,-24(s0)
/home/khj/Desktop/hello_standalone/freedom-metal/src/drivers/riscv_plic0.c:111
    unsigned int idx = __metal_plic0_claim_interrupt(plic, contextid);
20404458:	fe842583          	lw	a1,-24(s0)
2040445c:	fec42503          	lw	a0,-20(s0)
20404460:	3341                	jal	204041e0 <__metal_plic0_claim_interrupt>
20404462:	fea42223          	sw	a0,-28(s0)
/home/khj/Desktop/hello_standalone/freedom-metal/src/drivers/riscv_plic0.c:112
    unsigned int num_interrupts = __metal_driver_sifive_plic0_num_interrupts(
20404466:	fec42503          	lw	a0,-20(s0)
2040446a:	397d                	jal	20404128 <__metal_driver_sifive_plic0_num_interrupts>
2040446c:	87aa                	mv	a5,a0
2040446e:	fef42023          	sw	a5,-32(s0)
/home/khj/Desktop/hello_standalone/freedom-metal/src/drivers/riscv_plic0.c:115
        (struct metal_interrupt *)plic);

    if ((idx < num_interrupts) && (plic->metal_exint_table[idx])) {
20404472:	fe442703          	lw	a4,-28(s0)
20404476:	fe042783          	lw	a5,-32(s0)
2040447a:	04f77263          	bgeu	a4,a5,204044be <__metal_plic0_handler+0x8c>
/home/khj/Desktop/hello_standalone/freedom-metal/src/drivers/riscv_plic0.c:115 (discriminator 1)
2040447e:	fec42703          	lw	a4,-20(s0)
20404482:	fe442783          	lw	a5,-28(s0)
20404486:	078a                	slli	a5,a5,0x2
20404488:	97ba                	add	a5,a5,a4
2040448a:	479c                	lw	a5,8(a5)
2040448c:	cb8d                	beqz	a5,204044be <__metal_plic0_handler+0x8c>
/home/khj/Desktop/hello_standalone/freedom-metal/src/drivers/riscv_plic0.c:116
        plic->metal_exint_table[idx](idx,
2040448e:	fec42703          	lw	a4,-20(s0)
20404492:	fe442783          	lw	a5,-28(s0)
20404496:	078a                	slli	a5,a5,0x2
20404498:	97ba                	add	a5,a5,a4
2040449a:	0087a803          	lw	a6,8(a5) # 2008 <__heap_size+0x1808>
2040449e:	fe442603          	lw	a2,-28(s0)
204044a2:	fec42683          	lw	a3,-20(s0)
204044a6:	fe442703          	lw	a4,-28(s0)
204044aa:	87ba                	mv	a5,a4
204044ac:	0786                	slli	a5,a5,0x1
204044ae:	97ba                	add	a5,a5,a4
204044b0:	078e                	slli	a5,a5,0x3
204044b2:	97b6                	add	a5,a5,a3
204044b4:	0887a783          	lw	a5,136(a5)
204044b8:	85be                	mv	a1,a5
204044ba:	8532                	mv	a0,a2
204044bc:	9802                	jalr	a6
/home/khj/Desktop/hello_standalone/freedom-metal/src/drivers/riscv_plic0.c:120
                                     plic->metal_exdata_table[idx].exint_data);
    }

    __metal_plic0_complete_interrupt(plic, contextid, idx);
204044be:	fe442603          	lw	a2,-28(s0)
204044c2:	fe842583          	lw	a1,-24(s0)
204044c6:	fec42503          	lw	a0,-20(s0)
204044ca:	3b89                	jal	2040421c <__metal_plic0_complete_interrupt>
/home/khj/Desktop/hello_standalone/freedom-metal/src/drivers/riscv_plic0.c:121
}
204044cc:	0001                	nop
204044ce:	50b2                	lw	ra,44(sp)
204044d0:	5422                	lw	s0,40(sp)
204044d2:	6145                	addi	sp,sp,48
204044d4:	8082                	ret

204044d6 <__metal_driver_riscv_plic0_init>:
__metal_driver_riscv_plic0_init():
/home/khj/Desktop/hello_standalone/freedom-metal/src/drivers/riscv_plic0.c:123

void __metal_driver_riscv_plic0_init(struct metal_interrupt *controller) {
204044d6:	7139                	addi	sp,sp,-64
204044d8:	de06                	sw	ra,60(sp)
204044da:	dc22                	sw	s0,56(sp)
204044dc:	0080                	addi	s0,sp,64
204044de:	fca42623          	sw	a0,-52(s0)
/home/khj/Desktop/hello_standalone/freedom-metal/src/drivers/riscv_plic0.c:124
    struct __metal_driver_riscv_plic0 *plic = (void *)(controller);
204044e2:	fcc42783          	lw	a5,-52(s0)
204044e6:	fef42223          	sw	a5,-28(s0)
/home/khj/Desktop/hello_standalone/freedom-metal/src/drivers/riscv_plic0.c:126

    if (!plic->init_done) {
204044ea:	fe442783          	lw	a5,-28(s0)
204044ee:	43dc                	lw	a5,4(a5)
204044f0:	12079663          	bnez	a5,2040461c <__metal_driver_riscv_plic0_init+0x146>
/home/khj/Desktop/hello_standalone/freedom-metal/src/drivers/riscv_plic0.c:130
        int num_interrupts, line;
        struct metal_interrupt *intc;

        for (int parent = 0; parent < __METAL_PLIC_NUM_PARENTS; parent++) {
204044f4:	fe042623          	sw	zero,-20(s0)
204044f8:	aa11                	j	2040460c <__metal_driver_riscv_plic0_init+0x136>
/home/khj/Desktop/hello_standalone/freedom-metal/src/drivers/riscv_plic0.c:132
            num_interrupts =
                __metal_driver_sifive_plic0_num_interrupts(controller);
204044fa:	fcc42503          	lw	a0,-52(s0)
204044fe:	312d                	jal	20404128 <__metal_driver_sifive_plic0_num_interrupts>
20404500:	fea42023          	sw	a0,-32(s0)
/home/khj/Desktop/hello_standalone/freedom-metal/src/drivers/riscv_plic0.c:133
            intc = __metal_driver_sifive_plic0_interrupt_parents(controller,
20404504:	fec42583          	lw	a1,-20(s0)
20404508:	fcc42503          	lw	a0,-52(s0)
2040450c:	31b5                	jal	20404178 <__metal_driver_sifive_plic0_interrupt_parents>
2040450e:	fca42e23          	sw	a0,-36(s0)
/home/khj/Desktop/hello_standalone/freedom-metal/src/drivers/riscv_plic0.c:136
                                                                 parent);
            line =
                __metal_driver_sifive_plic0_interrupt_lines(controller, parent);
20404512:	fec42583          	lw	a1,-20(s0)
20404516:	fcc42503          	lw	a0,-52(s0)
2040451a:	3159                	jal	204041a0 <__metal_driver_sifive_plic0_interrupt_lines>
2040451c:	fca42c23          	sw	a0,-40(s0)
/home/khj/Desktop/hello_standalone/freedom-metal/src/drivers/riscv_plic0.c:139

            /* Initialize ist parent controller, aka cpu_intc. */
            intc->vtable->interrupt_init(intc);
20404520:	fdc42783          	lw	a5,-36(s0)
20404524:	439c                	lw	a5,0(a5)
20404526:	439c                	lw	a5,0(a5)
20404528:	fdc42503          	lw	a0,-36(s0)
2040452c:	9782                	jalr	a5
/home/khj/Desktop/hello_standalone/freedom-metal/src/drivers/riscv_plic0.c:141

            for (int i = 0; i < PLIC0_MAX_INTERRUPTS; i++) {
2040452e:	fe042423          	sw	zero,-24(s0)
20404532:	a885                	j	204045a2 <__metal_driver_riscv_plic0_init+0xcc>
/home/khj/Desktop/hello_standalone/freedom-metal/src/drivers/riscv_plic0.c:142
                __metal_plic0_enable(plic, parent, i, METAL_DISABLE);
20404534:	4681                	li	a3,0
20404536:	fe842603          	lw	a2,-24(s0)
2040453a:	fec42583          	lw	a1,-20(s0)
2040453e:	fe442503          	lw	a0,-28(s0)
20404542:	3d1d                	jal	20404378 <__metal_plic0_enable>
/home/khj/Desktop/hello_standalone/freedom-metal/src/drivers/riscv_plic0.c:143
                if (i < num_interrupts) {
20404544:	fe842703          	lw	a4,-24(s0)
20404548:	fe042783          	lw	a5,-32(s0)
2040454c:	04f75663          	bge	a4,a5,20404598 <__metal_driver_riscv_plic0_init+0xc2>
/home/khj/Desktop/hello_standalone/freedom-metal/src/drivers/riscv_plic0.c:144
                    __metal_driver_riscv_plic0_set_priority(controller, i, 0);
20404550:	4601                	li	a2,0
20404552:	fe842583          	lw	a1,-24(s0)
20404556:	fcc42503          	lw	a0,-52(s0)
2040455a:	3361                	jal	204042e2 <__metal_driver_riscv_plic0_set_priority>
/home/khj/Desktop/hello_standalone/freedom-metal/src/drivers/riscv_plic0.c:145
                    plic->metal_exint_table[i] = NULL;
2040455c:	fe442703          	lw	a4,-28(s0)
20404560:	fe842783          	lw	a5,-24(s0)
20404564:	078a                	slli	a5,a5,0x2
20404566:	97ba                	add	a5,a5,a4
20404568:	0007a423          	sw	zero,8(a5)
/home/khj/Desktop/hello_standalone/freedom-metal/src/drivers/riscv_plic0.c:146
                    plic->metal_exdata_table[i].sub_int = NULL;
2040456c:	fe442683          	lw	a3,-28(s0)
20404570:	fe842703          	lw	a4,-24(s0)
20404574:	87ba                	mv	a5,a4
20404576:	0786                	slli	a5,a5,0x1
20404578:	97ba                	add	a5,a5,a4
2040457a:	078e                	slli	a5,a5,0x3
2040457c:	97b6                	add	a5,a5,a3
2040457e:	0807a223          	sw	zero,132(a5)
/home/khj/Desktop/hello_standalone/freedom-metal/src/drivers/riscv_plic0.c:147
                    plic->metal_exdata_table[i].exint_data = NULL;
20404582:	fe442683          	lw	a3,-28(s0)
20404586:	fe842703          	lw	a4,-24(s0)
2040458a:	87ba                	mv	a5,a4
2040458c:	0786                	slli	a5,a5,0x1
2040458e:	97ba                	add	a5,a5,a4
20404590:	078e                	slli	a5,a5,0x3
20404592:	97b6                	add	a5,a5,a3
20404594:	0807a423          	sw	zero,136(a5)
/home/khj/Desktop/hello_standalone/freedom-metal/src/drivers/riscv_plic0.c:141 (discriminator 2)
            for (int i = 0; i < PLIC0_MAX_INTERRUPTS; i++) {
20404598:	fe842783          	lw	a5,-24(s0)
2040459c:	0785                	addi	a5,a5,1
2040459e:	fef42423          	sw	a5,-24(s0)
/home/khj/Desktop/hello_standalone/freedom-metal/src/drivers/riscv_plic0.c:141 (discriminator 1)
204045a2:	fe842703          	lw	a4,-24(s0)
204045a6:	3ff00793          	li	a5,1023
204045aa:	f8e7d5e3          	bge	a5,a4,20404534 <__metal_driver_riscv_plic0_init+0x5e>
/home/khj/Desktop/hello_standalone/freedom-metal/src/drivers/riscv_plic0.c:151 (discriminator 2)
                }
            }

            __metal_plic0_set_threshold(controller, parent, 0);
204045ae:	4601                	li	a2,0
204045b0:	fec42583          	lw	a1,-20(s0)
204045b4:	fcc42503          	lw	a0,-52(s0)
204045b8:	316d                	jal	20404262 <__metal_plic0_set_threshold>
/home/khj/Desktop/hello_standalone/freedom-metal/src/drivers/riscv_plic0.c:154 (discriminator 2)

            /* Register plic (ext) interrupt with with parent controller */
            intc->vtable->interrupt_register(intc, line, NULL, plic);
204045ba:	fdc42783          	lw	a5,-36(s0)
204045be:	439c                	lw	a5,0(a5)
204045c0:	4fdc                	lw	a5,28(a5)
204045c2:	fe442683          	lw	a3,-28(s0)
204045c6:	4601                	li	a2,0
204045c8:	fd842583          	lw	a1,-40(s0)
204045cc:	fdc42503          	lw	a0,-36(s0)
204045d0:	9782                	jalr	a5
/home/khj/Desktop/hello_standalone/freedom-metal/src/drivers/riscv_plic0.c:156 (discriminator 2)
            /* Register plic handler for dispatching its device interrupts */
            intc->vtable->interrupt_register(intc, line, __metal_plic0_handler,
204045d2:	fdc42783          	lw	a5,-36(s0)
204045d6:	439c                	lw	a5,0(a5)
204045d8:	4fd8                	lw	a4,28(a5)
204045da:	fe442683          	lw	a3,-28(s0)
204045de:	204047b7          	lui	a5,0x20404
204045e2:	43278613          	addi	a2,a5,1074 # 20404432 <__metal_plic0_handler>
204045e6:	fd842583          	lw	a1,-40(s0)
204045ea:	fdc42503          	lw	a0,-36(s0)
204045ee:	9702                	jalr	a4
/home/khj/Desktop/hello_standalone/freedom-metal/src/drivers/riscv_plic0.c:159 (discriminator 2)
                                             plic);
            /* Enable plic (ext) interrupt with with parent controller */
            intc->vtable->interrupt_enable(intc, line);
204045f0:	fdc42783          	lw	a5,-36(s0)
204045f4:	439c                	lw	a5,0(a5)
204045f6:	53dc                	lw	a5,36(a5)
204045f8:	fd842583          	lw	a1,-40(s0)
204045fc:	fdc42503          	lw	a0,-36(s0)
20404600:	9782                	jalr	a5
/home/khj/Desktop/hello_standalone/freedom-metal/src/drivers/riscv_plic0.c:130 (discriminator 2)
        for (int parent = 0; parent < __METAL_PLIC_NUM_PARENTS; parent++) {
20404602:	fec42783          	lw	a5,-20(s0)
20404606:	0785                	addi	a5,a5,1
20404608:	fef42623          	sw	a5,-20(s0)
/home/khj/Desktop/hello_standalone/freedom-metal/src/drivers/riscv_plic0.c:130 (discriminator 1)
2040460c:	fec42783          	lw	a5,-20(s0)
20404610:	eef055e3          	blez	a5,204044fa <__metal_driver_riscv_plic0_init+0x24>
/home/khj/Desktop/hello_standalone/freedom-metal/src/drivers/riscv_plic0.c:161
        }
        plic->init_done = 1;
20404614:	fe442783          	lw	a5,-28(s0)
20404618:	4705                	li	a4,1
2040461a:	c3d8                	sw	a4,4(a5)
/home/khj/Desktop/hello_standalone/freedom-metal/src/drivers/riscv_plic0.c:163
    }
}
2040461c:	0001                	nop
2040461e:	50f2                	lw	ra,60(sp)
20404620:	5462                	lw	s0,56(sp)
20404622:	6121                	addi	sp,sp,64
20404624:	8082                	ret

20404626 <__metal_driver_riscv_plic0_register>:
__metal_driver_riscv_plic0_register():
/home/khj/Desktop/hello_standalone/freedom-metal/src/drivers/riscv_plic0.c:167

int __metal_driver_riscv_plic0_register(struct metal_interrupt *controller,
                                        int id, metal_interrupt_handler_t isr,
                                        void *priv) {
20404626:	7179                	addi	sp,sp,-48
20404628:	d606                	sw	ra,44(sp)
2040462a:	d422                	sw	s0,40(sp)
2040462c:	1800                	addi	s0,sp,48
2040462e:	fca42e23          	sw	a0,-36(s0)
20404632:	fcb42c23          	sw	a1,-40(s0)
20404636:	fcc42a23          	sw	a2,-44(s0)
2040463a:	fcd42823          	sw	a3,-48(s0)
/home/khj/Desktop/hello_standalone/freedom-metal/src/drivers/riscv_plic0.c:168
    struct __metal_driver_riscv_plic0 *plic = (void *)(controller);
2040463e:	fdc42783          	lw	a5,-36(s0)
20404642:	fef42623          	sw	a5,-20(s0)
/home/khj/Desktop/hello_standalone/freedom-metal/src/drivers/riscv_plic0.c:170

    if (id >= __metal_driver_sifive_plic0_num_interrupts(controller)) {
20404646:	fdc42503          	lw	a0,-36(s0)
2040464a:	adfff0ef          	jal	ra,20404128 <__metal_driver_sifive_plic0_num_interrupts>
2040464e:	872a                	mv	a4,a0
20404650:	fd842783          	lw	a5,-40(s0)
20404654:	00e7c463          	blt	a5,a4,2040465c <__metal_driver_riscv_plic0_register+0x36>
/home/khj/Desktop/hello_standalone/freedom-metal/src/drivers/riscv_plic0.c:171
        return -1;
20404658:	57fd                	li	a5,-1
2040465a:	a049                	j	204046dc <__metal_driver_riscv_plic0_register+0xb6>
/home/khj/Desktop/hello_standalone/freedom-metal/src/drivers/riscv_plic0.c:174
    }

    if (isr) {
2040465c:	fd442783          	lw	a5,-44(s0)
20404660:	cf95                	beqz	a5,2040469c <__metal_driver_riscv_plic0_register+0x76>
/home/khj/Desktop/hello_standalone/freedom-metal/src/drivers/riscv_plic0.c:175
        __metal_driver_riscv_plic0_set_priority(controller, id, 2);
20404662:	4609                	li	a2,2
20404664:	fd842583          	lw	a1,-40(s0)
20404668:	fdc42503          	lw	a0,-36(s0)
2040466c:	399d                	jal	204042e2 <__metal_driver_riscv_plic0_set_priority>
/home/khj/Desktop/hello_standalone/freedom-metal/src/drivers/riscv_plic0.c:176
        plic->metal_exint_table[id] = isr;
2040466e:	fec42703          	lw	a4,-20(s0)
20404672:	fd842783          	lw	a5,-40(s0)
20404676:	078a                	slli	a5,a5,0x2
20404678:	97ba                	add	a5,a5,a4
2040467a:	fd442703          	lw	a4,-44(s0)
2040467e:	c798                	sw	a4,8(a5)
/home/khj/Desktop/hello_standalone/freedom-metal/src/drivers/riscv_plic0.c:177
        plic->metal_exdata_table[id].exint_data = priv;
20404680:	fec42683          	lw	a3,-20(s0)
20404684:	fd842703          	lw	a4,-40(s0)
20404688:	87ba                	mv	a5,a4
2040468a:	0786                	slli	a5,a5,0x1
2040468c:	97ba                	add	a5,a5,a4
2040468e:	078e                	slli	a5,a5,0x3
20404690:	97b6                	add	a5,a5,a3
20404692:	fd042703          	lw	a4,-48(s0)
20404696:	08e7a423          	sw	a4,136(a5)
2040469a:	a081                	j	204046da <__metal_driver_riscv_plic0_register+0xb4>
/home/khj/Desktop/hello_standalone/freedom-metal/src/drivers/riscv_plic0.c:179
    } else {
        __metal_driver_riscv_plic0_set_priority(controller, id, 1);
2040469c:	4605                	li	a2,1
2040469e:	fd842583          	lw	a1,-40(s0)
204046a2:	fdc42503          	lw	a0,-36(s0)
204046a6:	c3dff0ef          	jal	ra,204042e2 <__metal_driver_riscv_plic0_set_priority>
/home/khj/Desktop/hello_standalone/freedom-metal/src/drivers/riscv_plic0.c:180
        plic->metal_exint_table[id] = __metal_plic0_default_handler;
204046aa:	fec42703          	lw	a4,-20(s0)
204046ae:	fd842783          	lw	a5,-40(s0)
204046b2:	078a                	slli	a5,a5,0x2
204046b4:	97ba                	add	a5,a5,a4
204046b6:	20404737          	lui	a4,0x20404
204046ba:	41a70713          	addi	a4,a4,1050 # 2040441a <__metal_plic0_default_handler>
204046be:	c798                	sw	a4,8(a5)
/home/khj/Desktop/hello_standalone/freedom-metal/src/drivers/riscv_plic0.c:181
        plic->metal_exdata_table[id].sub_int = priv;
204046c0:	fec42683          	lw	a3,-20(s0)
204046c4:	fd842703          	lw	a4,-40(s0)
204046c8:	87ba                	mv	a5,a4
204046ca:	0786                	slli	a5,a5,0x1
204046cc:	97ba                	add	a5,a5,a4
204046ce:	078e                	slli	a5,a5,0x3
204046d0:	97b6                	add	a5,a5,a3
204046d2:	fd042703          	lw	a4,-48(s0)
204046d6:	08e7a223          	sw	a4,132(a5)
/home/khj/Desktop/hello_standalone/freedom-metal/src/drivers/riscv_plic0.c:184
    }

    return 0;
204046da:	4781                	li	a5,0
/home/khj/Desktop/hello_standalone/freedom-metal/src/drivers/riscv_plic0.c:185
}
204046dc:	853e                	mv	a0,a5
204046de:	50b2                	lw	ra,44(sp)
204046e0:	5422                	lw	s0,40(sp)
204046e2:	6145                	addi	sp,sp,48
204046e4:	8082                	ret

204046e6 <__metal_driver_riscv_plic0_enable>:
__metal_driver_riscv_plic0_enable():
/home/khj/Desktop/hello_standalone/freedom-metal/src/drivers/riscv_plic0.c:188

int __metal_driver_riscv_plic0_enable(struct metal_interrupt *controller,
                                      int id) {
204046e6:	7179                	addi	sp,sp,-48
204046e8:	d606                	sw	ra,44(sp)
204046ea:	d422                	sw	s0,40(sp)
204046ec:	1800                	addi	s0,sp,48
204046ee:	fca42e23          	sw	a0,-36(s0)
204046f2:	fcb42c23          	sw	a1,-40(s0)
/home/khj/Desktop/hello_standalone/freedom-metal/src/drivers/riscv_plic0.c:189
    struct __metal_driver_riscv_plic0 *plic = (void *)(controller);
204046f6:	fdc42783          	lw	a5,-36(s0)
204046fa:	fef42623          	sw	a5,-20(s0)
/home/khj/Desktop/hello_standalone/freedom-metal/src/drivers/riscv_plic0.c:191

    if (id >= __metal_driver_sifive_plic0_num_interrupts(controller)) {
204046fe:	fdc42503          	lw	a0,-36(s0)
20404702:	a27ff0ef          	jal	ra,20404128 <__metal_driver_sifive_plic0_num_interrupts>
20404706:	872a                	mv	a4,a0
20404708:	fd842783          	lw	a5,-40(s0)
2040470c:	00e7c463          	blt	a5,a4,20404714 <__metal_driver_riscv_plic0_enable+0x2e>
/home/khj/Desktop/hello_standalone/freedom-metal/src/drivers/riscv_plic0.c:192
        return -1;
20404710:	57fd                	li	a5,-1
20404712:	a829                	j	2040472c <__metal_driver_riscv_plic0_enable+0x46>
/home/khj/Desktop/hello_standalone/freedom-metal/src/drivers/riscv_plic0.c:195
    }

    __metal_plic0_enable(plic, __metal_myhart_id(), id, METAL_ENABLE);
20404714:	934fe0ef          	jal	ra,20402848 <__metal_myhart_id>
20404718:	87aa                	mv	a5,a0
2040471a:	4685                	li	a3,1
2040471c:	fd842603          	lw	a2,-40(s0)
20404720:	85be                	mv	a1,a5
20404722:	fec42503          	lw	a0,-20(s0)
20404726:	c53ff0ef          	jal	ra,20404378 <__metal_plic0_enable>
/home/khj/Desktop/hello_standalone/freedom-metal/src/drivers/riscv_plic0.c:196
    return 0;
2040472a:	4781                	li	a5,0
/home/khj/Desktop/hello_standalone/freedom-metal/src/drivers/riscv_plic0.c:197
}
2040472c:	853e                	mv	a0,a5
2040472e:	50b2                	lw	ra,44(sp)
20404730:	5422                	lw	s0,40(sp)
20404732:	6145                	addi	sp,sp,48
20404734:	8082                	ret

20404736 <__metal_driver_riscv_plic0_disable>:
__metal_driver_riscv_plic0_disable():
/home/khj/Desktop/hello_standalone/freedom-metal/src/drivers/riscv_plic0.c:200

int __metal_driver_riscv_plic0_disable(struct metal_interrupt *controller,
                                       int id) {
20404736:	7179                	addi	sp,sp,-48
20404738:	d606                	sw	ra,44(sp)
2040473a:	d422                	sw	s0,40(sp)
2040473c:	1800                	addi	s0,sp,48
2040473e:	fca42e23          	sw	a0,-36(s0)
20404742:	fcb42c23          	sw	a1,-40(s0)
/home/khj/Desktop/hello_standalone/freedom-metal/src/drivers/riscv_plic0.c:201
    struct __metal_driver_riscv_plic0 *plic = (void *)(controller);
20404746:	fdc42783          	lw	a5,-36(s0)
2040474a:	fef42623          	sw	a5,-20(s0)
/home/khj/Desktop/hello_standalone/freedom-metal/src/drivers/riscv_plic0.c:203

    if (id >= __metal_driver_sifive_plic0_num_interrupts(controller)) {
2040474e:	fdc42503          	lw	a0,-36(s0)
20404752:	9d7ff0ef          	jal	ra,20404128 <__metal_driver_sifive_plic0_num_interrupts>
20404756:	872a                	mv	a4,a0
20404758:	fd842783          	lw	a5,-40(s0)
2040475c:	00e7c463          	blt	a5,a4,20404764 <__metal_driver_riscv_plic0_disable+0x2e>
/home/khj/Desktop/hello_standalone/freedom-metal/src/drivers/riscv_plic0.c:204
        return -1;
20404760:	57fd                	li	a5,-1
20404762:	a829                	j	2040477c <__metal_driver_riscv_plic0_disable+0x46>
/home/khj/Desktop/hello_standalone/freedom-metal/src/drivers/riscv_plic0.c:206
    }
    __metal_plic0_enable(plic, __metal_myhart_id(), id, METAL_DISABLE);
20404764:	8e4fe0ef          	jal	ra,20402848 <__metal_myhart_id>
20404768:	87aa                	mv	a5,a0
2040476a:	4681                	li	a3,0
2040476c:	fd842603          	lw	a2,-40(s0)
20404770:	85be                	mv	a1,a5
20404772:	fec42503          	lw	a0,-20(s0)
20404776:	c03ff0ef          	jal	ra,20404378 <__metal_plic0_enable>
/home/khj/Desktop/hello_standalone/freedom-metal/src/drivers/riscv_plic0.c:207
    return 0;
2040477a:	4781                	li	a5,0
/home/khj/Desktop/hello_standalone/freedom-metal/src/drivers/riscv_plic0.c:208
}
2040477c:	853e                	mv	a0,a5
2040477e:	50b2                	lw	ra,44(sp)
20404780:	5422                	lw	s0,40(sp)
20404782:	6145                	addi	sp,sp,48
20404784:	8082                	ret

20404786 <__metal_driver_riscv_plic0_set_threshold>:
__metal_driver_riscv_plic0_set_threshold():
/home/khj/Desktop/hello_standalone/freedom-metal/src/drivers/riscv_plic0.c:211

int __metal_driver_riscv_plic0_set_threshold(struct metal_interrupt *controller,
                                             unsigned int threshold) {
20404786:	1101                	addi	sp,sp,-32
20404788:	ce06                	sw	ra,28(sp)
2040478a:	cc22                	sw	s0,24(sp)
2040478c:	1000                	addi	s0,sp,32
2040478e:	fea42623          	sw	a0,-20(s0)
20404792:	feb42423          	sw	a1,-24(s0)
/home/khj/Desktop/hello_standalone/freedom-metal/src/drivers/riscv_plic0.c:212
    return __metal_plic0_set_threshold(controller, __metal_myhart_id(),
20404796:	8b2fe0ef          	jal	ra,20402848 <__metal_myhart_id>
2040479a:	87aa                	mv	a5,a0
2040479c:	fe842603          	lw	a2,-24(s0)
204047a0:	85be                	mv	a1,a5
204047a2:	fec42503          	lw	a0,-20(s0)
204047a6:	abdff0ef          	jal	ra,20404262 <__metal_plic0_set_threshold>
204047aa:	87aa                	mv	a5,a0
/home/khj/Desktop/hello_standalone/freedom-metal/src/drivers/riscv_plic0.c:214
                                       threshold);
}
204047ac:	853e                	mv	a0,a5
204047ae:	40f2                	lw	ra,28(sp)
204047b0:	4462                	lw	s0,24(sp)
204047b2:	6105                	addi	sp,sp,32
204047b4:	8082                	ret

204047b6 <__metal_driver_riscv_plic0_get_threshold>:
__metal_driver_riscv_plic0_get_threshold():
/home/khj/Desktop/hello_standalone/freedom-metal/src/drivers/riscv_plic0.c:217

unsigned int
__metal_driver_riscv_plic0_get_threshold(struct metal_interrupt *controller) {
204047b6:	1101                	addi	sp,sp,-32
204047b8:	ce06                	sw	ra,28(sp)
204047ba:	cc22                	sw	s0,24(sp)
204047bc:	1000                	addi	s0,sp,32
204047be:	fea42623          	sw	a0,-20(s0)
/home/khj/Desktop/hello_standalone/freedom-metal/src/drivers/riscv_plic0.c:218
    return __metal_plic0_get_threshold(controller, __metal_myhart_id());
204047c2:	886fe0ef          	jal	ra,20402848 <__metal_myhart_id>
204047c6:	87aa                	mv	a5,a0
204047c8:	85be                	mv	a1,a5
204047ca:	fec42503          	lw	a0,-20(s0)
204047ce:	adbff0ef          	jal	ra,204042a8 <__metal_plic0_get_threshold>
204047d2:	87aa                	mv	a5,a0
/home/khj/Desktop/hello_standalone/freedom-metal/src/drivers/riscv_plic0.c:219
}
204047d4:	853e                	mv	a0,a5
204047d6:	40f2                	lw	ra,28(sp)
204047d8:	4462                	lw	s0,24(sp)
204047da:	6105                	addi	sp,sp,32
204047dc:	8082                	ret

204047de <__metal_driver_riscv_plic0_affinity_enable>:
__metal_driver_riscv_plic0_affinity_enable():
/home/khj/Desktop/hello_standalone/freedom-metal/src/drivers/riscv_plic0.c:223

metal_affinity
__metal_driver_riscv_plic0_affinity_enable(struct metal_interrupt *controller,
                                           metal_affinity bitmask, int id) {
204047de:	7179                	addi	sp,sp,-48
204047e0:	d606                	sw	ra,44(sp)
204047e2:	d422                	sw	s0,40(sp)
204047e4:	1800                	addi	s0,sp,48
204047e6:	fca42e23          	sw	a0,-36(s0)
204047ea:	fcb42c23          	sw	a1,-40(s0)
204047ee:	fcc42a23          	sw	a2,-44(s0)
/home/khj/Desktop/hello_standalone/freedom-metal/src/drivers/riscv_plic0.c:224
    metal_affinity ret = {0};
204047f2:	fe042223          	sw	zero,-28(s0)
/home/khj/Desktop/hello_standalone/freedom-metal/src/drivers/riscv_plic0.c:227
    int context;

    struct __metal_driver_riscv_plic0 *plic = (void *)(controller);
204047f6:	fdc42783          	lw	a5,-36(s0)
204047fa:	fef42423          	sw	a5,-24(s0)
/home/khj/Desktop/hello_standalone/freedom-metal/src/drivers/riscv_plic0.c:229

    if (id >= __metal_driver_sifive_plic0_num_interrupts(controller)) {
204047fe:	fdc42503          	lw	a0,-36(s0)
20404802:	927ff0ef          	jal	ra,20404128 <__metal_driver_sifive_plic0_num_interrupts>
20404806:	872a                	mv	a4,a0
20404808:	fd442783          	lw	a5,-44(s0)
2040480c:	00e7c863          	blt	a5,a4,2040481c <__metal_driver_riscv_plic0_affinity_enable+0x3e>
/home/khj/Desktop/hello_standalone/freedom-metal/src/drivers/riscv_plic0.c:230
        metal_affinity_set_val(ret, -1);
20404810:	57fd                	li	a5,-1
20404812:	fef42223          	sw	a5,-28(s0)
/home/khj/Desktop/hello_standalone/freedom-metal/src/drivers/riscv_plic0.c:231
        return ret;
20404816:	fe442783          	lw	a5,-28(s0)
2040481a:	a899                	j	20404870 <__metal_driver_riscv_plic0_affinity_enable+0x92>
/home/khj/Desktop/hello_standalone/freedom-metal/src/drivers/riscv_plic0.c:234
    }

    for_each_metal_affinity(context, bitmask) {
2040481c:	fe042623          	sw	zero,-20(s0)
20404820:	a099                	j	20404866 <__metal_driver_riscv_plic0_affinity_enable+0x88>
/home/khj/Desktop/hello_standalone/freedom-metal/src/drivers/riscv_plic0.c:235
        if (context != 0)
20404822:	fec42783          	lw	a5,-20(s0)
20404826:	c795                	beqz	a5,20404852 <__metal_driver_riscv_plic0_affinity_enable+0x74>
/home/khj/Desktop/hello_standalone/freedom-metal/src/drivers/riscv_plic0.c:236
            metal_affinity_set_bit(
20404828:	4685                	li	a3,1
2040482a:	fd442603          	lw	a2,-44(s0)
2040482e:	fec42583          	lw	a1,-20(s0)
20404832:	fe842503          	lw	a0,-24(s0)
20404836:	b43ff0ef          	jal	ra,20404378 <__metal_plic0_enable>
2040483a:	87aa                	mv	a5,a0
2040483c:	0017f713          	andi	a4,a5,1
20404840:	fec42783          	lw	a5,-20(s0)
20404844:	00f71733          	sll	a4,a4,a5
20404848:	fe442783          	lw	a5,-28(s0)
2040484c:	8fd9                	or	a5,a5,a4
2040484e:	fef42223          	sw	a5,-28(s0)
/home/khj/Desktop/hello_standalone/freedom-metal/src/drivers/riscv_plic0.c:234 (discriminator 2)
    for_each_metal_affinity(context, bitmask) {
20404852:	fec42783          	lw	a5,-20(s0)
20404856:	0785                	addi	a5,a5,1
20404858:	fef42623          	sw	a5,-20(s0)
2040485c:	fd842783          	lw	a5,-40(s0)
20404860:	8385                	srli	a5,a5,0x1
20404862:	fcf42c23          	sw	a5,-40(s0)
/home/khj/Desktop/hello_standalone/freedom-metal/src/drivers/riscv_plic0.c:234 (discriminator 1)
20404866:	fd842783          	lw	a5,-40(s0)
2040486a:	ffc5                	bnez	a5,20404822 <__metal_driver_riscv_plic0_affinity_enable+0x44>
/home/khj/Desktop/hello_standalone/freedom-metal/src/drivers/riscv_plic0.c:241
                ret, context,
                __metal_plic0_enable(plic, context, id, METAL_ENABLE));
    }

    return ret;
2040486c:	fe442783          	lw	a5,-28(s0)
/home/khj/Desktop/hello_standalone/freedom-metal/src/drivers/riscv_plic0.c:242 (discriminator 1)
}
20404870:	853e                	mv	a0,a5
20404872:	50b2                	lw	ra,44(sp)
20404874:	5422                	lw	s0,40(sp)
20404876:	6145                	addi	sp,sp,48
20404878:	8082                	ret

2040487a <__metal_driver_riscv_plic0_affinity_disable>:
__metal_driver_riscv_plic0_affinity_disable():
/home/khj/Desktop/hello_standalone/freedom-metal/src/drivers/riscv_plic0.c:246

metal_affinity
__metal_driver_riscv_plic0_affinity_disable(struct metal_interrupt *controller,
                                            metal_affinity bitmask, int id) {
2040487a:	7179                	addi	sp,sp,-48
2040487c:	d606                	sw	ra,44(sp)
2040487e:	d422                	sw	s0,40(sp)
20404880:	1800                	addi	s0,sp,48
20404882:	fca42e23          	sw	a0,-36(s0)
20404886:	fcb42c23          	sw	a1,-40(s0)
2040488a:	fcc42a23          	sw	a2,-44(s0)
/home/khj/Desktop/hello_standalone/freedom-metal/src/drivers/riscv_plic0.c:247
    metal_affinity ret = {0};
2040488e:	fe042223          	sw	zero,-28(s0)
/home/khj/Desktop/hello_standalone/freedom-metal/src/drivers/riscv_plic0.c:250
    int context;

    struct __metal_driver_riscv_plic0 *plic = (void *)(controller);
20404892:	fdc42783          	lw	a5,-36(s0)
20404896:	fef42423          	sw	a5,-24(s0)
/home/khj/Desktop/hello_standalone/freedom-metal/src/drivers/riscv_plic0.c:252

    if (id >= __metal_driver_sifive_plic0_num_interrupts(controller)) {
2040489a:	fdc42503          	lw	a0,-36(s0)
2040489e:	88bff0ef          	jal	ra,20404128 <__metal_driver_sifive_plic0_num_interrupts>
204048a2:	872a                	mv	a4,a0
204048a4:	fd442783          	lw	a5,-44(s0)
204048a8:	00e7c863          	blt	a5,a4,204048b8 <__metal_driver_riscv_plic0_affinity_disable+0x3e>
/home/khj/Desktop/hello_standalone/freedom-metal/src/drivers/riscv_plic0.c:253
        metal_affinity_set_val(ret, -1);
204048ac:	57fd                	li	a5,-1
204048ae:	fef42223          	sw	a5,-28(s0)
/home/khj/Desktop/hello_standalone/freedom-metal/src/drivers/riscv_plic0.c:254
        return ret;
204048b2:	fe442783          	lw	a5,-28(s0)
204048b6:	a899                	j	2040490c <__metal_driver_riscv_plic0_affinity_disable+0x92>
/home/khj/Desktop/hello_standalone/freedom-metal/src/drivers/riscv_plic0.c:257
    }

    for_each_metal_affinity(context, bitmask) {
204048b8:	fe042623          	sw	zero,-20(s0)
204048bc:	a099                	j	20404902 <__metal_driver_riscv_plic0_affinity_disable+0x88>
/home/khj/Desktop/hello_standalone/freedom-metal/src/drivers/riscv_plic0.c:258
        if (context != 0)
204048be:	fec42783          	lw	a5,-20(s0)
204048c2:	c795                	beqz	a5,204048ee <__metal_driver_riscv_plic0_affinity_disable+0x74>
/home/khj/Desktop/hello_standalone/freedom-metal/src/drivers/riscv_plic0.c:259
            metal_affinity_set_bit(
204048c4:	4681                	li	a3,0
204048c6:	fd442603          	lw	a2,-44(s0)
204048ca:	fec42583          	lw	a1,-20(s0)
204048ce:	fe842503          	lw	a0,-24(s0)
204048d2:	aa7ff0ef          	jal	ra,20404378 <__metal_plic0_enable>
204048d6:	87aa                	mv	a5,a0
204048d8:	0017f713          	andi	a4,a5,1
204048dc:	fec42783          	lw	a5,-20(s0)
204048e0:	00f71733          	sll	a4,a4,a5
204048e4:	fe442783          	lw	a5,-28(s0)
204048e8:	8fd9                	or	a5,a5,a4
204048ea:	fef42223          	sw	a5,-28(s0)
/home/khj/Desktop/hello_standalone/freedom-metal/src/drivers/riscv_plic0.c:257 (discriminator 2)
    for_each_metal_affinity(context, bitmask) {
204048ee:	fec42783          	lw	a5,-20(s0)
204048f2:	0785                	addi	a5,a5,1
204048f4:	fef42623          	sw	a5,-20(s0)
204048f8:	fd842783          	lw	a5,-40(s0)
204048fc:	8385                	srli	a5,a5,0x1
204048fe:	fcf42c23          	sw	a5,-40(s0)
/home/khj/Desktop/hello_standalone/freedom-metal/src/drivers/riscv_plic0.c:257 (discriminator 1)
20404902:	fd842783          	lw	a5,-40(s0)
20404906:	ffc5                	bnez	a5,204048be <__metal_driver_riscv_plic0_affinity_disable+0x44>
/home/khj/Desktop/hello_standalone/freedom-metal/src/drivers/riscv_plic0.c:264
                ret, context,
                __metal_plic0_enable(plic, context, id, METAL_DISABLE));
    }

    return ret;
20404908:	fe442783          	lw	a5,-28(s0)
/home/khj/Desktop/hello_standalone/freedom-metal/src/drivers/riscv_plic0.c:265 (discriminator 1)
}
2040490c:	853e                	mv	a0,a5
2040490e:	50b2                	lw	ra,44(sp)
20404910:	5422                	lw	s0,40(sp)
20404912:	6145                	addi	sp,sp,48
20404914:	8082                	ret

20404916 <__metal_driver_riscv_plic0_affinity_set_threshold>:
__metal_driver_riscv_plic0_affinity_set_threshold():
/home/khj/Desktop/hello_standalone/freedom-metal/src/drivers/riscv_plic0.c:269

metal_affinity __metal_driver_riscv_plic0_affinity_set_threshold(
    struct metal_interrupt *controller, metal_affinity bitmask,
    unsigned int threshold) {
20404916:	7179                	addi	sp,sp,-48
20404918:	d606                	sw	ra,44(sp)
2040491a:	d422                	sw	s0,40(sp)
2040491c:	1800                	addi	s0,sp,48
2040491e:	fca42e23          	sw	a0,-36(s0)
20404922:	fcb42c23          	sw	a1,-40(s0)
20404926:	fcc42a23          	sw	a2,-44(s0)
/home/khj/Desktop/hello_standalone/freedom-metal/src/drivers/riscv_plic0.c:270
    metal_affinity ret = {0};
2040492a:	fe042423          	sw	zero,-24(s0)
/home/khj/Desktop/hello_standalone/freedom-metal/src/drivers/riscv_plic0.c:273
    int context;

    for_each_metal_affinity(context, bitmask) {
2040492e:	fe042623          	sw	zero,-20(s0)
20404932:	a091                	j	20404976 <__metal_driver_riscv_plic0_affinity_set_threshold+0x60>
/home/khj/Desktop/hello_standalone/freedom-metal/src/drivers/riscv_plic0.c:274
        if (context != 0)
20404934:	fec42783          	lw	a5,-20(s0)
20404938:	c78d                	beqz	a5,20404962 <__metal_driver_riscv_plic0_affinity_set_threshold+0x4c>
/home/khj/Desktop/hello_standalone/freedom-metal/src/drivers/riscv_plic0.c:275
            metal_affinity_set_bit(
2040493a:	fd442603          	lw	a2,-44(s0)
2040493e:	fec42583          	lw	a1,-20(s0)
20404942:	fdc42503          	lw	a0,-36(s0)
20404946:	91dff0ef          	jal	ra,20404262 <__metal_plic0_set_threshold>
2040494a:	87aa                	mv	a5,a0
2040494c:	0017f713          	andi	a4,a5,1
20404950:	fec42783          	lw	a5,-20(s0)
20404954:	00f71733          	sll	a4,a4,a5
20404958:	fe842783          	lw	a5,-24(s0)
2040495c:	8fd9                	or	a5,a5,a4
2040495e:	fef42423          	sw	a5,-24(s0)
/home/khj/Desktop/hello_standalone/freedom-metal/src/drivers/riscv_plic0.c:273 (discriminator 2)
    for_each_metal_affinity(context, bitmask) {
20404962:	fec42783          	lw	a5,-20(s0)
20404966:	0785                	addi	a5,a5,1
20404968:	fef42623          	sw	a5,-20(s0)
2040496c:	fd842783          	lw	a5,-40(s0)
20404970:	8385                	srli	a5,a5,0x1
20404972:	fcf42c23          	sw	a5,-40(s0)
/home/khj/Desktop/hello_standalone/freedom-metal/src/drivers/riscv_plic0.c:273 (discriminator 1)
20404976:	fd842783          	lw	a5,-40(s0)
2040497a:	ffcd                	bnez	a5,20404934 <__metal_driver_riscv_plic0_affinity_set_threshold+0x1e>
/home/khj/Desktop/hello_standalone/freedom-metal/src/drivers/riscv_plic0.c:280
                ret, context,
                __metal_plic0_set_threshold(controller, context, threshold));
    }

    return ret;
2040497c:	fe842783          	lw	a5,-24(s0)
/home/khj/Desktop/hello_standalone/freedom-metal/src/drivers/riscv_plic0.c:281
}
20404980:	853e                	mv	a0,a5
20404982:	50b2                	lw	ra,44(sp)
20404984:	5422                	lw	s0,40(sp)
20404986:	6145                	addi	sp,sp,48
20404988:	8082                	ret

2040498a <__metal_driver_riscv_plic0_affinity_get_threshold>:
__metal_driver_riscv_plic0_affinity_get_threshold():
/home/khj/Desktop/hello_standalone/freedom-metal/src/drivers/riscv_plic0.c:284

unsigned int __metal_driver_riscv_plic0_affinity_get_threshold(
    struct metal_interrupt *controller, int context_id) {
2040498a:	1101                	addi	sp,sp,-32
2040498c:	ce06                	sw	ra,28(sp)
2040498e:	cc22                	sw	s0,24(sp)
20404990:	1000                	addi	s0,sp,32
20404992:	fea42623          	sw	a0,-20(s0)
20404996:	feb42423          	sw	a1,-24(s0)
/home/khj/Desktop/hello_standalone/freedom-metal/src/drivers/riscv_plic0.c:285
    __metal_plic0_get_threshold(controller, context_id);
2040499a:	fe842583          	lw	a1,-24(s0)
2040499e:	fec42503          	lw	a0,-20(s0)
204049a2:	907ff0ef          	jal	ra,204042a8 <__metal_plic0_get_threshold>
/home/khj/Desktop/hello_standalone/freedom-metal/src/drivers/riscv_plic0.c:286
    return 0;
204049a6:	4781                	li	a5,0
/home/khj/Desktop/hello_standalone/freedom-metal/src/drivers/riscv_plic0.c:287
}
204049a8:	853e                	mv	a0,a5
204049aa:	40f2                	lw	ra,28(sp)
204049ac:	4462                	lw	s0,24(sp)
204049ae:	6105                	addi	sp,sp,32
204049b0:	8082                	ret

204049b2 <__metal_driver_sifive_fe310_g000_hfrosc_ref>:
__metal_driver_sifive_fe310_g000_hfrosc_ref():
/home/khj/Desktop/hello_standalone/bsp/build/debug/./metal/machine.h:1035



/* --------------------- sifive_fe310_g000_hfrosc ------------ */
static __inline__ struct metal_clock * __metal_driver_sifive_fe310_g000_hfrosc_ref(const struct metal_clock *clock)
{
204049b2:	1101                	addi	sp,sp,-32
204049b4:	ce22                	sw	s0,28(sp)
204049b6:	1000                	addi	s0,sp,32
204049b8:	fea42623          	sw	a0,-20(s0)
/home/khj/Desktop/hello_standalone/bsp/build/debug/./metal/machine.h:1036
		return (struct metal_clock *)&__metal_dt_clock_2.clock;
204049bc:	800007b7          	lui	a5,0x80000
204049c0:	06c78793          	addi	a5,a5,108 # 8000006c <metal_dtim_0_memory_end+0xffff006c>
/home/khj/Desktop/hello_standalone/bsp/build/debug/./metal/machine.h:1037
}
204049c4:	853e                	mv	a0,a5
204049c6:	4472                	lw	s0,28(sp)
204049c8:	6105                	addi	sp,sp,32
204049ca:	8082                	ret

204049cc <__metal_driver_sifive_fe310_g000_hfrosc_config_base>:
__metal_driver_sifive_fe310_g000_hfrosc_config_base():
/home/khj/Desktop/hello_standalone/bsp/build/debug/./metal/machine.h:1040

static __inline__ struct __metal_driver_sifive_fe310_g000_prci * __metal_driver_sifive_fe310_g000_hfrosc_config_base(const struct metal_clock *clock)
{
204049cc:	1101                	addi	sp,sp,-32
204049ce:	ce22                	sw	s0,28(sp)
204049d0:	1000                	addi	s0,sp,32
204049d2:	fea42623          	sw	a0,-20(s0)
/home/khj/Desktop/hello_standalone/bsp/build/debug/./metal/machine.h:1041
		return (struct __metal_driver_sifive_fe310_g000_prci *)&__metal_dt_prci_10008000;
204049d6:	82818793          	addi	a5,gp,-2008 # 800007c8 <__metal_dt_prci_10008000>
/home/khj/Desktop/hello_standalone/bsp/build/debug/./metal/machine.h:1042
}
204049da:	853e                	mv	a0,a5
204049dc:	4472                	lw	s0,28(sp)
204049de:	6105                	addi	sp,sp,32
204049e0:	8082                	ret

204049e2 <__metal_driver_sifive_fe310_g000_hfrosc_config_offset>:
__metal_driver_sifive_fe310_g000_hfrosc_config_offset():
/home/khj/Desktop/hello_standalone/bsp/build/debug/./metal/machine.h:1050
{
		return &__metal_driver_vtable_sifive_fe310_g000_prci;
}

static __inline__ long __metal_driver_sifive_fe310_g000_hfrosc_config_offset(const struct metal_clock *clock)
{
204049e2:	1101                	addi	sp,sp,-32
204049e4:	ce22                	sw	s0,28(sp)
204049e6:	1000                	addi	s0,sp,32
204049e8:	fea42623          	sw	a0,-20(s0)
/home/khj/Desktop/hello_standalone/bsp/build/debug/./metal/machine.h:1051
		return METAL_SIFIVE_FE310_G000_PRCI_HFROSCCFG;
204049ec:	4781                	li	a5,0
/home/khj/Desktop/hello_standalone/bsp/build/debug/./metal/machine.h:1052
}
204049ee:	853e                	mv	a0,a5
204049f0:	4472                	lw	s0,28(sp)
204049f2:	6105                	addi	sp,sp,32
204049f4:	8082                	ret

204049f6 <__metal_driver_sifive_fe310_g000_prci_vtable>:
__metal_driver_sifive_fe310_g000_prci_vtable():
/home/khj/Desktop/hello_standalone/bsp/build/debug/./metal/machine.h:1167
{
		return METAL_SIFIVE_FE310_G000_PRCI_10008000_SIZE;
}

static __inline__ const struct __metal_driver_vtable_sifive_fe310_g000_prci * __metal_driver_sifive_fe310_g000_prci_vtable( )
{
204049f6:	1141                	addi	sp,sp,-16
204049f8:	c622                	sw	s0,12(sp)
204049fa:	0800                	addi	s0,sp,16
/home/khj/Desktop/hello_standalone/bsp/build/debug/./metal/machine.h:1168
		return &__metal_driver_vtable_sifive_fe310_g000_prci;
204049fc:	83c18793          	addi	a5,gp,-1988 # 800007dc <__metal_driver_vtable_sifive_fe310_g000_prci>
/home/khj/Desktop/hello_standalone/bsp/build/debug/./metal/machine.h:1169
}
20404a00:	853e                	mv	a0,a5
20404a02:	4432                	lw	s0,12(sp)
20404a04:	0141                	addi	sp,sp,16
20404a06:	8082                	ret

20404a08 <__metal_driver_sifive_fe310_g000_hfrosc_get_rate_hz>:
__metal_driver_sifive_fe310_g000_hfrosc_get_rate_hz():
/home/khj/Desktop/hello_standalone/freedom-metal/src/drivers/sifive_fe310-g000_hfrosc.c:17
#define CONFIG_TRIM 0x001F0000UL
#define CONFIG_ENABLE 0x40000000UL
#define CONFIG_READY 0x80000000UL

long __metal_driver_sifive_fe310_g000_hfrosc_get_rate_hz(
    const struct metal_clock *clock) {
20404a08:	7139                	addi	sp,sp,-64
20404a0a:	de06                	sw	ra,60(sp)
20404a0c:	dc22                	sw	s0,56(sp)
20404a0e:	0080                	addi	s0,sp,64
20404a10:	fca42623          	sw	a0,-52(s0)
/home/khj/Desktop/hello_standalone/freedom-metal/src/drivers/sifive_fe310-g000_hfrosc.c:19
    struct metal_clock *ref =
        __metal_driver_sifive_fe310_g000_hfrosc_ref(clock);
20404a14:	fcc42503          	lw	a0,-52(s0)
20404a18:	3f69                	jal	204049b2 <__metal_driver_sifive_fe310_g000_hfrosc_ref>
20404a1a:	fea42623          	sw	a0,-20(s0)
/home/khj/Desktop/hello_standalone/freedom-metal/src/drivers/sifive_fe310-g000_hfrosc.c:21
    long config_offset =
        __metal_driver_sifive_fe310_g000_hfrosc_config_offset(clock);
20404a1e:	fcc42503          	lw	a0,-52(s0)
20404a22:	37c1                	jal	204049e2 <__metal_driver_sifive_fe310_g000_hfrosc_config_offset>
20404a24:	fea42423          	sw	a0,-24(s0)
/home/khj/Desktop/hello_standalone/freedom-metal/src/drivers/sifive_fe310-g000_hfrosc.c:23
    struct __metal_driver_sifive_fe310_g000_prci *config_base =
        __metal_driver_sifive_fe310_g000_hfrosc_config_base(clock);
20404a28:	fcc42503          	lw	a0,-52(s0)
20404a2c:	3745                	jal	204049cc <__metal_driver_sifive_fe310_g000_hfrosc_config_base>
20404a2e:	fea42223          	sw	a0,-28(s0)
/home/khj/Desktop/hello_standalone/freedom-metal/src/drivers/sifive_fe310-g000_hfrosc.c:25
    const struct __metal_driver_vtable_sifive_fe310_g000_prci *vtable =
        __metal_driver_sifive_fe310_g000_prci_vtable();
20404a32:	37d1                	jal	204049f6 <__metal_driver_sifive_fe310_g000_prci_vtable>
20404a34:	fea42023          	sw	a0,-32(s0)
/home/khj/Desktop/hello_standalone/freedom-metal/src/drivers/sifive_fe310-g000_hfrosc.c:26
    long cfg = vtable->get_reg(config_base, config_offset);
20404a38:	fe042783          	lw	a5,-32(s0)
20404a3c:	439c                	lw	a5,0(a5)
20404a3e:	fe842583          	lw	a1,-24(s0)
20404a42:	fe442503          	lw	a0,-28(s0)
20404a46:	9782                	jalr	a5
20404a48:	fca42e23          	sw	a0,-36(s0)
/home/khj/Desktop/hello_standalone/freedom-metal/src/drivers/sifive_fe310-g000_hfrosc.c:28

    if ((cfg & CONFIG_ENABLE) == 0)
20404a4c:	fdc42703          	lw	a4,-36(s0)
20404a50:	400007b7          	lui	a5,0x40000
20404a54:	8ff9                	and	a5,a5,a4
20404a56:	e399                	bnez	a5,20404a5c <__metal_driver_sifive_fe310_g000_hfrosc_get_rate_hz+0x54>
/home/khj/Desktop/hello_standalone/freedom-metal/src/drivers/sifive_fe310-g000_hfrosc.c:29
        return -1;
20404a58:	57fd                	li	a5,-1
20404a5a:	a025                	j	20404a82 <__metal_driver_sifive_fe310_g000_hfrosc_get_rate_hz+0x7a>
/home/khj/Desktop/hello_standalone/freedom-metal/src/drivers/sifive_fe310-g000_hfrosc.c:30
    if ((cfg & CONFIG_READY) == 0)
20404a5c:	fdc42783          	lw	a5,-36(s0)
20404a60:	0007c463          	bltz	a5,20404a68 <__metal_driver_sifive_fe310_g000_hfrosc_get_rate_hz+0x60>
/home/khj/Desktop/hello_standalone/freedom-metal/src/drivers/sifive_fe310-g000_hfrosc.c:31
        return -1;
20404a64:	57fd                	li	a5,-1
20404a66:	a831                	j	20404a82 <__metal_driver_sifive_fe310_g000_hfrosc_get_rate_hz+0x7a>
/home/khj/Desktop/hello_standalone/freedom-metal/src/drivers/sifive_fe310-g000_hfrosc.c:32
    return metal_clock_get_rate_hz(ref) / ((cfg & CONFIG_DIVIDER) + 1);
20404a68:	fec42503          	lw	a0,-20(s0)
20404a6c:	0c7010ef          	jal	ra,20406332 <metal_clock_get_rate_hz>
20404a70:	87aa                	mv	a5,a0
20404a72:	873e                	mv	a4,a5
20404a74:	fdc42783          	lw	a5,-36(s0)
20404a78:	03f7f793          	andi	a5,a5,63
20404a7c:	0785                	addi	a5,a5,1
20404a7e:	02f757b3          	divu	a5,a4,a5
/home/khj/Desktop/hello_standalone/freedom-metal/src/drivers/sifive_fe310-g000_hfrosc.c:33
}
20404a82:	853e                	mv	a0,a5
20404a84:	50f2                	lw	ra,60(sp)
20404a86:	5462                	lw	s0,56(sp)
20404a88:	6121                	addi	sp,sp,64
20404a8a:	8082                	ret

20404a8c <__metal_driver_sifive_fe310_g000_hfrosc_set_rate_hz>:
__metal_driver_sifive_fe310_g000_hfrosc_set_rate_hz():
/home/khj/Desktop/hello_standalone/freedom-metal/src/drivers/sifive_fe310-g000_hfrosc.c:36

long __metal_driver_sifive_fe310_g000_hfrosc_set_rate_hz(
    struct metal_clock *clock, long rate) {
20404a8c:	1101                	addi	sp,sp,-32
20404a8e:	ce06                	sw	ra,28(sp)
20404a90:	cc22                	sw	s0,24(sp)
20404a92:	1000                	addi	s0,sp,32
20404a94:	fea42623          	sw	a0,-20(s0)
20404a98:	feb42423          	sw	a1,-24(s0)
/home/khj/Desktop/hello_standalone/freedom-metal/src/drivers/sifive_fe310-g000_hfrosc.c:37
    return __metal_driver_sifive_fe310_g000_hfrosc_get_rate_hz(clock);
20404a9c:	fec42503          	lw	a0,-20(s0)
20404aa0:	37a5                	jal	20404a08 <__metal_driver_sifive_fe310_g000_hfrosc_get_rate_hz>
20404aa2:	87aa                	mv	a5,a0
/home/khj/Desktop/hello_standalone/freedom-metal/src/drivers/sifive_fe310-g000_hfrosc.c:38
}
20404aa4:	853e                	mv	a0,a5
20404aa6:	40f2                	lw	ra,28(sp)
20404aa8:	4462                	lw	s0,24(sp)
20404aaa:	6105                	addi	sp,sp,32
20404aac:	8082                	ret

20404aae <__metal_driver_sifive_fe310_g000_hfxosc_ref>:
__metal_driver_sifive_fe310_g000_hfxosc_ref():
/home/khj/Desktop/hello_standalone/bsp/build/debug/./metal/machine.h:1058
{
20404aae:	1101                	addi	sp,sp,-32
20404ab0:	ce22                	sw	s0,28(sp)
20404ab2:	1000                	addi	s0,sp,32
20404ab4:	fea42623          	sw	a0,-20(s0)
/home/khj/Desktop/hello_standalone/bsp/build/debug/./metal/machine.h:1059
		return (struct metal_clock *)&__metal_dt_clock_0.clock;
20404ab8:	800007b7          	lui	a5,0x80000
20404abc:	06078793          	addi	a5,a5,96 # 80000060 <metal_dtim_0_memory_end+0xffff0060>
/home/khj/Desktop/hello_standalone/bsp/build/debug/./metal/machine.h:1060
}
20404ac0:	853e                	mv	a0,a5
20404ac2:	4472                	lw	s0,28(sp)
20404ac4:	6105                	addi	sp,sp,32
20404ac6:	8082                	ret

20404ac8 <__metal_driver_sifive_fe310_g000_hfxosc_config_base>:
__metal_driver_sifive_fe310_g000_hfxosc_config_base():
/home/khj/Desktop/hello_standalone/bsp/build/debug/./metal/machine.h:1063
{
20404ac8:	1101                	addi	sp,sp,-32
20404aca:	ce22                	sw	s0,28(sp)
20404acc:	1000                	addi	s0,sp,32
20404ace:	fea42623          	sw	a0,-20(s0)
/home/khj/Desktop/hello_standalone/bsp/build/debug/./metal/machine.h:1064
		return (struct __metal_driver_sifive_fe310_g000_prci *)&__metal_dt_prci_10008000;
20404ad2:	82818793          	addi	a5,gp,-2008 # 800007c8 <__metal_dt_prci_10008000>
/home/khj/Desktop/hello_standalone/bsp/build/debug/./metal/machine.h:1065
}
20404ad6:	853e                	mv	a0,a5
20404ad8:	4472                	lw	s0,28(sp)
20404ada:	6105                	addi	sp,sp,32
20404adc:	8082                	ret

20404ade <__metal_driver_sifive_fe310_g000_hfxosc_config_offset>:
__metal_driver_sifive_fe310_g000_hfxosc_config_offset():
/home/khj/Desktop/hello_standalone/bsp/build/debug/./metal/machine.h:1068
{
20404ade:	1101                	addi	sp,sp,-32
20404ae0:	ce22                	sw	s0,28(sp)
20404ae2:	1000                	addi	s0,sp,32
20404ae4:	fea42623          	sw	a0,-20(s0)
/home/khj/Desktop/hello_standalone/bsp/build/debug/./metal/machine.h:1069
		return METAL_SIFIVE_FE310_G000_PRCI_HFXOSCCFG;
20404ae8:	4791                	li	a5,4
/home/khj/Desktop/hello_standalone/bsp/build/debug/./metal/machine.h:1070
}
20404aea:	853e                	mv	a0,a5
20404aec:	4472                	lw	s0,28(sp)
20404aee:	6105                	addi	sp,sp,32
20404af0:	8082                	ret

20404af2 <__metal_driver_sifive_fe310_g000_prci_vtable>:
__metal_driver_sifive_fe310_g000_prci_vtable():
/home/khj/Desktop/hello_standalone/bsp/build/debug/./metal/machine.h:1167
{
20404af2:	1141                	addi	sp,sp,-16
20404af4:	c622                	sw	s0,12(sp)
20404af6:	0800                	addi	s0,sp,16
/home/khj/Desktop/hello_standalone/bsp/build/debug/./metal/machine.h:1168
		return &__metal_driver_vtable_sifive_fe310_g000_prci;
20404af8:	83c18793          	addi	a5,gp,-1988 # 800007dc <__metal_driver_vtable_sifive_fe310_g000_prci>
/home/khj/Desktop/hello_standalone/bsp/build/debug/./metal/machine.h:1169
}
20404afc:	853e                	mv	a0,a5
20404afe:	4432                	lw	s0,12(sp)
20404b00:	0141                	addi	sp,sp,16
20404b02:	8082                	ret

20404b04 <__metal_driver_sifive_fe310_g000_hfxosc_get_rate_hz>:
__metal_driver_sifive_fe310_g000_hfxosc_get_rate_hz():
/home/khj/Desktop/hello_standalone/freedom-metal/src/drivers/sifive_fe310-g000_hfxosc.c:15

#define CONFIG_ENABLE 0x40000000UL
#define CONFIG_READY 0x80000000UL

long __metal_driver_sifive_fe310_g000_hfxosc_get_rate_hz(
    const struct metal_clock *clock) {
20404b04:	7139                	addi	sp,sp,-64
20404b06:	de06                	sw	ra,60(sp)
20404b08:	dc22                	sw	s0,56(sp)
20404b0a:	0080                	addi	s0,sp,64
20404b0c:	fca42623          	sw	a0,-52(s0)
/home/khj/Desktop/hello_standalone/freedom-metal/src/drivers/sifive_fe310-g000_hfxosc.c:17
    struct metal_clock *ref =
        __metal_driver_sifive_fe310_g000_hfxosc_ref(clock);
20404b10:	fcc42503          	lw	a0,-52(s0)
20404b14:	3f69                	jal	20404aae <__metal_driver_sifive_fe310_g000_hfxosc_ref>
20404b16:	fea42623          	sw	a0,-20(s0)
/home/khj/Desktop/hello_standalone/freedom-metal/src/drivers/sifive_fe310-g000_hfxosc.c:19
    long config_offset =
        __metal_driver_sifive_fe310_g000_hfxosc_config_offset(clock);
20404b1a:	fcc42503          	lw	a0,-52(s0)
20404b1e:	37c1                	jal	20404ade <__metal_driver_sifive_fe310_g000_hfxosc_config_offset>
20404b20:	fea42423          	sw	a0,-24(s0)
/home/khj/Desktop/hello_standalone/freedom-metal/src/drivers/sifive_fe310-g000_hfxosc.c:21
    struct __metal_driver_sifive_fe310_g000_prci *config_base =
        __metal_driver_sifive_fe310_g000_hfxosc_config_base(clock);
20404b24:	fcc42503          	lw	a0,-52(s0)
20404b28:	3745                	jal	20404ac8 <__metal_driver_sifive_fe310_g000_hfxosc_config_base>
20404b2a:	fea42223          	sw	a0,-28(s0)
/home/khj/Desktop/hello_standalone/freedom-metal/src/drivers/sifive_fe310-g000_hfxosc.c:23
    const struct __metal_driver_vtable_sifive_fe310_g000_prci *vtable =
        __metal_driver_sifive_fe310_g000_prci_vtable();
20404b2e:	37d1                	jal	20404af2 <__metal_driver_sifive_fe310_g000_prci_vtable>
20404b30:	fea42023          	sw	a0,-32(s0)
/home/khj/Desktop/hello_standalone/freedom-metal/src/drivers/sifive_fe310-g000_hfxosc.c:24
    long cfg = vtable->get_reg(config_base, config_offset);
20404b34:	fe042783          	lw	a5,-32(s0)
20404b38:	439c                	lw	a5,0(a5)
20404b3a:	fe842583          	lw	a1,-24(s0)
20404b3e:	fe442503          	lw	a0,-28(s0)
20404b42:	9782                	jalr	a5
20404b44:	fca42e23          	sw	a0,-36(s0)
/home/khj/Desktop/hello_standalone/freedom-metal/src/drivers/sifive_fe310-g000_hfxosc.c:26

    if ((cfg & CONFIG_ENABLE) == 0)
20404b48:	fdc42703          	lw	a4,-36(s0)
20404b4c:	400007b7          	lui	a5,0x40000
20404b50:	8ff9                	and	a5,a5,a4
20404b52:	e399                	bnez	a5,20404b58 <__metal_driver_sifive_fe310_g000_hfxosc_get_rate_hz+0x54>
/home/khj/Desktop/hello_standalone/freedom-metal/src/drivers/sifive_fe310-g000_hfxosc.c:27
        return -1;
20404b54:	57fd                	li	a5,-1
20404b56:	a821                	j	20404b6e <__metal_driver_sifive_fe310_g000_hfxosc_get_rate_hz+0x6a>
/home/khj/Desktop/hello_standalone/freedom-metal/src/drivers/sifive_fe310-g000_hfxosc.c:28
    if ((cfg & CONFIG_READY) == 0)
20404b58:	fdc42783          	lw	a5,-36(s0)
20404b5c:	0007c463          	bltz	a5,20404b64 <__metal_driver_sifive_fe310_g000_hfxosc_get_rate_hz+0x60>
/home/khj/Desktop/hello_standalone/freedom-metal/src/drivers/sifive_fe310-g000_hfxosc.c:29
        return -1;
20404b60:	57fd                	li	a5,-1
20404b62:	a031                	j	20404b6e <__metal_driver_sifive_fe310_g000_hfxosc_get_rate_hz+0x6a>
/home/khj/Desktop/hello_standalone/freedom-metal/src/drivers/sifive_fe310-g000_hfxosc.c:30
    return metal_clock_get_rate_hz(ref);
20404b64:	fec42503          	lw	a0,-20(s0)
20404b68:	7ca010ef          	jal	ra,20406332 <metal_clock_get_rate_hz>
20404b6c:	87aa                	mv	a5,a0
/home/khj/Desktop/hello_standalone/freedom-metal/src/drivers/sifive_fe310-g000_hfxosc.c:31
}
20404b6e:	853e                	mv	a0,a5
20404b70:	50f2                	lw	ra,60(sp)
20404b72:	5462                	lw	s0,56(sp)
20404b74:	6121                	addi	sp,sp,64
20404b76:	8082                	ret

20404b78 <__metal_driver_sifive_fe310_g000_hfxosc_set_rate_hz>:
__metal_driver_sifive_fe310_g000_hfxosc_set_rate_hz():
/home/khj/Desktop/hello_standalone/freedom-metal/src/drivers/sifive_fe310-g000_hfxosc.c:34

long __metal_driver_sifive_fe310_g000_hfxosc_set_rate_hz(
    struct metal_clock *clock, long rate) {
20404b78:	1101                	addi	sp,sp,-32
20404b7a:	ce06                	sw	ra,28(sp)
20404b7c:	cc22                	sw	s0,24(sp)
20404b7e:	1000                	addi	s0,sp,32
20404b80:	fea42623          	sw	a0,-20(s0)
20404b84:	feb42423          	sw	a1,-24(s0)
/home/khj/Desktop/hello_standalone/freedom-metal/src/drivers/sifive_fe310-g000_hfxosc.c:35
    return __metal_driver_sifive_fe310_g000_hfxosc_get_rate_hz(clock);
20404b88:	fec42503          	lw	a0,-20(s0)
20404b8c:	3fa5                	jal	20404b04 <__metal_driver_sifive_fe310_g000_hfxosc_get_rate_hz>
20404b8e:	87aa                	mv	a5,a0
/home/khj/Desktop/hello_standalone/freedom-metal/src/drivers/sifive_fe310-g000_hfxosc.c:36
}
20404b90:	853e                	mv	a0,a5
20404b92:	40f2                	lw	ra,28(sp)
20404b94:	4462                	lw	s0,24(sp)
20404b96:	6105                	addi	sp,sp,32
20404b98:	8082                	ret

20404b9a <__metal_driver_sifive_fe310_g000_pll_pllsel0>:
__metal_driver_sifive_fe310_g000_pll_pllsel0():
/home/khj/Desktop/hello_standalone/bsp/build/debug/./metal/machine.h:1119
{
20404b9a:	1101                	addi	sp,sp,-32
20404b9c:	ce22                	sw	s0,28(sp)
20404b9e:	1000                	addi	s0,sp,32
20404ba0:	fea42623          	sw	a0,-20(s0)
/home/khj/Desktop/hello_standalone/bsp/build/debug/./metal/machine.h:1120
		return (struct metal_clock *)&__metal_dt_clock_3.clock;
20404ba4:	800007b7          	lui	a5,0x80000
20404ba8:	77878793          	addi	a5,a5,1912 # 80000778 <metal_dtim_0_memory_end+0xffff0778>
/home/khj/Desktop/hello_standalone/bsp/build/debug/./metal/machine.h:1121
}
20404bac:	853e                	mv	a0,a5
20404bae:	4472                	lw	s0,28(sp)
20404bb0:	6105                	addi	sp,sp,32
20404bb2:	8082                	ret

20404bb4 <__metal_driver_sifive_fe310_g000_pll_pllref>:
__metal_driver_sifive_fe310_g000_pll_pllref():
/home/khj/Desktop/hello_standalone/bsp/build/debug/./metal/machine.h:1124
{
20404bb4:	1101                	addi	sp,sp,-32
20404bb6:	ce22                	sw	s0,28(sp)
20404bb8:	1000                	addi	s0,sp,32
20404bba:	fea42623          	sw	a0,-20(s0)
/home/khj/Desktop/hello_standalone/bsp/build/debug/./metal/machine.h:1125
		return (struct metal_clock *)&__metal_dt_clock_1.clock;
20404bbe:	800007b7          	lui	a5,0x80000
20404bc2:	78478793          	addi	a5,a5,1924 # 80000784 <metal_dtim_0_memory_end+0xffff0784>
/home/khj/Desktop/hello_standalone/bsp/build/debug/./metal/machine.h:1126
}
20404bc6:	853e                	mv	a0,a5
20404bc8:	4472                	lw	s0,28(sp)
20404bca:	6105                	addi	sp,sp,32
20404bcc:	8082                	ret

20404bce <__metal_driver_sifive_fe310_g000_pll_divider_base>:
__metal_driver_sifive_fe310_g000_pll_divider_base():
/home/khj/Desktop/hello_standalone/bsp/build/debug/./metal/machine.h:1129
{
20404bce:	1101                	addi	sp,sp,-32
20404bd0:	ce22                	sw	s0,28(sp)
20404bd2:	1000                	addi	s0,sp,32
20404bd4:	fea42623          	sw	a0,-20(s0)
/home/khj/Desktop/hello_standalone/bsp/build/debug/./metal/machine.h:1130
		return (struct __metal_driver_sifive_fe310_g000_prci *)&__metal_dt_prci_10008000;
20404bd8:	82818793          	addi	a5,gp,-2008 # 800007c8 <__metal_dt_prci_10008000>
/home/khj/Desktop/hello_standalone/bsp/build/debug/./metal/machine.h:1131
}
20404bdc:	853e                	mv	a0,a5
20404bde:	4472                	lw	s0,28(sp)
20404be0:	6105                	addi	sp,sp,32
20404be2:	8082                	ret

20404be4 <__metal_driver_sifive_fe310_g000_pll_divider_offset>:
__metal_driver_sifive_fe310_g000_pll_divider_offset():
/home/khj/Desktop/hello_standalone/bsp/build/debug/./metal/machine.h:1134
{
20404be4:	1101                	addi	sp,sp,-32
20404be6:	ce22                	sw	s0,28(sp)
20404be8:	1000                	addi	s0,sp,32
20404bea:	fea42623          	sw	a0,-20(s0)
/home/khj/Desktop/hello_standalone/bsp/build/debug/./metal/machine.h:1135
		return METAL_SIFIVE_FE310_G000_PRCI_PLLOUTDIV;
20404bee:	47b1                	li	a5,12
/home/khj/Desktop/hello_standalone/bsp/build/debug/./metal/machine.h:1136
}
20404bf0:	853e                	mv	a0,a5
20404bf2:	4472                	lw	s0,28(sp)
20404bf4:	6105                	addi	sp,sp,32
20404bf6:	8082                	ret

20404bf8 <__metal_driver_sifive_fe310_g000_pll_config_base>:
__metal_driver_sifive_fe310_g000_pll_config_base():
/home/khj/Desktop/hello_standalone/bsp/build/debug/./metal/machine.h:1139
{
20404bf8:	1141                	addi	sp,sp,-16
20404bfa:	c622                	sw	s0,12(sp)
20404bfc:	0800                	addi	s0,sp,16
/home/khj/Desktop/hello_standalone/bsp/build/debug/./metal/machine.h:1140
		return (struct __metal_driver_sifive_fe310_g000_prci *)&__metal_dt_prci_10008000;
20404bfe:	82818793          	addi	a5,gp,-2008 # 800007c8 <__metal_dt_prci_10008000>
/home/khj/Desktop/hello_standalone/bsp/build/debug/./metal/machine.h:1141
}
20404c02:	853e                	mv	a0,a5
20404c04:	4432                	lw	s0,12(sp)
20404c06:	0141                	addi	sp,sp,16
20404c08:	8082                	ret

20404c0a <__metal_driver_sifive_fe310_g000_pll_config_offset>:
__metal_driver_sifive_fe310_g000_pll_config_offset():
/home/khj/Desktop/hello_standalone/bsp/build/debug/./metal/machine.h:1144
{
20404c0a:	1141                	addi	sp,sp,-16
20404c0c:	c622                	sw	s0,12(sp)
20404c0e:	0800                	addi	s0,sp,16
/home/khj/Desktop/hello_standalone/bsp/build/debug/./metal/machine.h:1145
		return METAL_SIFIVE_FE310_G000_PRCI_PLLCFG;
20404c10:	47a1                	li	a5,8
/home/khj/Desktop/hello_standalone/bsp/build/debug/./metal/machine.h:1146
}
20404c12:	853e                	mv	a0,a5
20404c14:	4432                	lw	s0,12(sp)
20404c16:	0141                	addi	sp,sp,16
20404c18:	8082                	ret

20404c1a <__metal_driver_sifive_fe310_g000_pll_init_rate>:
__metal_driver_sifive_fe310_g000_pll_init_rate():
/home/khj/Desktop/hello_standalone/bsp/build/debug/./metal/machine.h:1149
{
20404c1a:	1141                	addi	sp,sp,-16
20404c1c:	c622                	sw	s0,12(sp)
20404c1e:	0800                	addi	s0,sp,16
/home/khj/Desktop/hello_standalone/bsp/build/debug/./metal/machine.h:1150
		return 16000000;
20404c20:	00f427b7          	lui	a5,0xf42
20404c24:	40078793          	addi	a5,a5,1024 # f42400 <__heap_size+0xf41c00>
/home/khj/Desktop/hello_standalone/bsp/build/debug/./metal/machine.h:1151
}
20404c28:	853e                	mv	a0,a5
20404c2a:	4432                	lw	s0,12(sp)
20404c2c:	0141                	addi	sp,sp,16
20404c2e:	8082                	ret

20404c30 <__metal_driver_sifive_fe310_g000_prci_base>:
__metal_driver_sifive_fe310_g000_prci_base():
/home/khj/Desktop/hello_standalone/bsp/build/debug/./metal/machine.h:1157
{
20404c30:	1141                	addi	sp,sp,-16
20404c32:	c622                	sw	s0,12(sp)
20404c34:	0800                	addi	s0,sp,16
/home/khj/Desktop/hello_standalone/bsp/build/debug/./metal/machine.h:1158
		return METAL_SIFIVE_FE310_G000_PRCI_10008000_BASE_ADDRESS;
20404c36:	100087b7          	lui	a5,0x10008
/home/khj/Desktop/hello_standalone/bsp/build/debug/./metal/machine.h:1159
}
20404c3a:	853e                	mv	a0,a5
20404c3c:	4432                	lw	s0,12(sp)
20404c3e:	0141                	addi	sp,sp,16
20404c40:	8082                	ret

20404c42 <__metal_driver_sifive_fe310_g000_prci_vtable>:
__metal_driver_sifive_fe310_g000_prci_vtable():
/home/khj/Desktop/hello_standalone/bsp/build/debug/./metal/machine.h:1167
{
20404c42:	1141                	addi	sp,sp,-16
20404c44:	c622                	sw	s0,12(sp)
20404c46:	0800                	addi	s0,sp,16
/home/khj/Desktop/hello_standalone/bsp/build/debug/./metal/machine.h:1168
		return &__metal_driver_vtable_sifive_fe310_g000_prci;
20404c48:	83c18793          	addi	a5,gp,-1988 # 800007dc <__metal_driver_vtable_sifive_fe310_g000_prci>
/home/khj/Desktop/hello_standalone/bsp/build/debug/./metal/machine.h:1169
}
20404c4c:	853e                	mv	a0,a5
20404c4e:	4432                	lw	s0,12(sp)
20404c50:	0141                	addi	sp,sp,16
20404c52:	8082                	ret

20404c54 <get_pll_config_freq>:
get_pll_config_freq():
/home/khj/Desktop/hello_standalone/freedom-metal/src/drivers/sifive_fe310-g000_pll.c:141
                                const struct pll_config_t *config) {
20404c54:	1101                	addi	sp,sp,-32
20404c56:	ce22                	sw	s0,28(sp)
20404c58:	1000                	addi	s0,sp,32
20404c5a:	fea42623          	sw	a0,-20(s0)
20404c5e:	feb42423          	sw	a1,-24(s0)
/home/khj/Desktop/hello_standalone/freedom-metal/src/drivers/sifive_fe310-g000_pll.c:142
    if (pll_input_rate < config->min_input_rate ||
20404c62:	fe842783          	lw	a5,-24(s0)
20404c66:	479c                	lw	a5,8(a5)
20404c68:	fec42703          	lw	a4,-20(s0)
20404c6c:	00f76963          	bltu	a4,a5,20404c7e <get_pll_config_freq+0x2a>
/home/khj/Desktop/hello_standalone/freedom-metal/src/drivers/sifive_fe310-g000_pll.c:143 (discriminator 1)
        pll_input_rate > config->max_input_rate)
20404c70:	fe842783          	lw	a5,-24(s0)
20404c74:	47dc                	lw	a5,12(a5)
/home/khj/Desktop/hello_standalone/freedom-metal/src/drivers/sifive_fe310-g000_pll.c:142 (discriminator 1)
    if (pll_input_rate < config->min_input_rate ||
20404c76:	fec42703          	lw	a4,-20(s0)
20404c7a:	00e7f463          	bgeu	a5,a4,20404c82 <get_pll_config_freq+0x2e>
/home/khj/Desktop/hello_standalone/freedom-metal/src/drivers/sifive_fe310-g000_pll.c:144
        return PLL_CONFIG_NOT_VALID;
20404c7e:	57fd                	li	a5,-1
20404c80:	a829                	j	20404c9a <get_pll_config_freq+0x46>
/home/khj/Desktop/hello_standalone/freedom-metal/src/drivers/sifive_fe310-g000_pll.c:146
    return pll_input_rate * config->multiplier / config->divisor;
20404c82:	fe842783          	lw	a5,-24(s0)
20404c86:	4398                	lw	a4,0(a5)
20404c88:	fec42783          	lw	a5,-20(s0)
20404c8c:	02f70733          	mul	a4,a4,a5
20404c90:	fe842783          	lw	a5,-24(s0)
20404c94:	43dc                	lw	a5,4(a5)
20404c96:	02f757b3          	divu	a5,a4,a5
/home/khj/Desktop/hello_standalone/freedom-metal/src/drivers/sifive_fe310-g000_pll.c:147
}
20404c9a:	853e                	mv	a0,a5
20404c9c:	4472                	lw	s0,28(sp)
20404c9e:	6105                	addi	sp,sp,32
20404ca0:	8082                	ret

20404ca2 <__metal_driver_sifive_fe310_g000_pll_init>:
__metal_driver_sifive_fe310_g000_pll_init():
/home/khj/Desktop/hello_standalone/freedom-metal/src/drivers/sifive_fe310-g000_pll.c:162
    struct __metal_driver_sifive_fe310_g000_pll *pll) {
20404ca2:	7139                	addi	sp,sp,-64
20404ca4:	de06                	sw	ra,60(sp)
20404ca6:	dc22                	sw	s0,56(sp)
20404ca8:	0080                	addi	s0,sp,64
20404caa:	fca42623          	sw	a0,-52(s0)
/home/khj/Desktop/hello_standalone/freedom-metal/src/drivers/sifive_fe310-g000_pll.c:164
        __metal_driver_sifive_fe310_g000_pll_pllref(&(pll->clock));
20404cae:	fcc42783          	lw	a5,-52(s0)
20404cb2:	853e                	mv	a0,a5
20404cb4:	3701                	jal	20404bb4 <__metal_driver_sifive_fe310_g000_pll_pllref>
20404cb6:	fea42623          	sw	a0,-20(s0)
/home/khj/Desktop/hello_standalone/freedom-metal/src/drivers/sifive_fe310-g000_pll.c:165
    long init_rate = __metal_driver_sifive_fe310_g000_pll_init_rate();
20404cba:	3785                	jal	20404c1a <__metal_driver_sifive_fe310_g000_pll_init_rate>
20404cbc:	fea42423          	sw	a0,-24(s0)
/home/khj/Desktop/hello_standalone/freedom-metal/src/drivers/sifive_fe310-g000_pll.c:166
    long config_offset = __metal_driver_sifive_fe310_g000_pll_config_offset();
20404cc0:	37a9                	jal	20404c0a <__metal_driver_sifive_fe310_g000_pll_config_offset>
20404cc2:	fea42223          	sw	a0,-28(s0)
/home/khj/Desktop/hello_standalone/freedom-metal/src/drivers/sifive_fe310-g000_pll.c:167
    long base = __metal_driver_sifive_fe310_g000_prci_base();
20404cc6:	37ad                	jal	20404c30 <__metal_driver_sifive_fe310_g000_prci_base>
20404cc8:	fea42023          	sw	a0,-32(s0)
/home/khj/Desktop/hello_standalone/freedom-metal/src/drivers/sifive_fe310-g000_pll.c:169
    __metal_io_u32 *pllcfg = (__metal_io_u32 *)(base + config_offset);
20404ccc:	fe042703          	lw	a4,-32(s0)
20404cd0:	fe442783          	lw	a5,-28(s0)
20404cd4:	97ba                	add	a5,a5,a4
20404cd6:	fcf42e23          	sw	a5,-36(s0)
/home/khj/Desktop/hello_standalone/freedom-metal/src/drivers/sifive_fe310-g000_pll.c:173
    _metal_clock_call_all_callbacks(pll->clock._pre_rate_change_callback);
20404cda:	fcc42783          	lw	a5,-52(s0)
20404cde:	43dc                	lw	a5,4(a5)
20404ce0:	853e                	mv	a0,a5
20404ce2:	5bc010ef          	jal	ra,2040629e <_metal_clock_call_all_callbacks>
/home/khj/Desktop/hello_standalone/freedom-metal/src/drivers/sifive_fe310-g000_pll.c:177
    if ((__METAL_ACCESS_ONCE(pllcfg) & PLL_SEL) != 0)
20404ce6:	fdc42783          	lw	a5,-36(s0)
20404cea:	4398                	lw	a4,0(a5)
20404cec:	67c1                	lui	a5,0x10
20404cee:	8ff9                	and	a5,a5,a4
20404cf0:	cb91                	beqz	a5,20404d04 <__metal_driver_sifive_fe310_g000_pll_init+0x62>
/home/khj/Desktop/hello_standalone/freedom-metal/src/drivers/sifive_fe310-g000_pll.c:178
        __METAL_ACCESS_ONCE(pllcfg) &= ~(PLL_SEL);
20404cf2:	fdc42783          	lw	a5,-36(s0)
20404cf6:	4398                	lw	a4,0(a5)
20404cf8:	77c1                	lui	a5,0xffff0
20404cfa:	17fd                	addi	a5,a5,-1
20404cfc:	8f7d                	and	a4,a4,a5
20404cfe:	fdc42783          	lw	a5,-36(s0)
20404d02:	c398                	sw	a4,0(a5)
/home/khj/Desktop/hello_standalone/freedom-metal/src/drivers/sifive_fe310-g000_pll.c:181
    if (pllref != NULL)
20404d04:	fec42783          	lw	a5,-20(s0)
20404d08:	cb91                	beqz	a5,20404d1c <__metal_driver_sifive_fe310_g000_pll_init+0x7a>
/home/khj/Desktop/hello_standalone/freedom-metal/src/drivers/sifive_fe310-g000_pll.c:182
        __METAL_ACCESS_ONCE(pllcfg) |= PLL_REFSEL;
20404d0a:	fdc42783          	lw	a5,-36(s0)
20404d0e:	4398                	lw	a4,0(a5)
20404d10:	000207b7          	lui	a5,0x20
20404d14:	8f5d                	or	a4,a4,a5
20404d16:	fdc42783          	lw	a5,-36(s0)
20404d1a:	c398                	sw	a4,0(a5)
/home/khj/Desktop/hello_standalone/freedom-metal/src/drivers/sifive_fe310-g000_pll.c:187
    pll->clock.vtable->set_rate_hz(&(pll->clock), init_rate);
20404d1c:	fcc42783          	lw	a5,-52(s0)
20404d20:	439c                	lw	a5,0(a5)
20404d22:	43d8                	lw	a4,4(a5)
20404d24:	fcc42783          	lw	a5,-52(s0)
20404d28:	fe842583          	lw	a1,-24(s0)
20404d2c:	853e                	mv	a0,a5
20404d2e:	9702                	jalr	a4
/home/khj/Desktop/hello_standalone/freedom-metal/src/drivers/sifive_fe310-g000_pll.c:190
    _metal_clock_call_all_callbacks(pll->clock._post_rate_change_callback);
20404d30:	fcc42783          	lw	a5,-52(s0)
20404d34:	479c                	lw	a5,8(a5)
20404d36:	853e                	mv	a0,a5
20404d38:	566010ef          	jal	ra,2040629e <_metal_clock_call_all_callbacks>
/home/khj/Desktop/hello_standalone/freedom-metal/src/drivers/sifive_fe310-g000_pll.c:191
}
20404d3c:	0001                	nop
20404d3e:	50f2                	lw	ra,60(sp)
20404d40:	5462                	lw	s0,56(sp)
20404d42:	6121                	addi	sp,sp,64
20404d44:	8082                	ret

20404d46 <__metal_driver_sifive_fe310_g000_pll_get_rate_hz>:
__metal_driver_sifive_fe310_g000_pll_get_rate_hz():
/home/khj/Desktop/hello_standalone/freedom-metal/src/drivers/sifive_fe310-g000_pll.c:194
    const struct metal_clock *clock) {
20404d46:	711d                	addi	sp,sp,-96
20404d48:	ce86                	sw	ra,92(sp)
20404d4a:	cca2                	sw	s0,88(sp)
20404d4c:	1080                	addi	s0,sp,96
20404d4e:	faa42623          	sw	a0,-84(s0)
/home/khj/Desktop/hello_standalone/freedom-metal/src/drivers/sifive_fe310-g000_pll.c:196
        __metal_driver_sifive_fe310_g000_pll_pllref(clock);
20404d52:	fac42503          	lw	a0,-84(s0)
20404d56:	3db9                	jal	20404bb4 <__metal_driver_sifive_fe310_g000_pll_pllref>
20404d58:	fea42623          	sw	a0,-20(s0)
/home/khj/Desktop/hello_standalone/freedom-metal/src/drivers/sifive_fe310-g000_pll.c:198
        __metal_driver_sifive_fe310_g000_pll_pllsel0(clock);
20404d5c:	fac42503          	lw	a0,-84(s0)
20404d60:	3d2d                	jal	20404b9a <__metal_driver_sifive_fe310_g000_pll_pllsel0>
20404d62:	fea42423          	sw	a0,-24(s0)
/home/khj/Desktop/hello_standalone/freedom-metal/src/drivers/sifive_fe310-g000_pll.c:200
        __metal_driver_sifive_fe310_g000_pll_config_offset(clock);
20404d66:	fac42503          	lw	a0,-84(s0)
20404d6a:	3545                	jal	20404c0a <__metal_driver_sifive_fe310_g000_pll_config_offset>
20404d6c:	fea42223          	sw	a0,-28(s0)
/home/khj/Desktop/hello_standalone/freedom-metal/src/drivers/sifive_fe310-g000_pll.c:202
        __metal_driver_sifive_fe310_g000_pll_config_base(clock);
20404d70:	fac42503          	lw	a0,-84(s0)
20404d74:	3551                	jal	20404bf8 <__metal_driver_sifive_fe310_g000_pll_config_base>
20404d76:	fea42023          	sw	a0,-32(s0)
/home/khj/Desktop/hello_standalone/freedom-metal/src/drivers/sifive_fe310-g000_pll.c:204
        __metal_driver_sifive_fe310_g000_pll_divider_offset(clock);
20404d7a:	fac42503          	lw	a0,-84(s0)
20404d7e:	359d                	jal	20404be4 <__metal_driver_sifive_fe310_g000_pll_divider_offset>
20404d80:	fca42e23          	sw	a0,-36(s0)
/home/khj/Desktop/hello_standalone/freedom-metal/src/drivers/sifive_fe310-g000_pll.c:206
        __metal_driver_sifive_fe310_g000_pll_divider_base(clock);
20404d84:	fac42503          	lw	a0,-84(s0)
20404d88:	3599                	jal	20404bce <__metal_driver_sifive_fe310_g000_pll_divider_base>
20404d8a:	fca42c23          	sw	a0,-40(s0)
/home/khj/Desktop/hello_standalone/freedom-metal/src/drivers/sifive_fe310-g000_pll.c:208
        __metal_driver_sifive_fe310_g000_prci_vtable();
20404d8e:	3d55                	jal	20404c42 <__metal_driver_sifive_fe310_g000_prci_vtable>
20404d90:	fca42a23          	sw	a0,-44(s0)
/home/khj/Desktop/hello_standalone/freedom-metal/src/drivers/sifive_fe310-g000_pll.c:210
    long cfg = vtable->get_reg(config_base, config_offset);
20404d94:	fd442783          	lw	a5,-44(s0)
20404d98:	439c                	lw	a5,0(a5)
20404d9a:	fe442583          	lw	a1,-28(s0)
20404d9e:	fe042503          	lw	a0,-32(s0)
20404da2:	9782                	jalr	a5
20404da4:	fca42823          	sw	a0,-48(s0)
/home/khj/Desktop/hello_standalone/freedom-metal/src/drivers/sifive_fe310-g000_pll.c:211
    long div = vtable->get_reg(divider_base, divider_offset);
20404da8:	fd442783          	lw	a5,-44(s0)
20404dac:	439c                	lw	a5,0(a5)
20404dae:	fdc42583          	lw	a1,-36(s0)
20404db2:	fd842503          	lw	a0,-40(s0)
20404db6:	9782                	jalr	a5
20404db8:	fca42623          	sw	a0,-52(s0)
/home/khj/Desktop/hello_standalone/freedom-metal/src/drivers/sifive_fe310-g000_pll.c:215
    if (__METAL_GET_FIELD(cfg, PLL_SEL) == 0)
20404dbc:	fd042703          	lw	a4,-48(s0)
20404dc0:	67c1                	lui	a5,0x10
20404dc2:	8f7d                	and	a4,a4,a5
20404dc4:	67c1                	lui	a5,0x10
20404dc6:	00f77863          	bgeu	a4,a5,20404dd6 <__metal_driver_sifive_fe310_g000_pll_get_rate_hz+0x90>
/home/khj/Desktop/hello_standalone/freedom-metal/src/drivers/sifive_fe310-g000_pll.c:216
        return metal_clock_get_rate_hz(pllsel0);
20404dca:	fe842503          	lw	a0,-24(s0)
20404dce:	564010ef          	jal	ra,20406332 <metal_clock_get_rate_hz>
20404dd2:	87aa                	mv	a5,a0
20404dd4:	a8e1                	j	20404eac <__metal_driver_sifive_fe310_g000_pll_get_rate_hz+0x166>
/home/khj/Desktop/hello_standalone/freedom-metal/src/drivers/sifive_fe310-g000_pll.c:221
        __METAL_GET_FIELD(cfg, PLL_REFSEL) ? pllref : pllsel0);
20404dd6:	fd042703          	lw	a4,-48(s0)
20404dda:	000207b7          	lui	a5,0x20
20404dde:	8f7d                	and	a4,a4,a5
/home/khj/Desktop/hello_standalone/freedom-metal/src/drivers/sifive_fe310-g000_pll.c:220
    long ref_hz = metal_clock_get_rate_hz(
20404de0:	000207b7          	lui	a5,0x20
20404de4:	00f76563          	bltu	a4,a5,20404dee <__metal_driver_sifive_fe310_g000_pll_get_rate_hz+0xa8>
/home/khj/Desktop/hello_standalone/freedom-metal/src/drivers/sifive_fe310-g000_pll.c:220 (discriminator 1)
20404de8:	fec42783          	lw	a5,-20(s0)
20404dec:	a019                	j	20404df2 <__metal_driver_sifive_fe310_g000_pll_get_rate_hz+0xac>
/home/khj/Desktop/hello_standalone/freedom-metal/src/drivers/sifive_fe310-g000_pll.c:220 (discriminator 2)
20404dee:	fe842783          	lw	a5,-24(s0)
/home/khj/Desktop/hello_standalone/freedom-metal/src/drivers/sifive_fe310-g000_pll.c:220 (discriminator 4)
20404df2:	853e                	mv	a0,a5
20404df4:	53e010ef          	jal	ra,20406332 <metal_clock_get_rate_hz>
20404df8:	fca42423          	sw	a0,-56(s0)
/home/khj/Desktop/hello_standalone/freedom-metal/src/drivers/sifive_fe310-g000_pll.c:225 (discriminator 4)
    if (__METAL_GET_FIELD(cfg, PLL_BYPASS))
20404dfc:	fd042703          	lw	a4,-48(s0)
20404e00:	000407b7          	lui	a5,0x40
20404e04:	8f7d                	and	a4,a4,a5
20404e06:	000407b7          	lui	a5,0x40
20404e0a:	00f76563          	bltu	a4,a5,20404e14 <__metal_driver_sifive_fe310_g000_pll_get_rate_hz+0xce>
/home/khj/Desktop/hello_standalone/freedom-metal/src/drivers/sifive_fe310-g000_pll.c:226
        return ref_hz;
20404e0e:	fc842783          	lw	a5,-56(s0)
20404e12:	a869                	j	20404eac <__metal_driver_sifive_fe310_g000_pll_get_rate_hz+0x166>
/home/khj/Desktop/hello_standalone/freedom-metal/src/drivers/sifive_fe310-g000_pll.c:229
    long div_r = __METAL_GET_FIELD(cfg, PLL_R) + 1;
20404e14:	fd042783          	lw	a5,-48(s0)
20404e18:	8b9d                	andi	a5,a5,7
20404e1a:	0785                	addi	a5,a5,1
20404e1c:	fcf42223          	sw	a5,-60(s0)
/home/khj/Desktop/hello_standalone/freedom-metal/src/drivers/sifive_fe310-g000_pll.c:230
    long mul_f = 2 * (__METAL_GET_FIELD(cfg, PLL_F) + 1);
20404e20:	fd042783          	lw	a5,-48(s0)
20404e24:	3f07f793          	andi	a5,a5,1008
20404e28:	8391                	srli	a5,a5,0x4
20404e2a:	0785                	addi	a5,a5,1
20404e2c:	0786                	slli	a5,a5,0x1
20404e2e:	fcf42023          	sw	a5,-64(s0)
/home/khj/Desktop/hello_standalone/freedom-metal/src/drivers/sifive_fe310-g000_pll.c:231
    if (__METAL_GET_FIELD(cfg, PLL_Q) == 0)
20404e32:	fd042703          	lw	a4,-48(s0)
20404e36:	6785                	lui	a5,0x1
20404e38:	c0078793          	addi	a5,a5,-1024 # c00 <__heap_size+0x400>
20404e3c:	8f7d                	and	a4,a4,a5
20404e3e:	3ff00793          	li	a5,1023
20404e42:	00e7e463          	bltu	a5,a4,20404e4a <__metal_driver_sifive_fe310_g000_pll_get_rate_hz+0x104>
/home/khj/Desktop/hello_standalone/freedom-metal/src/drivers/sifive_fe310-g000_pll.c:232
        return -1;
20404e46:	57fd                	li	a5,-1
20404e48:	a095                	j	20404eac <__metal_driver_sifive_fe310_g000_pll_get_rate_hz+0x166>
/home/khj/Desktop/hello_standalone/freedom-metal/src/drivers/sifive_fe310-g000_pll.c:233
    long div_q = 1 << __METAL_GET_FIELD(cfg, PLL_Q);
20404e4a:	fd042703          	lw	a4,-48(s0)
20404e4e:	6785                	lui	a5,0x1
20404e50:	c0078793          	addi	a5,a5,-1024 # c00 <__heap_size+0x400>
20404e54:	8ff9                	and	a5,a5,a4
20404e56:	83a9                	srli	a5,a5,0xa
20404e58:	4705                	li	a4,1
20404e5a:	00f717b3          	sll	a5,a4,a5
20404e5e:	faf42e23          	sw	a5,-68(s0)
/home/khj/Desktop/hello_standalone/freedom-metal/src/drivers/sifive_fe310-g000_pll.c:238
    long pllout = (((ref_hz / div_r) * mul_f) / div_q);
20404e62:	fc842703          	lw	a4,-56(s0)
20404e66:	fc442783          	lw	a5,-60(s0)
20404e6a:	02f74733          	div	a4,a4,a5
20404e6e:	fc042783          	lw	a5,-64(s0)
20404e72:	02f70733          	mul	a4,a4,a5
20404e76:	fbc42783          	lw	a5,-68(s0)
20404e7a:	02f747b3          	div	a5,a4,a5
20404e7e:	faf42c23          	sw	a5,-72(s0)
/home/khj/Desktop/hello_standalone/freedom-metal/src/drivers/sifive_fe310-g000_pll.c:239
    if (__METAL_GET_FIELD(div, DIV_1))
20404e82:	fcc42783          	lw	a5,-52(s0)
20404e86:	1007f713          	andi	a4,a5,256
20404e8a:	0ff00793          	li	a5,255
20404e8e:	00e7f563          	bgeu	a5,a4,20404e98 <__metal_driver_sifive_fe310_g000_pll_get_rate_hz+0x152>
/home/khj/Desktop/hello_standalone/freedom-metal/src/drivers/sifive_fe310-g000_pll.c:240
        return pllout;
20404e92:	fb842783          	lw	a5,-72(s0)
20404e96:	a819                	j	20404eac <__metal_driver_sifive_fe310_g000_pll_get_rate_hz+0x166>
/home/khj/Desktop/hello_standalone/freedom-metal/src/drivers/sifive_fe310-g000_pll.c:242
    return pllout / (2 * (__METAL_GET_FIELD(div, DIV_DIV) + 1));
20404e98:	fb842703          	lw	a4,-72(s0)
20404e9c:	fcc42783          	lw	a5,-52(s0)
20404ea0:	03f7f793          	andi	a5,a5,63
20404ea4:	0785                	addi	a5,a5,1
20404ea6:	0786                	slli	a5,a5,0x1
20404ea8:	02f757b3          	divu	a5,a4,a5
/home/khj/Desktop/hello_standalone/freedom-metal/src/drivers/sifive_fe310-g000_pll.c:243
}
20404eac:	853e                	mv	a0,a5
20404eae:	40f6                	lw	ra,92(sp)
20404eb0:	4466                	lw	s0,88(sp)
20404eb2:	6125                	addi	sp,sp,96
20404eb4:	8082                	ret

20404eb6 <find_closest_config>:
find_closest_config():
/home/khj/Desktop/hello_standalone/freedom-metal/src/drivers/sifive_fe310-g000_pll.c:253
static int find_closest_config(long ref_hz, long rate) {
20404eb6:	7139                	addi	sp,sp,-64
20404eb8:	de06                	sw	ra,60(sp)
20404eba:	dc22                	sw	s0,56(sp)
20404ebc:	0080                	addi	s0,sp,64
20404ebe:	fca42623          	sw	a0,-52(s0)
20404ec2:	fcb42423          	sw	a1,-56(s0)
/home/khj/Desktop/hello_standalone/freedom-metal/src/drivers/sifive_fe310-g000_pll.c:254
    int closest_index = -1;
20404ec6:	57fd                	li	a5,-1
20404ec8:	fef42623          	sw	a5,-20(s0)
/home/khj/Desktop/hello_standalone/freedom-metal/src/drivers/sifive_fe310-g000_pll.c:255
    long closest_diff = LONG_MAX;
20404ecc:	800007b7          	lui	a5,0x80000
20404ed0:	fff7c793          	not	a5,a5
20404ed4:	fef42423          	sw	a5,-24(s0)
/home/khj/Desktop/hello_standalone/freedom-metal/src/drivers/sifive_fe310-g000_pll.c:259
    for (int i = (sizeof(pll_configs) / sizeof(pll_configs[0])) - 1; i >= 0;
20404ed8:	04300793          	li	a5,67
20404edc:	fef42223          	sw	a5,-28(s0)
20404ee0:	a0ad                	j	20404f4a <find_closest_config+0x94>
/home/khj/Desktop/hello_standalone/freedom-metal/src/drivers/sifive_fe310-g000_pll.c:261
        long config_freq = get_pll_config_freq(ref_hz, &(pll_configs[i]));
20404ee2:	fcc42683          	lw	a3,-52(s0)
20404ee6:	fe442783          	lw	a5,-28(s0)
20404eea:	00579713          	slli	a4,a5,0x5
20404eee:	204007b7          	lui	a5,0x20400
20404ef2:	5fc78793          	addi	a5,a5,1532 # 204005fc <pll_configs>
20404ef6:	97ba                	add	a5,a5,a4
20404ef8:	85be                	mv	a1,a5
20404efa:	8536                	mv	a0,a3
20404efc:	3ba1                	jal	20404c54 <get_pll_config_freq>
20404efe:	fea42023          	sw	a0,-32(s0)
/home/khj/Desktop/hello_standalone/freedom-metal/src/drivers/sifive_fe310-g000_pll.c:262
        if (config_freq != PLL_CONFIG_NOT_VALID) {
20404f02:	fe042703          	lw	a4,-32(s0)
20404f06:	57fd                	li	a5,-1
20404f08:	02f70c63          	beq	a4,a5,20404f40 <find_closest_config+0x8a>
/home/khj/Desktop/hello_standalone/freedom-metal/src/drivers/sifive_fe310-g000_pll.c:263
            long freq_diff = abs(config_freq - rate);
20404f0c:	fe042703          	lw	a4,-32(s0)
20404f10:	fc842783          	lw	a5,-56(s0)
20404f14:	8f1d                	sub	a4,a4,a5
20404f16:	41f75793          	srai	a5,a4,0x1f
20404f1a:	8f3d                	xor	a4,a4,a5
20404f1c:	40f707b3          	sub	a5,a4,a5
20404f20:	fcf42e23          	sw	a5,-36(s0)
/home/khj/Desktop/hello_standalone/freedom-metal/src/drivers/sifive_fe310-g000_pll.c:264
            if (freq_diff < closest_diff) {
20404f24:	fdc42703          	lw	a4,-36(s0)
20404f28:	fe842783          	lw	a5,-24(s0)
20404f2c:	00f75a63          	bge	a4,a5,20404f40 <find_closest_config+0x8a>
/home/khj/Desktop/hello_standalone/freedom-metal/src/drivers/sifive_fe310-g000_pll.c:265
                closest_index = i;
20404f30:	fe442783          	lw	a5,-28(s0)
20404f34:	fef42623          	sw	a5,-20(s0)
/home/khj/Desktop/hello_standalone/freedom-metal/src/drivers/sifive_fe310-g000_pll.c:266
                closest_diff = freq_diff;
20404f38:	fdc42783          	lw	a5,-36(s0)
20404f3c:	fef42423          	sw	a5,-24(s0)
/home/khj/Desktop/hello_standalone/freedom-metal/src/drivers/sifive_fe310-g000_pll.c:260
         i--) {
20404f40:	fe442783          	lw	a5,-28(s0)
20404f44:	17fd                	addi	a5,a5,-1
20404f46:	fef42223          	sw	a5,-28(s0)
/home/khj/Desktop/hello_standalone/freedom-metal/src/drivers/sifive_fe310-g000_pll.c:259 (discriminator 1)
    for (int i = (sizeof(pll_configs) / sizeof(pll_configs[0])) - 1; i >= 0;
20404f4a:	fe442783          	lw	a5,-28(s0)
20404f4e:	f807dae3          	bgez	a5,20404ee2 <find_closest_config+0x2c>
/home/khj/Desktop/hello_standalone/freedom-metal/src/drivers/sifive_fe310-g000_pll.c:271
    return closest_index;
20404f52:	fec42783          	lw	a5,-20(s0)
/home/khj/Desktop/hello_standalone/freedom-metal/src/drivers/sifive_fe310-g000_pll.c:272
}
20404f56:	853e                	mv	a0,a5
20404f58:	50f2                	lw	ra,60(sp)
20404f5a:	5462                	lw	s0,56(sp)
20404f5c:	6121                	addi	sp,sp,64
20404f5e:	8082                	ret

20404f60 <configure_pll>:
configure_pll():
/home/khj/Desktop/hello_standalone/freedom-metal/src/drivers/sifive_fe310-g000_pll.c:289
                          const struct pll_config_t *config) {
20404f60:	7179                	addi	sp,sp,-48
20404f62:	d606                	sw	ra,44(sp)
20404f64:	d422                	sw	s0,40(sp)
20404f66:	1800                	addi	s0,sp,48
20404f68:	fca42e23          	sw	a0,-36(s0)
20404f6c:	fcb42c23          	sw	a1,-40(s0)
20404f70:	fcc42a23          	sw	a2,-44(s0)
/home/khj/Desktop/hello_standalone/freedom-metal/src/drivers/sifive_fe310-g000_pll.c:290
    __METAL_ACCESS_ONCE(pllcfg) &= ~(PLL_R);
20404f74:	fdc42783          	lw	a5,-36(s0)
20404f78:	439c                	lw	a5,0(a5)
20404f7a:	ff87f713          	andi	a4,a5,-8
20404f7e:	fdc42783          	lw	a5,-36(s0)
20404f82:	c398                	sw	a4,0(a5)
/home/khj/Desktop/hello_standalone/freedom-metal/src/drivers/sifive_fe310-g000_pll.c:291
    __METAL_ACCESS_ONCE(pllcfg) |= PLL_R_SHIFT(config->r);
20404f84:	fdc42783          	lw	a5,-36(s0)
20404f88:	4398                	lw	a4,0(a5)
20404f8a:	fd442783          	lw	a5,-44(s0)
20404f8e:	4b9c                	lw	a5,16(a5)
20404f90:	8b9d                	andi	a5,a5,7
20404f92:	8f5d                	or	a4,a4,a5
20404f94:	fdc42783          	lw	a5,-36(s0)
20404f98:	c398                	sw	a4,0(a5)
/home/khj/Desktop/hello_standalone/freedom-metal/src/drivers/sifive_fe310-g000_pll.c:293
    __METAL_ACCESS_ONCE(pllcfg) &= ~(PLL_F);
20404f9a:	fdc42783          	lw	a5,-36(s0)
20404f9e:	439c                	lw	a5,0(a5)
20404fa0:	c0f7f713          	andi	a4,a5,-1009
20404fa4:	fdc42783          	lw	a5,-36(s0)
20404fa8:	c398                	sw	a4,0(a5)
/home/khj/Desktop/hello_standalone/freedom-metal/src/drivers/sifive_fe310-g000_pll.c:294
    __METAL_ACCESS_ONCE(pllcfg) |= PLL_F_SHIFT(config->f);
20404faa:	fdc42783          	lw	a5,-36(s0)
20404fae:	4398                	lw	a4,0(a5)
20404fb0:	fd442783          	lw	a5,-44(s0)
20404fb4:	4bdc                	lw	a5,20(a5)
20404fb6:	0792                	slli	a5,a5,0x4
20404fb8:	3f07f793          	andi	a5,a5,1008
20404fbc:	8f5d                	or	a4,a4,a5
20404fbe:	fdc42783          	lw	a5,-36(s0)
20404fc2:	c398                	sw	a4,0(a5)
/home/khj/Desktop/hello_standalone/freedom-metal/src/drivers/sifive_fe310-g000_pll.c:296
    __METAL_ACCESS_ONCE(pllcfg) &= ~(PLL_Q);
20404fc4:	fdc42783          	lw	a5,-36(s0)
20404fc8:	4398                	lw	a4,0(a5)
20404fca:	77fd                	lui	a5,0xfffff
20404fcc:	3ff78793          	addi	a5,a5,1023 # fffff3ff <metal_dtim_0_memory_end+0x7ffef3ff>
20404fd0:	8f7d                	and	a4,a4,a5
20404fd2:	fdc42783          	lw	a5,-36(s0)
20404fd6:	c398                	sw	a4,0(a5)
/home/khj/Desktop/hello_standalone/freedom-metal/src/drivers/sifive_fe310-g000_pll.c:297
    __METAL_ACCESS_ONCE(pllcfg) |= PLL_Q_SHIFT(config->q);
20404fd8:	fdc42783          	lw	a5,-36(s0)
20404fdc:	4398                	lw	a4,0(a5)
20404fde:	fd442783          	lw	a5,-44(s0)
20404fe2:	4f9c                	lw	a5,24(a5)
20404fe4:	00a79693          	slli	a3,a5,0xa
20404fe8:	6785                	lui	a5,0x1
20404fea:	c0078793          	addi	a5,a5,-1024 # c00 <__heap_size+0x400>
20404fee:	8ff5                	and	a5,a5,a3
20404ff0:	8f5d                	or	a4,a4,a5
20404ff2:	fdc42783          	lw	a5,-36(s0)
20404ff6:	c398                	sw	a4,0(a5)
/home/khj/Desktop/hello_standalone/freedom-metal/src/drivers/sifive_fe310-g000_pll.c:299
    if (config->d < 0) {
20404ff8:	fd442783          	lw	a5,-44(s0)
20404ffc:	4fdc                	lw	a5,28(a5)
20404ffe:	0207db63          	bgez	a5,20405034 <configure_pll+0xd4>
/home/khj/Desktop/hello_standalone/freedom-metal/src/drivers/sifive_fe310-g000_pll.c:301
        __METAL_ACCESS_ONCE(plloutdiv) |= DIV_1;
20405002:	fd842783          	lw	a5,-40(s0)
20405006:	439c                	lw	a5,0(a5)
20405008:	1007e713          	ori	a4,a5,256
2040500c:	fd842783          	lw	a5,-40(s0)
20405010:	c398                	sw	a4,0(a5)
/home/khj/Desktop/hello_standalone/freedom-metal/src/drivers/sifive_fe310-g000_pll.c:303
        __METAL_ACCESS_ONCE(plloutdiv) &= ~(DIV_DIV);
20405012:	fd842783          	lw	a5,-40(s0)
20405016:	439c                	lw	a5,0(a5)
20405018:	fc07f713          	andi	a4,a5,-64
2040501c:	fd842783          	lw	a5,-40(s0)
20405020:	c398                	sw	a4,0(a5)
/home/khj/Desktop/hello_standalone/freedom-metal/src/drivers/sifive_fe310-g000_pll.c:304
        __METAL_ACCESS_ONCE(plloutdiv) |= PLL_DIV_SHIFT(1);
20405022:	fd842783          	lw	a5,-40(s0)
20405026:	439c                	lw	a5,0(a5)
20405028:	0017e713          	ori	a4,a5,1
2040502c:	fd842783          	lw	a5,-40(s0)
20405030:	c398                	sw	a4,0(a5)
20405032:	a82d                	j	2040506c <configure_pll+0x10c>
/home/khj/Desktop/hello_standalone/freedom-metal/src/drivers/sifive_fe310-g000_pll.c:306
        __METAL_ACCESS_ONCE(plloutdiv) &= ~(DIV_1);
20405034:	fd842783          	lw	a5,-40(s0)
20405038:	439c                	lw	a5,0(a5)
2040503a:	eff7f713          	andi	a4,a5,-257
2040503e:	fd842783          	lw	a5,-40(s0)
20405042:	c398                	sw	a4,0(a5)
/home/khj/Desktop/hello_standalone/freedom-metal/src/drivers/sifive_fe310-g000_pll.c:308
        __METAL_ACCESS_ONCE(plloutdiv) &= ~(DIV_DIV);
20405044:	fd842783          	lw	a5,-40(s0)
20405048:	439c                	lw	a5,0(a5)
2040504a:	fc07f713          	andi	a4,a5,-64
2040504e:	fd842783          	lw	a5,-40(s0)
20405052:	c398                	sw	a4,0(a5)
/home/khj/Desktop/hello_standalone/freedom-metal/src/drivers/sifive_fe310-g000_pll.c:309
        __METAL_ACCESS_ONCE(plloutdiv) |= PLL_DIV_SHIFT(config->d);
20405054:	fd842783          	lw	a5,-40(s0)
20405058:	4398                	lw	a4,0(a5)
2040505a:	fd442783          	lw	a5,-44(s0)
2040505e:	4fdc                	lw	a5,28(a5)
20405060:	03f7f793          	andi	a5,a5,63
20405064:	8f5d                	or	a4,a4,a5
20405066:	fd842783          	lw	a5,-40(s0)
2040506a:	c398                	sw	a4,0(a5)
/home/khj/Desktop/hello_standalone/freedom-metal/src/drivers/sifive_fe310-g000_pll.c:312
    __METAL_ACCESS_ONCE(pllcfg) &= ~(PLL_BYPASS);
2040506c:	fdc42783          	lw	a5,-36(s0)
20405070:	4398                	lw	a4,0(a5)
20405072:	fffc07b7          	lui	a5,0xfffc0
20405076:	17fd                	addi	a5,a5,-1
20405078:	8f7d                	and	a4,a4,a5
2040507a:	fdc42783          	lw	a5,-36(s0)
2040507e:	c398                	sw	a4,0(a5)
/home/khj/Desktop/hello_standalone/freedom-metal/src/drivers/sifive_fe310-g000_pll.c:317
    __metal_driver_riscv_clint0_command_request(__METAL_DT_RISCV_CLINT0_HANDLE,
20405080:	fe040793          	addi	a5,s0,-32
20405084:	863e                	mv	a2,a5
20405086:	4585                	li	a1,1
20405088:	81018513          	addi	a0,gp,-2032 # 800007b0 <__metal_dt_clint_2000000>
2040508c:	d5afd0ef          	jal	ra,204025e6 <__metal_driver_riscv_clint0_command_request>
/home/khj/Desktop/hello_standalone/freedom-metal/src/drivers/sifive_fe310-g000_pll.c:319
    mtime_end = mtime + PLL_LOCK_WAIT_TICKS;
20405090:	fe042683          	lw	a3,-32(s0)
20405094:	fe442703          	lw	a4,-28(s0)
20405098:	4591                	li	a1,4
2040509a:	4601                	li	a2,0
2040509c:	00b687b3          	add	a5,a3,a1
204050a0:	853e                	mv	a0,a5
204050a2:	00d53533          	sltu	a0,a0,a3
204050a6:	00c70833          	add	a6,a4,a2
204050aa:	01050733          	add	a4,a0,a6
204050ae:	883a                	mv	a6,a4
204050b0:	fef42423          	sw	a5,-24(s0)
204050b4:	ff042623          	sw	a6,-20(s0)
/home/khj/Desktop/hello_standalone/freedom-metal/src/drivers/sifive_fe310-g000_pll.c:320
    while (mtime <= mtime_end) {
204050b8:	a809                	j	204050ca <configure_pll+0x16a>
/home/khj/Desktop/hello_standalone/freedom-metal/src/drivers/sifive_fe310-g000_pll.c:321
        __metal_driver_riscv_clint0_command_request(
204050ba:	fe040793          	addi	a5,s0,-32
204050be:	863e                	mv	a2,a5
204050c0:	4585                	li	a1,1
204050c2:	81018513          	addi	a0,gp,-2032 # 800007b0 <__metal_dt_clint_2000000>
204050c6:	d20fd0ef          	jal	ra,204025e6 <__metal_driver_riscv_clint0_command_request>
/home/khj/Desktop/hello_standalone/freedom-metal/src/drivers/sifive_fe310-g000_pll.c:320
    while (mtime <= mtime_end) {
204050ca:	fe042783          	lw	a5,-32(s0)
204050ce:	fe442803          	lw	a6,-28(s0)
204050d2:	fec42703          	lw	a4,-20(s0)
204050d6:	86c2                	mv	a3,a6
204050d8:	00d76b63          	bltu	a4,a3,204050ee <configure_pll+0x18e>
204050dc:	fec42703          	lw	a4,-20(s0)
204050e0:	86c2                	mv	a3,a6
204050e2:	fcd71ce3          	bne	a4,a3,204050ba <configure_pll+0x15a>
204050e6:	fe842703          	lw	a4,-24(s0)
204050ea:	fcf778e3          	bgeu	a4,a5,204050ba <configure_pll+0x15a>
/home/khj/Desktop/hello_standalone/freedom-metal/src/drivers/sifive_fe310-g000_pll.c:339
    while ((__METAL_ACCESS_ONCE(pllcfg) & PLL_LOCK) == 0)
204050ee:	0001                	nop
/home/khj/Desktop/hello_standalone/freedom-metal/src/drivers/sifive_fe310-g000_pll.c:339 (discriminator 1)
204050f0:	fdc42783          	lw	a5,-36(s0)
204050f4:	439c                	lw	a5,0(a5)
204050f6:	fe07dde3          	bgez	a5,204050f0 <configure_pll+0x190>
/home/khj/Desktop/hello_standalone/freedom-metal/src/drivers/sifive_fe310-g000_pll.c:341
}
204050fa:	0001                	nop
204050fc:	50b2                	lw	ra,44(sp)
204050fe:	5422                	lw	s0,40(sp)
20405100:	6145                	addi	sp,sp,48
20405102:	8082                	ret

20405104 <__metal_driver_sifive_fe310_g000_pll_set_rate_hz>:
__metal_driver_sifive_fe310_g000_pll_set_rate_hz():
/home/khj/Desktop/hello_standalone/freedom-metal/src/drivers/sifive_fe310-g000_pll.c:344
                                                      long rate) {
20405104:	715d                	addi	sp,sp,-80
20405106:	c686                	sw	ra,76(sp)
20405108:	c4a2                	sw	s0,72(sp)
2040510a:	0880                	addi	s0,sp,80
2040510c:	faa42e23          	sw	a0,-68(s0)
20405110:	fab42c23          	sw	a1,-72(s0)
/home/khj/Desktop/hello_standalone/freedom-metal/src/drivers/sifive_fe310-g000_pll.c:346
        __metal_driver_sifive_fe310_g000_pll_pllref(clock);
20405114:	fbc42503          	lw	a0,-68(s0)
20405118:	a9dff0ef          	jal	ra,20404bb4 <__metal_driver_sifive_fe310_g000_pll_pllref>
2040511c:	fea42623          	sw	a0,-20(s0)
/home/khj/Desktop/hello_standalone/freedom-metal/src/drivers/sifive_fe310-g000_pll.c:348
        __metal_driver_sifive_fe310_g000_pll_pllsel0(clock);
20405120:	fbc42503          	lw	a0,-68(s0)
20405124:	a77ff0ef          	jal	ra,20404b9a <__metal_driver_sifive_fe310_g000_pll_pllsel0>
20405128:	fea42423          	sw	a0,-24(s0)
/home/khj/Desktop/hello_standalone/freedom-metal/src/drivers/sifive_fe310-g000_pll.c:350
        __metal_driver_sifive_fe310_g000_pll_config_offset(clock);
2040512c:	fbc42503          	lw	a0,-68(s0)
20405130:	adbff0ef          	jal	ra,20404c0a <__metal_driver_sifive_fe310_g000_pll_config_offset>
20405134:	fea42223          	sw	a0,-28(s0)
/home/khj/Desktop/hello_standalone/freedom-metal/src/drivers/sifive_fe310-g000_pll.c:352
        __metal_driver_sifive_fe310_g000_pll_divider_offset(clock);
20405138:	fbc42503          	lw	a0,-68(s0)
2040513c:	aa9ff0ef          	jal	ra,20404be4 <__metal_driver_sifive_fe310_g000_pll_divider_offset>
20405140:	fea42023          	sw	a0,-32(s0)
/home/khj/Desktop/hello_standalone/freedom-metal/src/drivers/sifive_fe310-g000_pll.c:353
    long base = __metal_driver_sifive_fe310_g000_prci_base();
20405144:	aedff0ef          	jal	ra,20404c30 <__metal_driver_sifive_fe310_g000_prci_base>
20405148:	fca42e23          	sw	a0,-36(s0)
/home/khj/Desktop/hello_standalone/freedom-metal/src/drivers/sifive_fe310-g000_pll.c:355
    __metal_io_u32 *pllcfg = (__metal_io_u32 *)(base + config_offset);
2040514c:	fdc42703          	lw	a4,-36(s0)
20405150:	fe442783          	lw	a5,-28(s0)
20405154:	97ba                	add	a5,a5,a4
20405156:	fcf42c23          	sw	a5,-40(s0)
/home/khj/Desktop/hello_standalone/freedom-metal/src/drivers/sifive_fe310-g000_pll.c:356
    __metal_io_u32 *plloutdiv = (__metal_io_u32 *)(base + divider_offset);
2040515a:	fdc42703          	lw	a4,-36(s0)
2040515e:	fe042783          	lw	a5,-32(s0)
20405162:	97ba                	add	a5,a5,a4
20405164:	fcf42a23          	sw	a5,-44(s0)
/home/khj/Desktop/hello_standalone/freedom-metal/src/drivers/sifive_fe310-g000_pll.c:359
    if (__METAL_ACCESS_ONCE(pllcfg) & PLL_SEL)
20405168:	fd842783          	lw	a5,-40(s0)
2040516c:	4398                	lw	a4,0(a5)
2040516e:	67c1                	lui	a5,0x10
20405170:	8ff9                	and	a5,a5,a4
20405172:	cb91                	beqz	a5,20405186 <__metal_driver_sifive_fe310_g000_pll_set_rate_hz+0x82>
/home/khj/Desktop/hello_standalone/freedom-metal/src/drivers/sifive_fe310-g000_pll.c:360
        __METAL_ACCESS_ONCE(pllcfg) &= ~(PLL_SEL);
20405174:	fd842783          	lw	a5,-40(s0)
20405178:	4398                	lw	a4,0(a5)
2040517a:	77c1                	lui	a5,0xffff0
2040517c:	17fd                	addi	a5,a5,-1
2040517e:	8f7d                	and	a4,a4,a5
20405180:	fd842783          	lw	a5,-40(s0)
20405184:	c398                	sw	a4,0(a5)
/home/khj/Desktop/hello_standalone/freedom-metal/src/drivers/sifive_fe310-g000_pll.c:365
        __METAL_ACCESS_ONCE(pllcfg) & PLL_REFSEL ? pllref : pllsel0);
20405186:	fd842783          	lw	a5,-40(s0)
2040518a:	4398                	lw	a4,0(a5)
2040518c:	000207b7          	lui	a5,0x20
20405190:	8ff9                	and	a5,a5,a4
/home/khj/Desktop/hello_standalone/freedom-metal/src/drivers/sifive_fe310-g000_pll.c:364
    long ref_hz = metal_clock_get_rate_hz(
20405192:	c781                	beqz	a5,2040519a <__metal_driver_sifive_fe310_g000_pll_set_rate_hz+0x96>
/home/khj/Desktop/hello_standalone/freedom-metal/src/drivers/sifive_fe310-g000_pll.c:364 (discriminator 1)
20405194:	fec42783          	lw	a5,-20(s0)
20405198:	a019                	j	2040519e <__metal_driver_sifive_fe310_g000_pll_set_rate_hz+0x9a>
/home/khj/Desktop/hello_standalone/freedom-metal/src/drivers/sifive_fe310-g000_pll.c:364 (discriminator 2)
2040519a:	fe842783          	lw	a5,-24(s0)
/home/khj/Desktop/hello_standalone/freedom-metal/src/drivers/sifive_fe310-g000_pll.c:364 (discriminator 4)
2040519e:	853e                	mv	a0,a5
204051a0:	192010ef          	jal	ra,20406332 <metal_clock_get_rate_hz>
204051a4:	fca42823          	sw	a0,-48(s0)
/home/khj/Desktop/hello_standalone/freedom-metal/src/drivers/sifive_fe310-g000_pll.c:369 (discriminator 4)
    if ((ref_hz * 3 / 4) <= rate && (ref_hz * 5 / 4) >= rate) {
204051a8:	fd042703          	lw	a4,-48(s0)
204051ac:	87ba                	mv	a5,a4
204051ae:	0786                	slli	a5,a5,0x1
204051b0:	97ba                	add	a5,a5,a4
204051b2:	41f7d713          	srai	a4,a5,0x1f
204051b6:	8b0d                	andi	a4,a4,3
204051b8:	97ba                	add	a5,a5,a4
204051ba:	8789                	srai	a5,a5,0x2
204051bc:	873e                	mv	a4,a5
204051be:	fb842783          	lw	a5,-72(s0)
204051c2:	02e7cb63          	blt	a5,a4,204051f8 <__metal_driver_sifive_fe310_g000_pll_set_rate_hz+0xf4>
/home/khj/Desktop/hello_standalone/freedom-metal/src/drivers/sifive_fe310-g000_pll.c:369 (discriminator 1)
204051c6:	fd042703          	lw	a4,-48(s0)
204051ca:	87ba                	mv	a5,a4
204051cc:	078a                	slli	a5,a5,0x2
204051ce:	97ba                	add	a5,a5,a4
204051d0:	41f7d713          	srai	a4,a5,0x1f
204051d4:	8b0d                	andi	a4,a4,3
204051d6:	97ba                	add	a5,a5,a4
204051d8:	8789                	srai	a5,a5,0x2
204051da:	873e                	mv	a4,a5
204051dc:	fb842783          	lw	a5,-72(s0)
204051e0:	00f74c63          	blt	a4,a5,204051f8 <__metal_driver_sifive_fe310_g000_pll_set_rate_hz+0xf4>
/home/khj/Desktop/hello_standalone/freedom-metal/src/drivers/sifive_fe310-g000_pll.c:370
        __METAL_ACCESS_ONCE(pllcfg) |= PLL_BYPASS;
204051e4:	fd842783          	lw	a5,-40(s0)
204051e8:	4398                	lw	a4,0(a5)
204051ea:	000407b7          	lui	a5,0x40
204051ee:	8f5d                	or	a4,a4,a5
204051f0:	fd842783          	lw	a5,-40(s0)
204051f4:	c398                	sw	a4,0(a5)
204051f6:	a881                	j	20405246 <__metal_driver_sifive_fe310_g000_pll_set_rate_hz+0x142>
/home/khj/Desktop/hello_standalone/freedom-metal/src/drivers/sifive_fe310-g000_pll.c:372
        int config_index = find_closest_config(ref_hz, rate);
204051f8:	fb842583          	lw	a1,-72(s0)
204051fc:	fd042503          	lw	a0,-48(s0)
20405200:	cb7ff0ef          	jal	ra,20404eb6 <find_closest_config>
20405204:	fca42623          	sw	a0,-52(s0)
/home/khj/Desktop/hello_standalone/freedom-metal/src/drivers/sifive_fe310-g000_pll.c:373
        if (config_index != -1) {
20405208:	fcc42703          	lw	a4,-52(s0)
2040520c:	57fd                	li	a5,-1
2040520e:	02f70363          	beq	a4,a5,20405234 <__metal_driver_sifive_fe310_g000_pll_set_rate_hz+0x130>
/home/khj/Desktop/hello_standalone/freedom-metal/src/drivers/sifive_fe310-g000_pll.c:374
            configure_pll(pllcfg, plloutdiv, &(pll_configs[config_index]));
20405212:	fcc42783          	lw	a5,-52(s0)
20405216:	00579713          	slli	a4,a5,0x5
2040521a:	204007b7          	lui	a5,0x20400
2040521e:	5fc78793          	addi	a5,a5,1532 # 204005fc <pll_configs>
20405222:	97ba                	add	a5,a5,a4
20405224:	863e                	mv	a2,a5
20405226:	fd442583          	lw	a1,-44(s0)
2040522a:	fd842503          	lw	a0,-40(s0)
2040522e:	d33ff0ef          	jal	ra,20404f60 <configure_pll>
20405232:	a811                	j	20405246 <__metal_driver_sifive_fe310_g000_pll_set_rate_hz+0x142>
/home/khj/Desktop/hello_standalone/freedom-metal/src/drivers/sifive_fe310-g000_pll.c:377
            __METAL_ACCESS_ONCE(pllcfg) |= PLL_BYPASS;
20405234:	fd842783          	lw	a5,-40(s0)
20405238:	4398                	lw	a4,0(a5)
2040523a:	000407b7          	lui	a5,0x40
2040523e:	8f5d                	or	a4,a4,a5
20405240:	fd842783          	lw	a5,-40(s0)
20405244:	c398                	sw	a4,0(a5)
/home/khj/Desktop/hello_standalone/freedom-metal/src/drivers/sifive_fe310-g000_pll.c:382
    __METAL_ACCESS_ONCE(pllcfg) |= PLL_SEL;
20405246:	fd842783          	lw	a5,-40(s0)
2040524a:	4398                	lw	a4,0(a5)
2040524c:	67c1                	lui	a5,0x10
2040524e:	8f5d                	or	a4,a4,a5
20405250:	fd842783          	lw	a5,-40(s0)
20405254:	c398                	sw	a4,0(a5)
/home/khj/Desktop/hello_standalone/freedom-metal/src/drivers/sifive_fe310-g000_pll.c:384
    return __metal_driver_sifive_fe310_g000_pll_get_rate_hz(clock);
20405256:	fbc42503          	lw	a0,-68(s0)
2040525a:	aedff0ef          	jal	ra,20404d46 <__metal_driver_sifive_fe310_g000_pll_get_rate_hz>
2040525e:	87aa                	mv	a5,a0
/home/khj/Desktop/hello_standalone/freedom-metal/src/drivers/sifive_fe310-g000_pll.c:385
}
20405260:	853e                	mv	a0,a5
20405262:	40b6                	lw	ra,76(sp)
20405264:	4426                	lw	s0,72(sp)
20405266:	6161                	addi	sp,sp,80
20405268:	8082                	ret

2040526a <__metal_driver_sifive_fe310_g000_prci_base>:
__metal_driver_sifive_fe310_g000_prci_base():
/home/khj/Desktop/hello_standalone/bsp/build/debug/./metal/machine.h:1157
{
2040526a:	1141                	addi	sp,sp,-16
2040526c:	c622                	sw	s0,12(sp)
2040526e:	0800                	addi	s0,sp,16
/home/khj/Desktop/hello_standalone/bsp/build/debug/./metal/machine.h:1158
		return METAL_SIFIVE_FE310_G000_PRCI_10008000_BASE_ADDRESS;
20405270:	100087b7          	lui	a5,0x10008
/home/khj/Desktop/hello_standalone/bsp/build/debug/./metal/machine.h:1159
}
20405274:	853e                	mv	a0,a5
20405276:	4432                	lw	s0,12(sp)
20405278:	0141                	addi	sp,sp,16
2040527a:	8082                	ret

2040527c <__metal_driver_sifive_fe310_g000_prci_get_reg>:
__metal_driver_sifive_fe310_g000_prci_get_reg():
/home/khj/Desktop/hello_standalone/freedom-metal/src/drivers/sifive_fe310-g000_prci.c:12

#include <metal/drivers/sifive_fe310-g000_prci.h>
#include <metal/machine.h>

long __metal_driver_sifive_fe310_g000_prci_get_reg(
    const struct __metal_driver_sifive_fe310_g000_prci *prci, long offset) {
2040527c:	7179                	addi	sp,sp,-48
2040527e:	d606                	sw	ra,44(sp)
20405280:	d422                	sw	s0,40(sp)
20405282:	1800                	addi	s0,sp,48
20405284:	fca42e23          	sw	a0,-36(s0)
20405288:	fcb42c23          	sw	a1,-40(s0)
/home/khj/Desktop/hello_standalone/freedom-metal/src/drivers/sifive_fe310-g000_prci.c:13
    unsigned long base = __metal_driver_sifive_fe310_g000_prci_base();
2040528c:	3ff9                	jal	2040526a <__metal_driver_sifive_fe310_g000_prci_base>
2040528e:	87aa                	mv	a5,a0
20405290:	fef42623          	sw	a5,-20(s0)
/home/khj/Desktop/hello_standalone/freedom-metal/src/drivers/sifive_fe310-g000_prci.c:14
    return __METAL_ACCESS_ONCE((__metal_io_u32 *)(base + offset));
20405294:	fd842703          	lw	a4,-40(s0)
20405298:	fec42783          	lw	a5,-20(s0)
2040529c:	97ba                	add	a5,a5,a4
2040529e:	439c                	lw	a5,0(a5)
/home/khj/Desktop/hello_standalone/freedom-metal/src/drivers/sifive_fe310-g000_prci.c:15
}
204052a0:	853e                	mv	a0,a5
204052a2:	50b2                	lw	ra,44(sp)
204052a4:	5422                	lw	s0,40(sp)
204052a6:	6145                	addi	sp,sp,48
204052a8:	8082                	ret

204052aa <__metal_driver_sifive_fe310_g000_prci_set_reg>:
__metal_driver_sifive_fe310_g000_prci_set_reg():
/home/khj/Desktop/hello_standalone/freedom-metal/src/drivers/sifive_fe310-g000_prci.c:19

long __metal_driver_sifive_fe310_g000_prci_set_reg(
    const struct __metal_driver_sifive_fe310_g000_prci *prci, long offset,
    long value) {
204052aa:	7179                	addi	sp,sp,-48
204052ac:	d606                	sw	ra,44(sp)
204052ae:	d422                	sw	s0,40(sp)
204052b0:	1800                	addi	s0,sp,48
204052b2:	fca42e23          	sw	a0,-36(s0)
204052b6:	fcb42c23          	sw	a1,-40(s0)
204052ba:	fcc42a23          	sw	a2,-44(s0)
/home/khj/Desktop/hello_standalone/freedom-metal/src/drivers/sifive_fe310-g000_prci.c:20
    unsigned long base = __metal_driver_sifive_fe310_g000_prci_base();
204052be:	3775                	jal	2040526a <__metal_driver_sifive_fe310_g000_prci_base>
204052c0:	87aa                	mv	a5,a0
204052c2:	fef42623          	sw	a5,-20(s0)
/home/khj/Desktop/hello_standalone/freedom-metal/src/drivers/sifive_fe310-g000_prci.c:21
    return __METAL_ACCESS_ONCE((__metal_io_u32 *)(base + offset)) = value;
204052c6:	fd842703          	lw	a4,-40(s0)
204052ca:	fec42783          	lw	a5,-20(s0)
204052ce:	97ba                	add	a5,a5,a4
204052d0:	873e                	mv	a4,a5
204052d2:	fd442783          	lw	a5,-44(s0)
204052d6:	c31c                	sw	a5,0(a4)
/home/khj/Desktop/hello_standalone/freedom-metal/src/drivers/sifive_fe310-g000_prci.c:22
}
204052d8:	853e                	mv	a0,a5
204052da:	50b2                	lw	ra,44(sp)
204052dc:	5422                	lw	s0,40(sp)
204052de:	6145                	addi	sp,sp,48
204052e0:	8082                	ret

204052e2 <__metal_driver_sifive_gpio0_base>:
__metal_driver_sifive_gpio0_base():
/home/khj/Desktop/hello_standalone/bsp/build/debug/./metal/machine.h:475
{
204052e2:	1101                	addi	sp,sp,-32
204052e4:	ce22                	sw	s0,28(sp)
204052e6:	1000                	addi	s0,sp,32
204052e8:	fea42623          	sw	a0,-20(s0)
/home/khj/Desktop/hello_standalone/bsp/build/debug/./metal/machine.h:476
	if ((uintptr_t)gpio == (uintptr_t)&__metal_dt_gpio_10012000) {
204052ec:	fec42703          	lw	a4,-20(s0)
204052f0:	82018793          	addi	a5,gp,-2016 # 800007c0 <__metal_dt_gpio_10012000>
204052f4:	00f71563          	bne	a4,a5,204052fe <__metal_driver_sifive_gpio0_base+0x1c>
/home/khj/Desktop/hello_standalone/bsp/build/debug/./metal/machine.h:477
		return METAL_SIFIVE_GPIO0_10012000_BASE_ADDRESS;
204052f8:	100127b7          	lui	a5,0x10012
204052fc:	a011                	j	20405300 <__metal_driver_sifive_gpio0_base+0x1e>
/home/khj/Desktop/hello_standalone/bsp/build/debug/./metal/machine.h:480
		return 0;
204052fe:	4781                	li	a5,0
/home/khj/Desktop/hello_standalone/bsp/build/debug/./metal/machine.h:482
}
20405300:	853e                	mv	a0,a5
20405302:	4472                	lw	s0,28(sp)
20405304:	6105                	addi	sp,sp,32
20405306:	8082                	ret

20405308 <__metal_driver_sifive_gpio0_interrupt_parent>:
__metal_driver_sifive_gpio0_interrupt_parent():
/home/khj/Desktop/hello_standalone/bsp/build/debug/./metal/machine.h:505
{
20405308:	1101                	addi	sp,sp,-32
2040530a:	ce22                	sw	s0,28(sp)
2040530c:	1000                	addi	s0,sp,32
2040530e:	fea42623          	sw	a0,-20(s0)
/home/khj/Desktop/hello_standalone/bsp/build/debug/./metal/machine.h:506
	if ((uintptr_t)gpio == (uintptr_t)&__metal_dt_gpio_10012000) {
20405312:	fec42703          	lw	a4,-20(s0)
20405316:	82018793          	addi	a5,gp,-2016 # 800007c0 <__metal_dt_gpio_10012000>
2040531a:	00f71763          	bne	a4,a5,20405328 <__metal_driver_sifive_gpio0_interrupt_parent+0x20>
/home/khj/Desktop/hello_standalone/bsp/build/debug/./metal/machine.h:507
		return (struct metal_interrupt *)&__metal_dt_interrupt_controller_c000000.controller;
2040531e:	800007b7          	lui	a5,0x80000
20405322:	45878793          	addi	a5,a5,1112 # 80000458 <metal_dtim_0_memory_end+0xffff0458>
20405326:	a011                	j	2040532a <__metal_driver_sifive_gpio0_interrupt_parent+0x22>
/home/khj/Desktop/hello_standalone/bsp/build/debug/./metal/machine.h:510
		return 0;
20405328:	4781                	li	a5,0
/home/khj/Desktop/hello_standalone/bsp/build/debug/./metal/machine.h:512
}
2040532a:	853e                	mv	a0,a5
2040532c:	4472                	lw	s0,28(sp)
2040532e:	6105                	addi	sp,sp,32
20405330:	8082                	ret

20405332 <__metal_driver_sifive_gpio0_interrupt_lines>:
__metal_driver_sifive_gpio0_interrupt_lines():
/home/khj/Desktop/hello_standalone/bsp/build/debug/./metal/machine.h:515
{
20405332:	1101                	addi	sp,sp,-32
20405334:	ce22                	sw	s0,28(sp)
20405336:	1000                	addi	s0,sp,32
20405338:	fea42623          	sw	a0,-20(s0)
2040533c:	feb42423          	sw	a1,-24(s0)
/home/khj/Desktop/hello_standalone/bsp/build/debug/./metal/machine.h:516
	if (((uintptr_t)gpio == (uintptr_t)&__metal_dt_gpio_10012000) && (idx == 0)) {
20405340:	fec42703          	lw	a4,-20(s0)
20405344:	82018793          	addi	a5,gp,-2016 # 800007c0 <__metal_dt_gpio_10012000>
20405348:	00f71763          	bne	a4,a5,20405356 <__metal_driver_sifive_gpio0_interrupt_lines+0x24>
/home/khj/Desktop/hello_standalone/bsp/build/debug/./metal/machine.h:516 (discriminator 1)
2040534c:	fe842783          	lw	a5,-24(s0)
20405350:	e399                	bnez	a5,20405356 <__metal_driver_sifive_gpio0_interrupt_lines+0x24>
/home/khj/Desktop/hello_standalone/bsp/build/debug/./metal/machine.h:517
		return 7;
20405352:	479d                	li	a5,7
20405354:	a269                	j	204054de <__metal_driver_sifive_gpio0_interrupt_lines+0x1ac>
/home/khj/Desktop/hello_standalone/bsp/build/debug/./metal/machine.h:519
	else if ((((uintptr_t)gpio == (uintptr_t)&__metal_dt_gpio_10012000) && (idx == 1))) {
20405356:	fec42703          	lw	a4,-20(s0)
2040535a:	82018793          	addi	a5,gp,-2016 # 800007c0 <__metal_dt_gpio_10012000>
2040535e:	00f71963          	bne	a4,a5,20405370 <__metal_driver_sifive_gpio0_interrupt_lines+0x3e>
/home/khj/Desktop/hello_standalone/bsp/build/debug/./metal/machine.h:519 (discriminator 1)
20405362:	fe842703          	lw	a4,-24(s0)
20405366:	4785                	li	a5,1
20405368:	00f71463          	bne	a4,a5,20405370 <__metal_driver_sifive_gpio0_interrupt_lines+0x3e>
/home/khj/Desktop/hello_standalone/bsp/build/debug/./metal/machine.h:520
		return 8;
2040536c:	47a1                	li	a5,8
2040536e:	aa85                	j	204054de <__metal_driver_sifive_gpio0_interrupt_lines+0x1ac>
/home/khj/Desktop/hello_standalone/bsp/build/debug/./metal/machine.h:522
	else if ((((uintptr_t)gpio == (uintptr_t)&__metal_dt_gpio_10012000) && (idx == 2))) {
20405370:	fec42703          	lw	a4,-20(s0)
20405374:	82018793          	addi	a5,gp,-2016 # 800007c0 <__metal_dt_gpio_10012000>
20405378:	00f71963          	bne	a4,a5,2040538a <__metal_driver_sifive_gpio0_interrupt_lines+0x58>
/home/khj/Desktop/hello_standalone/bsp/build/debug/./metal/machine.h:522 (discriminator 1)
2040537c:	fe842703          	lw	a4,-24(s0)
20405380:	4789                	li	a5,2
20405382:	00f71463          	bne	a4,a5,2040538a <__metal_driver_sifive_gpio0_interrupt_lines+0x58>
/home/khj/Desktop/hello_standalone/bsp/build/debug/./metal/machine.h:523
		return 9;
20405386:	47a5                	li	a5,9
20405388:	aa99                	j	204054de <__metal_driver_sifive_gpio0_interrupt_lines+0x1ac>
/home/khj/Desktop/hello_standalone/bsp/build/debug/./metal/machine.h:525
	else if ((((uintptr_t)gpio == (uintptr_t)&__metal_dt_gpio_10012000) && (idx == 3))) {
2040538a:	fec42703          	lw	a4,-20(s0)
2040538e:	82018793          	addi	a5,gp,-2016 # 800007c0 <__metal_dt_gpio_10012000>
20405392:	00f71963          	bne	a4,a5,204053a4 <__metal_driver_sifive_gpio0_interrupt_lines+0x72>
/home/khj/Desktop/hello_standalone/bsp/build/debug/./metal/machine.h:525 (discriminator 1)
20405396:	fe842703          	lw	a4,-24(s0)
2040539a:	478d                	li	a5,3
2040539c:	00f71463          	bne	a4,a5,204053a4 <__metal_driver_sifive_gpio0_interrupt_lines+0x72>
/home/khj/Desktop/hello_standalone/bsp/build/debug/./metal/machine.h:526
		return 10;
204053a0:	47a9                	li	a5,10
204053a2:	aa35                	j	204054de <__metal_driver_sifive_gpio0_interrupt_lines+0x1ac>
/home/khj/Desktop/hello_standalone/bsp/build/debug/./metal/machine.h:528
	else if ((((uintptr_t)gpio == (uintptr_t)&__metal_dt_gpio_10012000) && (idx == 4))) {
204053a4:	fec42703          	lw	a4,-20(s0)
204053a8:	82018793          	addi	a5,gp,-2016 # 800007c0 <__metal_dt_gpio_10012000>
204053ac:	00f71963          	bne	a4,a5,204053be <__metal_driver_sifive_gpio0_interrupt_lines+0x8c>
/home/khj/Desktop/hello_standalone/bsp/build/debug/./metal/machine.h:528 (discriminator 1)
204053b0:	fe842703          	lw	a4,-24(s0)
204053b4:	4791                	li	a5,4
204053b6:	00f71463          	bne	a4,a5,204053be <__metal_driver_sifive_gpio0_interrupt_lines+0x8c>
/home/khj/Desktop/hello_standalone/bsp/build/debug/./metal/machine.h:529
		return 11;
204053ba:	47ad                	li	a5,11
204053bc:	a20d                	j	204054de <__metal_driver_sifive_gpio0_interrupt_lines+0x1ac>
/home/khj/Desktop/hello_standalone/bsp/build/debug/./metal/machine.h:531
	else if ((((uintptr_t)gpio == (uintptr_t)&__metal_dt_gpio_10012000) && (idx == 5))) {
204053be:	fec42703          	lw	a4,-20(s0)
204053c2:	82018793          	addi	a5,gp,-2016 # 800007c0 <__metal_dt_gpio_10012000>
204053c6:	00f71963          	bne	a4,a5,204053d8 <__metal_driver_sifive_gpio0_interrupt_lines+0xa6>
/home/khj/Desktop/hello_standalone/bsp/build/debug/./metal/machine.h:531 (discriminator 1)
204053ca:	fe842703          	lw	a4,-24(s0)
204053ce:	4795                	li	a5,5
204053d0:	00f71463          	bne	a4,a5,204053d8 <__metal_driver_sifive_gpio0_interrupt_lines+0xa6>
/home/khj/Desktop/hello_standalone/bsp/build/debug/./metal/machine.h:532
		return 12;
204053d4:	47b1                	li	a5,12
204053d6:	a221                	j	204054de <__metal_driver_sifive_gpio0_interrupt_lines+0x1ac>
/home/khj/Desktop/hello_standalone/bsp/build/debug/./metal/machine.h:534
	else if ((((uintptr_t)gpio == (uintptr_t)&__metal_dt_gpio_10012000) && (idx == 6))) {
204053d8:	fec42703          	lw	a4,-20(s0)
204053dc:	82018793          	addi	a5,gp,-2016 # 800007c0 <__metal_dt_gpio_10012000>
204053e0:	00f71963          	bne	a4,a5,204053f2 <__metal_driver_sifive_gpio0_interrupt_lines+0xc0>
/home/khj/Desktop/hello_standalone/bsp/build/debug/./metal/machine.h:534 (discriminator 1)
204053e4:	fe842703          	lw	a4,-24(s0)
204053e8:	4799                	li	a5,6
204053ea:	00f71463          	bne	a4,a5,204053f2 <__metal_driver_sifive_gpio0_interrupt_lines+0xc0>
/home/khj/Desktop/hello_standalone/bsp/build/debug/./metal/machine.h:535
		return 13;
204053ee:	47b5                	li	a5,13
204053f0:	a0fd                	j	204054de <__metal_driver_sifive_gpio0_interrupt_lines+0x1ac>
/home/khj/Desktop/hello_standalone/bsp/build/debug/./metal/machine.h:537
	else if ((((uintptr_t)gpio == (uintptr_t)&__metal_dt_gpio_10012000) && (idx == 7))) {
204053f2:	fec42703          	lw	a4,-20(s0)
204053f6:	82018793          	addi	a5,gp,-2016 # 800007c0 <__metal_dt_gpio_10012000>
204053fa:	00f71963          	bne	a4,a5,2040540c <__metal_driver_sifive_gpio0_interrupt_lines+0xda>
/home/khj/Desktop/hello_standalone/bsp/build/debug/./metal/machine.h:537 (discriminator 1)
204053fe:	fe842703          	lw	a4,-24(s0)
20405402:	479d                	li	a5,7
20405404:	00f71463          	bne	a4,a5,2040540c <__metal_driver_sifive_gpio0_interrupt_lines+0xda>
/home/khj/Desktop/hello_standalone/bsp/build/debug/./metal/machine.h:538
		return 14;
20405408:	47b9                	li	a5,14
2040540a:	a8d1                	j	204054de <__metal_driver_sifive_gpio0_interrupt_lines+0x1ac>
/home/khj/Desktop/hello_standalone/bsp/build/debug/./metal/machine.h:540
	else if ((((uintptr_t)gpio == (uintptr_t)&__metal_dt_gpio_10012000) && (idx == 8))) {
2040540c:	fec42703          	lw	a4,-20(s0)
20405410:	82018793          	addi	a5,gp,-2016 # 800007c0 <__metal_dt_gpio_10012000>
20405414:	00f71963          	bne	a4,a5,20405426 <__metal_driver_sifive_gpio0_interrupt_lines+0xf4>
/home/khj/Desktop/hello_standalone/bsp/build/debug/./metal/machine.h:540 (discriminator 1)
20405418:	fe842703          	lw	a4,-24(s0)
2040541c:	47a1                	li	a5,8
2040541e:	00f71463          	bne	a4,a5,20405426 <__metal_driver_sifive_gpio0_interrupt_lines+0xf4>
/home/khj/Desktop/hello_standalone/bsp/build/debug/./metal/machine.h:541
		return 15;
20405422:	47bd                	li	a5,15
20405424:	a86d                	j	204054de <__metal_driver_sifive_gpio0_interrupt_lines+0x1ac>
/home/khj/Desktop/hello_standalone/bsp/build/debug/./metal/machine.h:543
	else if ((((uintptr_t)gpio == (uintptr_t)&__metal_dt_gpio_10012000) && (idx == 9))) {
20405426:	fec42703          	lw	a4,-20(s0)
2040542a:	82018793          	addi	a5,gp,-2016 # 800007c0 <__metal_dt_gpio_10012000>
2040542e:	00f71963          	bne	a4,a5,20405440 <__metal_driver_sifive_gpio0_interrupt_lines+0x10e>
/home/khj/Desktop/hello_standalone/bsp/build/debug/./metal/machine.h:543 (discriminator 1)
20405432:	fe842703          	lw	a4,-24(s0)
20405436:	47a5                	li	a5,9
20405438:	00f71463          	bne	a4,a5,20405440 <__metal_driver_sifive_gpio0_interrupt_lines+0x10e>
/home/khj/Desktop/hello_standalone/bsp/build/debug/./metal/machine.h:544
		return 16;
2040543c:	47c1                	li	a5,16
2040543e:	a045                	j	204054de <__metal_driver_sifive_gpio0_interrupt_lines+0x1ac>
/home/khj/Desktop/hello_standalone/bsp/build/debug/./metal/machine.h:546
	else if ((((uintptr_t)gpio == (uintptr_t)&__metal_dt_gpio_10012000) && (idx == 10))) {
20405440:	fec42703          	lw	a4,-20(s0)
20405444:	82018793          	addi	a5,gp,-2016 # 800007c0 <__metal_dt_gpio_10012000>
20405448:	00f71963          	bne	a4,a5,2040545a <__metal_driver_sifive_gpio0_interrupt_lines+0x128>
/home/khj/Desktop/hello_standalone/bsp/build/debug/./metal/machine.h:546 (discriminator 1)
2040544c:	fe842703          	lw	a4,-24(s0)
20405450:	47a9                	li	a5,10
20405452:	00f71463          	bne	a4,a5,2040545a <__metal_driver_sifive_gpio0_interrupt_lines+0x128>
/home/khj/Desktop/hello_standalone/bsp/build/debug/./metal/machine.h:547
		return 17;
20405456:	47c5                	li	a5,17
20405458:	a059                	j	204054de <__metal_driver_sifive_gpio0_interrupt_lines+0x1ac>
/home/khj/Desktop/hello_standalone/bsp/build/debug/./metal/machine.h:549
	else if ((((uintptr_t)gpio == (uintptr_t)&__metal_dt_gpio_10012000) && (idx == 11))) {
2040545a:	fec42703          	lw	a4,-20(s0)
2040545e:	82018793          	addi	a5,gp,-2016 # 800007c0 <__metal_dt_gpio_10012000>
20405462:	00f71963          	bne	a4,a5,20405474 <__metal_driver_sifive_gpio0_interrupt_lines+0x142>
/home/khj/Desktop/hello_standalone/bsp/build/debug/./metal/machine.h:549 (discriminator 1)
20405466:	fe842703          	lw	a4,-24(s0)
2040546a:	47ad                	li	a5,11
2040546c:	00f71463          	bne	a4,a5,20405474 <__metal_driver_sifive_gpio0_interrupt_lines+0x142>
/home/khj/Desktop/hello_standalone/bsp/build/debug/./metal/machine.h:550
		return 18;
20405470:	47c9                	li	a5,18
20405472:	a0b5                	j	204054de <__metal_driver_sifive_gpio0_interrupt_lines+0x1ac>
/home/khj/Desktop/hello_standalone/bsp/build/debug/./metal/machine.h:552
	else if ((((uintptr_t)gpio == (uintptr_t)&__metal_dt_gpio_10012000) && (idx == 12))) {
20405474:	fec42703          	lw	a4,-20(s0)
20405478:	82018793          	addi	a5,gp,-2016 # 800007c0 <__metal_dt_gpio_10012000>
2040547c:	00f71963          	bne	a4,a5,2040548e <__metal_driver_sifive_gpio0_interrupt_lines+0x15c>
/home/khj/Desktop/hello_standalone/bsp/build/debug/./metal/machine.h:552 (discriminator 1)
20405480:	fe842703          	lw	a4,-24(s0)
20405484:	47b1                	li	a5,12
20405486:	00f71463          	bne	a4,a5,2040548e <__metal_driver_sifive_gpio0_interrupt_lines+0x15c>
/home/khj/Desktop/hello_standalone/bsp/build/debug/./metal/machine.h:553
		return 19;
2040548a:	47cd                	li	a5,19
2040548c:	a889                	j	204054de <__metal_driver_sifive_gpio0_interrupt_lines+0x1ac>
/home/khj/Desktop/hello_standalone/bsp/build/debug/./metal/machine.h:555
	else if ((((uintptr_t)gpio == (uintptr_t)&__metal_dt_gpio_10012000) && (idx == 13))) {
2040548e:	fec42703          	lw	a4,-20(s0)
20405492:	82018793          	addi	a5,gp,-2016 # 800007c0 <__metal_dt_gpio_10012000>
20405496:	00f71963          	bne	a4,a5,204054a8 <__metal_driver_sifive_gpio0_interrupt_lines+0x176>
/home/khj/Desktop/hello_standalone/bsp/build/debug/./metal/machine.h:555 (discriminator 1)
2040549a:	fe842703          	lw	a4,-24(s0)
2040549e:	47b5                	li	a5,13
204054a0:	00f71463          	bne	a4,a5,204054a8 <__metal_driver_sifive_gpio0_interrupt_lines+0x176>
/home/khj/Desktop/hello_standalone/bsp/build/debug/./metal/machine.h:556
		return 20;
204054a4:	47d1                	li	a5,20
204054a6:	a825                	j	204054de <__metal_driver_sifive_gpio0_interrupt_lines+0x1ac>
/home/khj/Desktop/hello_standalone/bsp/build/debug/./metal/machine.h:558
	else if ((((uintptr_t)gpio == (uintptr_t)&__metal_dt_gpio_10012000) && (idx == 14))) {
204054a8:	fec42703          	lw	a4,-20(s0)
204054ac:	82018793          	addi	a5,gp,-2016 # 800007c0 <__metal_dt_gpio_10012000>
204054b0:	00f71963          	bne	a4,a5,204054c2 <__metal_driver_sifive_gpio0_interrupt_lines+0x190>
/home/khj/Desktop/hello_standalone/bsp/build/debug/./metal/machine.h:558 (discriminator 1)
204054b4:	fe842703          	lw	a4,-24(s0)
204054b8:	47b9                	li	a5,14
204054ba:	00f71463          	bne	a4,a5,204054c2 <__metal_driver_sifive_gpio0_interrupt_lines+0x190>
/home/khj/Desktop/hello_standalone/bsp/build/debug/./metal/machine.h:559
		return 21;
204054be:	47d5                	li	a5,21
204054c0:	a839                	j	204054de <__metal_driver_sifive_gpio0_interrupt_lines+0x1ac>
/home/khj/Desktop/hello_standalone/bsp/build/debug/./metal/machine.h:561
	else if ((((uintptr_t)gpio == (uintptr_t)&__metal_dt_gpio_10012000) && (idx == 15))) {
204054c2:	fec42703          	lw	a4,-20(s0)
204054c6:	82018793          	addi	a5,gp,-2016 # 800007c0 <__metal_dt_gpio_10012000>
204054ca:	00f71963          	bne	a4,a5,204054dc <__metal_driver_sifive_gpio0_interrupt_lines+0x1aa>
/home/khj/Desktop/hello_standalone/bsp/build/debug/./metal/machine.h:561 (discriminator 1)
204054ce:	fe842703          	lw	a4,-24(s0)
204054d2:	47bd                	li	a5,15
204054d4:	00f71463          	bne	a4,a5,204054dc <__metal_driver_sifive_gpio0_interrupt_lines+0x1aa>
/home/khj/Desktop/hello_standalone/bsp/build/debug/./metal/machine.h:562
		return 22;
204054d8:	47d9                	li	a5,22
204054da:	a011                	j	204054de <__metal_driver_sifive_gpio0_interrupt_lines+0x1ac>
/home/khj/Desktop/hello_standalone/bsp/build/debug/./metal/machine.h:565
		return 0;
204054dc:	4781                	li	a5,0
/home/khj/Desktop/hello_standalone/bsp/build/debug/./metal/machine.h:567
}
204054de:	853e                	mv	a0,a5
204054e0:	4472                	lw	s0,28(sp)
204054e2:	6105                	addi	sp,sp,32
204054e4:	8082                	ret

204054e6 <__metal_driver_sifive_gpio0_enable_input>:
__metal_driver_sifive_gpio0_enable_input():
/home/khj/Desktop/hello_standalone/freedom-metal/src/drivers/sifive_gpio0.c:13
#include <metal/drivers/sifive_gpio0.h>
#include <metal/io.h>
#include <metal/machine.h>

int __metal_driver_sifive_gpio0_enable_input(struct metal_gpio *ggpio,
                                             long source) {
204054e6:	7179                	addi	sp,sp,-48
204054e8:	d606                	sw	ra,44(sp)
204054ea:	d422                	sw	s0,40(sp)
204054ec:	1800                	addi	s0,sp,48
204054ee:	fca42e23          	sw	a0,-36(s0)
204054f2:	fcb42c23          	sw	a1,-40(s0)
/home/khj/Desktop/hello_standalone/freedom-metal/src/drivers/sifive_gpio0.c:14
    long base = __metal_driver_sifive_gpio0_base(ggpio);
204054f6:	fdc42503          	lw	a0,-36(s0)
204054fa:	33e5                	jal	204052e2 <__metal_driver_sifive_gpio0_base>
204054fc:	87aa                	mv	a5,a0
204054fe:	fef42623          	sw	a5,-20(s0)
/home/khj/Desktop/hello_standalone/freedom-metal/src/drivers/sifive_gpio0.c:17

    __METAL_ACCESS_ONCE(
        (__metal_io_u32 *)(base + METAL_SIFIVE_GPIO0_INPUT_EN)) |= source;
20405502:	fec42783          	lw	a5,-20(s0)
20405506:	0791                	addi	a5,a5,4
20405508:	4398                	lw	a4,0(a5)
2040550a:	fd842783          	lw	a5,-40(s0)
2040550e:	fec42683          	lw	a3,-20(s0)
20405512:	0691                	addi	a3,a3,4
20405514:	8fd9                	or	a5,a5,a4
20405516:	c29c                	sw	a5,0(a3)
/home/khj/Desktop/hello_standalone/freedom-metal/src/drivers/sifive_gpio0.c:19

    return 0;
20405518:	4781                	li	a5,0
/home/khj/Desktop/hello_standalone/freedom-metal/src/drivers/sifive_gpio0.c:20
}
2040551a:	853e                	mv	a0,a5
2040551c:	50b2                	lw	ra,44(sp)
2040551e:	5422                	lw	s0,40(sp)
20405520:	6145                	addi	sp,sp,48
20405522:	8082                	ret

20405524 <__metal_driver_sifive_gpio0_disable_input>:
__metal_driver_sifive_gpio0_disable_input():
/home/khj/Desktop/hello_standalone/freedom-metal/src/drivers/sifive_gpio0.c:23

int __metal_driver_sifive_gpio0_disable_input(struct metal_gpio *ggpio,
                                              long source) {
20405524:	7179                	addi	sp,sp,-48
20405526:	d606                	sw	ra,44(sp)
20405528:	d422                	sw	s0,40(sp)
2040552a:	1800                	addi	s0,sp,48
2040552c:	fca42e23          	sw	a0,-36(s0)
20405530:	fcb42c23          	sw	a1,-40(s0)
/home/khj/Desktop/hello_standalone/freedom-metal/src/drivers/sifive_gpio0.c:24
    long base = __metal_driver_sifive_gpio0_base(ggpio);
20405534:	fdc42503          	lw	a0,-36(s0)
20405538:	dabff0ef          	jal	ra,204052e2 <__metal_driver_sifive_gpio0_base>
2040553c:	87aa                	mv	a5,a0
2040553e:	fef42623          	sw	a5,-20(s0)
/home/khj/Desktop/hello_standalone/freedom-metal/src/drivers/sifive_gpio0.c:27

    __METAL_ACCESS_ONCE(
        (__metal_io_u32 *)(base + METAL_SIFIVE_GPIO0_INPUT_EN)) &= ~source;
20405542:	fec42783          	lw	a5,-20(s0)
20405546:	0791                	addi	a5,a5,4
20405548:	439c                	lw	a5,0(a5)
2040554a:	fd842703          	lw	a4,-40(s0)
2040554e:	fff74713          	not	a4,a4
20405552:	86ba                	mv	a3,a4
20405554:	fec42703          	lw	a4,-20(s0)
20405558:	0711                	addi	a4,a4,4
2040555a:	8ff5                	and	a5,a5,a3
2040555c:	c31c                	sw	a5,0(a4)
/home/khj/Desktop/hello_standalone/freedom-metal/src/drivers/sifive_gpio0.c:29

    return 0;
2040555e:	4781                	li	a5,0
/home/khj/Desktop/hello_standalone/freedom-metal/src/drivers/sifive_gpio0.c:30
}
20405560:	853e                	mv	a0,a5
20405562:	50b2                	lw	ra,44(sp)
20405564:	5422                	lw	s0,40(sp)
20405566:	6145                	addi	sp,sp,48
20405568:	8082                	ret

2040556a <__metal_driver_sifive_gpio0_input>:
__metal_driver_sifive_gpio0_input():
/home/khj/Desktop/hello_standalone/freedom-metal/src/drivers/sifive_gpio0.c:32

long __metal_driver_sifive_gpio0_input(struct metal_gpio *ggpio) {
2040556a:	7179                	addi	sp,sp,-48
2040556c:	d606                	sw	ra,44(sp)
2040556e:	d422                	sw	s0,40(sp)
20405570:	1800                	addi	s0,sp,48
20405572:	fca42e23          	sw	a0,-36(s0)
/home/khj/Desktop/hello_standalone/freedom-metal/src/drivers/sifive_gpio0.c:33
    long base = __metal_driver_sifive_gpio0_base(ggpio);
20405576:	fdc42503          	lw	a0,-36(s0)
2040557a:	d69ff0ef          	jal	ra,204052e2 <__metal_driver_sifive_gpio0_base>
2040557e:	87aa                	mv	a5,a0
20405580:	fef42623          	sw	a5,-20(s0)
/home/khj/Desktop/hello_standalone/freedom-metal/src/drivers/sifive_gpio0.c:35

    return __METAL_ACCESS_ONCE(
20405584:	fec42783          	lw	a5,-20(s0)
20405588:	439c                	lw	a5,0(a5)
/home/khj/Desktop/hello_standalone/freedom-metal/src/drivers/sifive_gpio0.c:37
        (__metal_io_u32 *)(base + METAL_SIFIVE_GPIO0_VALUE));
}
2040558a:	853e                	mv	a0,a5
2040558c:	50b2                	lw	ra,44(sp)
2040558e:	5422                	lw	s0,40(sp)
20405590:	6145                	addi	sp,sp,48
20405592:	8082                	ret

20405594 <__metal_driver_sifive_gpio0_output>:
__metal_driver_sifive_gpio0_output():
/home/khj/Desktop/hello_standalone/freedom-metal/src/drivers/sifive_gpio0.c:39

long __metal_driver_sifive_gpio0_output(struct metal_gpio *ggpio) {
20405594:	7179                	addi	sp,sp,-48
20405596:	d606                	sw	ra,44(sp)
20405598:	d422                	sw	s0,40(sp)
2040559a:	1800                	addi	s0,sp,48
2040559c:	fca42e23          	sw	a0,-36(s0)
/home/khj/Desktop/hello_standalone/freedom-metal/src/drivers/sifive_gpio0.c:40
    long base = __metal_driver_sifive_gpio0_base(ggpio);
204055a0:	fdc42503          	lw	a0,-36(s0)
204055a4:	d3fff0ef          	jal	ra,204052e2 <__metal_driver_sifive_gpio0_base>
204055a8:	87aa                	mv	a5,a0
204055aa:	fef42623          	sw	a5,-20(s0)
/home/khj/Desktop/hello_standalone/freedom-metal/src/drivers/sifive_gpio0.c:42

    return __METAL_ACCESS_ONCE(
204055ae:	fec42783          	lw	a5,-20(s0)
204055b2:	07b1                	addi	a5,a5,12
204055b4:	439c                	lw	a5,0(a5)
/home/khj/Desktop/hello_standalone/freedom-metal/src/drivers/sifive_gpio0.c:44
        (__metal_io_u32 *)(base + METAL_SIFIVE_GPIO0_PORT));
}
204055b6:	853e                	mv	a0,a5
204055b8:	50b2                	lw	ra,44(sp)
204055ba:	5422                	lw	s0,40(sp)
204055bc:	6145                	addi	sp,sp,48
204055be:	8082                	ret

204055c0 <__metal_driver_sifive_gpio0_disable_output>:
__metal_driver_sifive_gpio0_disable_output():
/home/khj/Desktop/hello_standalone/freedom-metal/src/drivers/sifive_gpio0.c:47

int __metal_driver_sifive_gpio0_disable_output(struct metal_gpio *ggpio,
                                               long source) {
204055c0:	7179                	addi	sp,sp,-48
204055c2:	d606                	sw	ra,44(sp)
204055c4:	d422                	sw	s0,40(sp)
204055c6:	1800                	addi	s0,sp,48
204055c8:	fca42e23          	sw	a0,-36(s0)
204055cc:	fcb42c23          	sw	a1,-40(s0)
/home/khj/Desktop/hello_standalone/freedom-metal/src/drivers/sifive_gpio0.c:48
    long base = __metal_driver_sifive_gpio0_base(ggpio);
204055d0:	fdc42503          	lw	a0,-36(s0)
204055d4:	d0fff0ef          	jal	ra,204052e2 <__metal_driver_sifive_gpio0_base>
204055d8:	87aa                	mv	a5,a0
204055da:	fef42623          	sw	a5,-20(s0)
/home/khj/Desktop/hello_standalone/freedom-metal/src/drivers/sifive_gpio0.c:51

    __METAL_ACCESS_ONCE(
        (__metal_io_u32 *)(base + METAL_SIFIVE_GPIO0_OUTPUT_EN)) &= ~source;
204055de:	fec42783          	lw	a5,-20(s0)
204055e2:	07a1                	addi	a5,a5,8
204055e4:	439c                	lw	a5,0(a5)
204055e6:	fd842703          	lw	a4,-40(s0)
204055ea:	fff74713          	not	a4,a4
204055ee:	86ba                	mv	a3,a4
204055f0:	fec42703          	lw	a4,-20(s0)
204055f4:	0721                	addi	a4,a4,8
204055f6:	8ff5                	and	a5,a5,a3
204055f8:	c31c                	sw	a5,0(a4)
/home/khj/Desktop/hello_standalone/freedom-metal/src/drivers/sifive_gpio0.c:53

    return 0;
204055fa:	4781                	li	a5,0
/home/khj/Desktop/hello_standalone/freedom-metal/src/drivers/sifive_gpio0.c:54
}
204055fc:	853e                	mv	a0,a5
204055fe:	50b2                	lw	ra,44(sp)
20405600:	5422                	lw	s0,40(sp)
20405602:	6145                	addi	sp,sp,48
20405604:	8082                	ret

20405606 <__metal_driver_sifive_gpio0_enable_output>:
__metal_driver_sifive_gpio0_enable_output():
/home/khj/Desktop/hello_standalone/freedom-metal/src/drivers/sifive_gpio0.c:57

int __metal_driver_sifive_gpio0_enable_output(struct metal_gpio *ggpio,
                                              long source) {
20405606:	7179                	addi	sp,sp,-48
20405608:	d606                	sw	ra,44(sp)
2040560a:	d422                	sw	s0,40(sp)
2040560c:	1800                	addi	s0,sp,48
2040560e:	fca42e23          	sw	a0,-36(s0)
20405612:	fcb42c23          	sw	a1,-40(s0)
/home/khj/Desktop/hello_standalone/freedom-metal/src/drivers/sifive_gpio0.c:58
    long base = __metal_driver_sifive_gpio0_base(ggpio);
20405616:	fdc42503          	lw	a0,-36(s0)
2040561a:	cc9ff0ef          	jal	ra,204052e2 <__metal_driver_sifive_gpio0_base>
2040561e:	87aa                	mv	a5,a0
20405620:	fef42623          	sw	a5,-20(s0)
/home/khj/Desktop/hello_standalone/freedom-metal/src/drivers/sifive_gpio0.c:61

    __METAL_ACCESS_ONCE(
        (__metal_io_u32 *)(base + METAL_SIFIVE_GPIO0_OUTPUT_EN)) |= source;
20405624:	fec42783          	lw	a5,-20(s0)
20405628:	07a1                	addi	a5,a5,8
2040562a:	4398                	lw	a4,0(a5)
2040562c:	fd842783          	lw	a5,-40(s0)
20405630:	fec42683          	lw	a3,-20(s0)
20405634:	06a1                	addi	a3,a3,8
20405636:	8fd9                	or	a5,a5,a4
20405638:	c29c                	sw	a5,0(a3)
/home/khj/Desktop/hello_standalone/freedom-metal/src/drivers/sifive_gpio0.c:63

    return 0;
2040563a:	4781                	li	a5,0
/home/khj/Desktop/hello_standalone/freedom-metal/src/drivers/sifive_gpio0.c:64
}
2040563c:	853e                	mv	a0,a5
2040563e:	50b2                	lw	ra,44(sp)
20405640:	5422                	lw	s0,40(sp)
20405642:	6145                	addi	sp,sp,48
20405644:	8082                	ret

20405646 <__metal_driver_sifive_gpio0_output_set>:
__metal_driver_sifive_gpio0_output_set():
/home/khj/Desktop/hello_standalone/freedom-metal/src/drivers/sifive_gpio0.c:67

int __metal_driver_sifive_gpio0_output_set(struct metal_gpio *ggpio,
                                           long value) {
20405646:	7179                	addi	sp,sp,-48
20405648:	d606                	sw	ra,44(sp)
2040564a:	d422                	sw	s0,40(sp)
2040564c:	1800                	addi	s0,sp,48
2040564e:	fca42e23          	sw	a0,-36(s0)
20405652:	fcb42c23          	sw	a1,-40(s0)
/home/khj/Desktop/hello_standalone/freedom-metal/src/drivers/sifive_gpio0.c:68
    long base = __metal_driver_sifive_gpio0_base(ggpio);
20405656:	fdc42503          	lw	a0,-36(s0)
2040565a:	c89ff0ef          	jal	ra,204052e2 <__metal_driver_sifive_gpio0_base>
2040565e:	87aa                	mv	a5,a0
20405660:	fef42623          	sw	a5,-20(s0)
/home/khj/Desktop/hello_standalone/freedom-metal/src/drivers/sifive_gpio0.c:70

    __METAL_ACCESS_ONCE((__metal_io_u32 *)(base + METAL_SIFIVE_GPIO0_PORT)) |=
20405664:	fec42783          	lw	a5,-20(s0)
20405668:	07b1                	addi	a5,a5,12
2040566a:	4398                	lw	a4,0(a5)
2040566c:	fd842783          	lw	a5,-40(s0)
20405670:	fec42683          	lw	a3,-20(s0)
20405674:	06b1                	addi	a3,a3,12
20405676:	8fd9                	or	a5,a5,a4
20405678:	c29c                	sw	a5,0(a3)
/home/khj/Desktop/hello_standalone/freedom-metal/src/drivers/sifive_gpio0.c:73
        value;

    return 0;
2040567a:	4781                	li	a5,0
/home/khj/Desktop/hello_standalone/freedom-metal/src/drivers/sifive_gpio0.c:74
}
2040567c:	853e                	mv	a0,a5
2040567e:	50b2                	lw	ra,44(sp)
20405680:	5422                	lw	s0,40(sp)
20405682:	6145                	addi	sp,sp,48
20405684:	8082                	ret

20405686 <__metal_driver_sifive_gpio0_output_clear>:
__metal_driver_sifive_gpio0_output_clear():
/home/khj/Desktop/hello_standalone/freedom-metal/src/drivers/sifive_gpio0.c:77

int __metal_driver_sifive_gpio0_output_clear(struct metal_gpio *ggpio,
                                             long value) {
20405686:	7179                	addi	sp,sp,-48
20405688:	d606                	sw	ra,44(sp)
2040568a:	d422                	sw	s0,40(sp)
2040568c:	1800                	addi	s0,sp,48
2040568e:	fca42e23          	sw	a0,-36(s0)
20405692:	fcb42c23          	sw	a1,-40(s0)
/home/khj/Desktop/hello_standalone/freedom-metal/src/drivers/sifive_gpio0.c:78
    long base = __metal_driver_sifive_gpio0_base(ggpio);
20405696:	fdc42503          	lw	a0,-36(s0)
2040569a:	c49ff0ef          	jal	ra,204052e2 <__metal_driver_sifive_gpio0_base>
2040569e:	87aa                	mv	a5,a0
204056a0:	fef42623          	sw	a5,-20(s0)
/home/khj/Desktop/hello_standalone/freedom-metal/src/drivers/sifive_gpio0.c:80

    __METAL_ACCESS_ONCE((__metal_io_u32 *)(base + METAL_SIFIVE_GPIO0_PORT)) &=
204056a4:	fec42783          	lw	a5,-20(s0)
204056a8:	07b1                	addi	a5,a5,12
204056aa:	439c                	lw	a5,0(a5)
/home/khj/Desktop/hello_standalone/freedom-metal/src/drivers/sifive_gpio0.c:81
        ~value;
204056ac:	fd842703          	lw	a4,-40(s0)
204056b0:	fff74713          	not	a4,a4
204056b4:	86ba                	mv	a3,a4
/home/khj/Desktop/hello_standalone/freedom-metal/src/drivers/sifive_gpio0.c:80
    __METAL_ACCESS_ONCE((__metal_io_u32 *)(base + METAL_SIFIVE_GPIO0_PORT)) &=
204056b6:	fec42703          	lw	a4,-20(s0)
204056ba:	0731                	addi	a4,a4,12
204056bc:	8ff5                	and	a5,a5,a3
204056be:	c31c                	sw	a5,0(a4)
/home/khj/Desktop/hello_standalone/freedom-metal/src/drivers/sifive_gpio0.c:83

    return 0;
204056c0:	4781                	li	a5,0
/home/khj/Desktop/hello_standalone/freedom-metal/src/drivers/sifive_gpio0.c:84
}
204056c2:	853e                	mv	a0,a5
204056c4:	50b2                	lw	ra,44(sp)
204056c6:	5422                	lw	s0,40(sp)
204056c8:	6145                	addi	sp,sp,48
204056ca:	8082                	ret

204056cc <__metal_driver_sifive_gpio0_output_toggle>:
__metal_driver_sifive_gpio0_output_toggle():
/home/khj/Desktop/hello_standalone/freedom-metal/src/drivers/sifive_gpio0.c:87

int __metal_driver_sifive_gpio0_output_toggle(struct metal_gpio *ggpio,
                                              long value) {
204056cc:	7179                	addi	sp,sp,-48
204056ce:	d606                	sw	ra,44(sp)
204056d0:	d422                	sw	s0,40(sp)
204056d2:	1800                	addi	s0,sp,48
204056d4:	fca42e23          	sw	a0,-36(s0)
204056d8:	fcb42c23          	sw	a1,-40(s0)
/home/khj/Desktop/hello_standalone/freedom-metal/src/drivers/sifive_gpio0.c:88
    long base = __metal_driver_sifive_gpio0_base(ggpio);
204056dc:	fdc42503          	lw	a0,-36(s0)
204056e0:	c03ff0ef          	jal	ra,204052e2 <__metal_driver_sifive_gpio0_base>
204056e4:	87aa                	mv	a5,a0
204056e6:	fef42623          	sw	a5,-20(s0)
/home/khj/Desktop/hello_standalone/freedom-metal/src/drivers/sifive_gpio0.c:91

    __METAL_ACCESS_ONCE((__metal_io_u32 *)(base + METAL_SIFIVE_GPIO0_PORT)) =
        __METAL_ACCESS_ONCE(
204056ea:	fec42783          	lw	a5,-20(s0)
204056ee:	07b1                	addi	a5,a5,12
204056f0:	4398                	lw	a4,0(a5)
/home/khj/Desktop/hello_standalone/freedom-metal/src/drivers/sifive_gpio0.c:92
            (__metal_io_u32 *)(base + METAL_SIFIVE_GPIO0_PORT)) ^
204056f2:	fd842783          	lw	a5,-40(s0)
/home/khj/Desktop/hello_standalone/freedom-metal/src/drivers/sifive_gpio0.c:90
    __METAL_ACCESS_ONCE((__metal_io_u32 *)(base + METAL_SIFIVE_GPIO0_PORT)) =
204056f6:	fec42683          	lw	a3,-20(s0)
204056fa:	06b1                	addi	a3,a3,12
/home/khj/Desktop/hello_standalone/freedom-metal/src/drivers/sifive_gpio0.c:92
            (__metal_io_u32 *)(base + METAL_SIFIVE_GPIO0_PORT)) ^
204056fc:	8fb9                	xor	a5,a5,a4
/home/khj/Desktop/hello_standalone/freedom-metal/src/drivers/sifive_gpio0.c:90
    __METAL_ACCESS_ONCE((__metal_io_u32 *)(base + METAL_SIFIVE_GPIO0_PORT)) =
204056fe:	c29c                	sw	a5,0(a3)
/home/khj/Desktop/hello_standalone/freedom-metal/src/drivers/sifive_gpio0.c:95
        value;

    return 0;
20405700:	4781                	li	a5,0
/home/khj/Desktop/hello_standalone/freedom-metal/src/drivers/sifive_gpio0.c:96
}
20405702:	853e                	mv	a0,a5
20405704:	50b2                	lw	ra,44(sp)
20405706:	5422                	lw	s0,40(sp)
20405708:	6145                	addi	sp,sp,48
2040570a:	8082                	ret

2040570c <__metal_driver_sifive_gpio0_enable_io>:
__metal_driver_sifive_gpio0_enable_io():
/home/khj/Desktop/hello_standalone/freedom-metal/src/drivers/sifive_gpio0.c:99

int __metal_driver_sifive_gpio0_enable_io(struct metal_gpio *ggpio, long source,
                                          long dest) {
2040570c:	7179                	addi	sp,sp,-48
2040570e:	d606                	sw	ra,44(sp)
20405710:	d422                	sw	s0,40(sp)
20405712:	1800                	addi	s0,sp,48
20405714:	fca42e23          	sw	a0,-36(s0)
20405718:	fcb42c23          	sw	a1,-40(s0)
2040571c:	fcc42a23          	sw	a2,-44(s0)
/home/khj/Desktop/hello_standalone/freedom-metal/src/drivers/sifive_gpio0.c:100
    long base = __metal_driver_sifive_gpio0_base(ggpio);
20405720:	fdc42503          	lw	a0,-36(s0)
20405724:	bbfff0ef          	jal	ra,204052e2 <__metal_driver_sifive_gpio0_base>
20405728:	87aa                	mv	a5,a0
2040572a:	fef42623          	sw	a5,-20(s0)
/home/khj/Desktop/hello_standalone/freedom-metal/src/drivers/sifive_gpio0.c:103

    __METAL_ACCESS_ONCE(
        (__metal_io_u32 *)(base + METAL_SIFIVE_GPIO0_IOF_SEL)) |= source;
2040572e:	fec42783          	lw	a5,-20(s0)
20405732:	03c78793          	addi	a5,a5,60
20405736:	4398                	lw	a4,0(a5)
20405738:	fd842783          	lw	a5,-40(s0)
2040573c:	fec42683          	lw	a3,-20(s0)
20405740:	03c68693          	addi	a3,a3,60
20405744:	8fd9                	or	a5,a5,a4
20405746:	c29c                	sw	a5,0(a3)
/home/khj/Desktop/hello_standalone/freedom-metal/src/drivers/sifive_gpio0.c:104
    __METAL_ACCESS_ONCE((__metal_io_u32 *)(base + METAL_SIFIVE_GPIO0_IOF_EN)) |=
20405748:	fec42783          	lw	a5,-20(s0)
2040574c:	03878793          	addi	a5,a5,56
20405750:	4398                	lw	a4,0(a5)
20405752:	fd442783          	lw	a5,-44(s0)
20405756:	fec42683          	lw	a3,-20(s0)
2040575a:	03868693          	addi	a3,a3,56
2040575e:	8fd9                	or	a5,a5,a4
20405760:	c29c                	sw	a5,0(a3)
/home/khj/Desktop/hello_standalone/freedom-metal/src/drivers/sifive_gpio0.c:107
        dest;

    return 0;
20405762:	4781                	li	a5,0
/home/khj/Desktop/hello_standalone/freedom-metal/src/drivers/sifive_gpio0.c:108
}
20405764:	853e                	mv	a0,a5
20405766:	50b2                	lw	ra,44(sp)
20405768:	5422                	lw	s0,40(sp)
2040576a:	6145                	addi	sp,sp,48
2040576c:	8082                	ret

2040576e <__metal_driver_sifive_gpio0_disable_io>:
__metal_driver_sifive_gpio0_disable_io():
/home/khj/Desktop/hello_standalone/freedom-metal/src/drivers/sifive_gpio0.c:111

int __metal_driver_sifive_gpio0_disable_io(struct metal_gpio *ggpio,
                                           long source) {
2040576e:	7179                	addi	sp,sp,-48
20405770:	d606                	sw	ra,44(sp)
20405772:	d422                	sw	s0,40(sp)
20405774:	1800                	addi	s0,sp,48
20405776:	fca42e23          	sw	a0,-36(s0)
2040577a:	fcb42c23          	sw	a1,-40(s0)
/home/khj/Desktop/hello_standalone/freedom-metal/src/drivers/sifive_gpio0.c:112
    long base = __metal_driver_sifive_gpio0_base(ggpio);
2040577e:	fdc42503          	lw	a0,-36(s0)
20405782:	b61ff0ef          	jal	ra,204052e2 <__metal_driver_sifive_gpio0_base>
20405786:	87aa                	mv	a5,a0
20405788:	fef42623          	sw	a5,-20(s0)
/home/khj/Desktop/hello_standalone/freedom-metal/src/drivers/sifive_gpio0.c:114

    __METAL_ACCESS_ONCE((__metal_io_u32 *)(base + METAL_SIFIVE_GPIO0_IOF_EN)) &=
2040578c:	fec42783          	lw	a5,-20(s0)
20405790:	03878793          	addi	a5,a5,56
20405794:	439c                	lw	a5,0(a5)
/home/khj/Desktop/hello_standalone/freedom-metal/src/drivers/sifive_gpio0.c:115
        ~source;
20405796:	fd842703          	lw	a4,-40(s0)
2040579a:	fff74713          	not	a4,a4
2040579e:	86ba                	mv	a3,a4
/home/khj/Desktop/hello_standalone/freedom-metal/src/drivers/sifive_gpio0.c:114
    __METAL_ACCESS_ONCE((__metal_io_u32 *)(base + METAL_SIFIVE_GPIO0_IOF_EN)) &=
204057a0:	fec42703          	lw	a4,-20(s0)
204057a4:	03870713          	addi	a4,a4,56
204057a8:	8ff5                	and	a5,a5,a3
204057aa:	c31c                	sw	a5,0(a4)
/home/khj/Desktop/hello_standalone/freedom-metal/src/drivers/sifive_gpio0.c:117

    return 0;
204057ac:	4781                	li	a5,0
/home/khj/Desktop/hello_standalone/freedom-metal/src/drivers/sifive_gpio0.c:118
}
204057ae:	853e                	mv	a0,a5
204057b0:	50b2                	lw	ra,44(sp)
204057b2:	5422                	lw	s0,40(sp)
204057b4:	6145                	addi	sp,sp,48
204057b6:	8082                	ret

204057b8 <__metal_driver_sifive_gpio0_config_int>:
__metal_driver_sifive_gpio0_config_int():
/home/khj/Desktop/hello_standalone/freedom-metal/src/drivers/sifive_gpio0.c:121

int __metal_driver_sifive_gpio0_config_int(struct metal_gpio *ggpio,
                                           long source, int intr_type) {
204057b8:	7179                	addi	sp,sp,-48
204057ba:	d606                	sw	ra,44(sp)
204057bc:	d422                	sw	s0,40(sp)
204057be:	1800                	addi	s0,sp,48
204057c0:	fca42e23          	sw	a0,-36(s0)
204057c4:	fcb42c23          	sw	a1,-40(s0)
204057c8:	fcc42a23          	sw	a2,-44(s0)
/home/khj/Desktop/hello_standalone/freedom-metal/src/drivers/sifive_gpio0.c:122
    long base = __metal_driver_sifive_gpio0_base(ggpio);
204057cc:	fdc42503          	lw	a0,-36(s0)
204057d0:	b13ff0ef          	jal	ra,204052e2 <__metal_driver_sifive_gpio0_base>
204057d4:	87aa                	mv	a5,a0
204057d6:	fef42623          	sw	a5,-20(s0)
/home/khj/Desktop/hello_standalone/freedom-metal/src/drivers/sifive_gpio0.c:124

    switch (intr_type) {
204057da:	fd442703          	lw	a4,-44(s0)
204057de:	479d                	li	a5,7
204057e0:	1ce7e963          	bltu	a5,a4,204059b2 <__metal_driver_sifive_gpio0_config_int+0x1fa>
204057e4:	fd442783          	lw	a5,-44(s0)
204057e8:	00279713          	slli	a4,a5,0x2
204057ec:	204017b7          	lui	a5,0x20401
204057f0:	e8878793          	addi	a5,a5,-376 # 20400e88 <__metal_driver_vtable_sifive_fe310_g000_pll+0xc>
204057f4:	97ba                	add	a5,a5,a4
204057f6:	439c                	lw	a5,0(a5)
204057f8:	8782                	jr	a5
/home/khj/Desktop/hello_standalone/freedom-metal/src/drivers/sifive_gpio0.c:127
    case METAL_GPIO_INT_DISABLE:
        __METAL_ACCESS_ONCE(
            (__metal_io_u32 *)(base + METAL_SIFIVE_GPIO0_RISE_IE)) &= ~source;
204057fa:	fec42783          	lw	a5,-20(s0)
204057fe:	07e1                	addi	a5,a5,24
20405800:	439c                	lw	a5,0(a5)
20405802:	fd842703          	lw	a4,-40(s0)
20405806:	fff74713          	not	a4,a4
2040580a:	86ba                	mv	a3,a4
2040580c:	fec42703          	lw	a4,-20(s0)
20405810:	0761                	addi	a4,a4,24
20405812:	8ff5                	and	a5,a5,a3
20405814:	c31c                	sw	a5,0(a4)
/home/khj/Desktop/hello_standalone/freedom-metal/src/drivers/sifive_gpio0.c:129
        __METAL_ACCESS_ONCE(
            (__metal_io_u32 *)(base + METAL_SIFIVE_GPIO0_FALL_IE)) &= ~source;
20405816:	fec42783          	lw	a5,-20(s0)
2040581a:	02078793          	addi	a5,a5,32
2040581e:	439c                	lw	a5,0(a5)
20405820:	fd842703          	lw	a4,-40(s0)
20405824:	fff74713          	not	a4,a4
20405828:	86ba                	mv	a3,a4
2040582a:	fec42703          	lw	a4,-20(s0)
2040582e:	02070713          	addi	a4,a4,32
20405832:	8ff5                	and	a5,a5,a3
20405834:	c31c                	sw	a5,0(a4)
/home/khj/Desktop/hello_standalone/freedom-metal/src/drivers/sifive_gpio0.c:131
        __METAL_ACCESS_ONCE(
            (__metal_io_u32 *)(base + METAL_SIFIVE_GPIO0_HIGH_IE)) &= ~source;
20405836:	fec42783          	lw	a5,-20(s0)
2040583a:	02878793          	addi	a5,a5,40
2040583e:	439c                	lw	a5,0(a5)
20405840:	fd842703          	lw	a4,-40(s0)
20405844:	fff74713          	not	a4,a4
20405848:	86ba                	mv	a3,a4
2040584a:	fec42703          	lw	a4,-20(s0)
2040584e:	02870713          	addi	a4,a4,40
20405852:	8ff5                	and	a5,a5,a3
20405854:	c31c                	sw	a5,0(a4)
/home/khj/Desktop/hello_standalone/freedom-metal/src/drivers/sifive_gpio0.c:133
        __METAL_ACCESS_ONCE(
            (__metal_io_u32 *)(base + METAL_SIFIVE_GPIO0_LOW_IE)) &= ~source;
20405856:	fec42783          	lw	a5,-20(s0)
2040585a:	03078793          	addi	a5,a5,48
2040585e:	439c                	lw	a5,0(a5)
20405860:	fd842703          	lw	a4,-40(s0)
20405864:	fff74713          	not	a4,a4
20405868:	86ba                	mv	a3,a4
2040586a:	fec42703          	lw	a4,-20(s0)
2040586e:	03070713          	addi	a4,a4,48
20405872:	8ff5                	and	a5,a5,a3
20405874:	c31c                	sw	a5,0(a4)
/home/khj/Desktop/hello_standalone/freedom-metal/src/drivers/sifive_gpio0.c:134
        break;
20405876:	aa35                	j	204059b2 <__metal_driver_sifive_gpio0_config_int+0x1fa>
/home/khj/Desktop/hello_standalone/freedom-metal/src/drivers/sifive_gpio0.c:137
    case METAL_GPIO_INT_RISING:
        __METAL_ACCESS_ONCE(
            (__metal_io_u32 *)(base + METAL_SIFIVE_GPIO0_RISE_IE)) |= source;
20405878:	fec42783          	lw	a5,-20(s0)
2040587c:	07e1                	addi	a5,a5,24
2040587e:	4398                	lw	a4,0(a5)
20405880:	fd842783          	lw	a5,-40(s0)
20405884:	fec42683          	lw	a3,-20(s0)
20405888:	06e1                	addi	a3,a3,24
2040588a:	8fd9                	or	a5,a5,a4
2040588c:	c29c                	sw	a5,0(a3)
/home/khj/Desktop/hello_standalone/freedom-metal/src/drivers/sifive_gpio0.c:138
        break;
2040588e:	a215                	j	204059b2 <__metal_driver_sifive_gpio0_config_int+0x1fa>
/home/khj/Desktop/hello_standalone/freedom-metal/src/drivers/sifive_gpio0.c:141
    case METAL_GPIO_INT_FALLING:
        __METAL_ACCESS_ONCE(
            (__metal_io_u32 *)(base + METAL_SIFIVE_GPIO0_FALL_IE)) |= source;
20405890:	fec42783          	lw	a5,-20(s0)
20405894:	02078793          	addi	a5,a5,32
20405898:	4398                	lw	a4,0(a5)
2040589a:	fd842783          	lw	a5,-40(s0)
2040589e:	fec42683          	lw	a3,-20(s0)
204058a2:	02068693          	addi	a3,a3,32
204058a6:	8fd9                	or	a5,a5,a4
204058a8:	c29c                	sw	a5,0(a3)
/home/khj/Desktop/hello_standalone/freedom-metal/src/drivers/sifive_gpio0.c:142
        break;
204058aa:	a221                	j	204059b2 <__metal_driver_sifive_gpio0_config_int+0x1fa>
/home/khj/Desktop/hello_standalone/freedom-metal/src/drivers/sifive_gpio0.c:145
    case METAL_GPIO_INT_BOTH_EDGE:
        __METAL_ACCESS_ONCE(
            (__metal_io_u32 *)(base + METAL_SIFIVE_GPIO0_RISE_IE)) |= source;
204058ac:	fec42783          	lw	a5,-20(s0)
204058b0:	07e1                	addi	a5,a5,24
204058b2:	4398                	lw	a4,0(a5)
204058b4:	fd842783          	lw	a5,-40(s0)
204058b8:	fec42683          	lw	a3,-20(s0)
204058bc:	06e1                	addi	a3,a3,24
204058be:	8fd9                	or	a5,a5,a4
204058c0:	c29c                	sw	a5,0(a3)
/home/khj/Desktop/hello_standalone/freedom-metal/src/drivers/sifive_gpio0.c:147
        __METAL_ACCESS_ONCE(
            (__metal_io_u32 *)(base + METAL_SIFIVE_GPIO0_FALL_IE)) |= source;
204058c2:	fec42783          	lw	a5,-20(s0)
204058c6:	02078793          	addi	a5,a5,32
204058ca:	4398                	lw	a4,0(a5)
204058cc:	fd842783          	lw	a5,-40(s0)
204058d0:	fec42683          	lw	a3,-20(s0)
204058d4:	02068693          	addi	a3,a3,32
204058d8:	8fd9                	or	a5,a5,a4
204058da:	c29c                	sw	a5,0(a3)
/home/khj/Desktop/hello_standalone/freedom-metal/src/drivers/sifive_gpio0.c:148
        break;
204058dc:	a8d9                	j	204059b2 <__metal_driver_sifive_gpio0_config_int+0x1fa>
/home/khj/Desktop/hello_standalone/freedom-metal/src/drivers/sifive_gpio0.c:151
    case METAL_GPIO_INT_HIGH:
        __METAL_ACCESS_ONCE(
            (__metal_io_u32 *)(base + METAL_SIFIVE_GPIO0_HIGH_IE)) |= source;
204058de:	fec42783          	lw	a5,-20(s0)
204058e2:	02878793          	addi	a5,a5,40
204058e6:	4398                	lw	a4,0(a5)
204058e8:	fd842783          	lw	a5,-40(s0)
204058ec:	fec42683          	lw	a3,-20(s0)
204058f0:	02868693          	addi	a3,a3,40
204058f4:	8fd9                	or	a5,a5,a4
204058f6:	c29c                	sw	a5,0(a3)
/home/khj/Desktop/hello_standalone/freedom-metal/src/drivers/sifive_gpio0.c:152
        break;
204058f8:	a86d                	j	204059b2 <__metal_driver_sifive_gpio0_config_int+0x1fa>
/home/khj/Desktop/hello_standalone/freedom-metal/src/drivers/sifive_gpio0.c:155
    case METAL_GPIO_INT_LOW:
        __METAL_ACCESS_ONCE(
            (__metal_io_u32 *)(base + METAL_SIFIVE_GPIO0_LOW_IE)) |= source;
204058fa:	fec42783          	lw	a5,-20(s0)
204058fe:	03078793          	addi	a5,a5,48
20405902:	4398                	lw	a4,0(a5)
20405904:	fd842783          	lw	a5,-40(s0)
20405908:	fec42683          	lw	a3,-20(s0)
2040590c:	03068693          	addi	a3,a3,48
20405910:	8fd9                	or	a5,a5,a4
20405912:	c29c                	sw	a5,0(a3)
/home/khj/Desktop/hello_standalone/freedom-metal/src/drivers/sifive_gpio0.c:156
        break;
20405914:	a879                	j	204059b2 <__metal_driver_sifive_gpio0_config_int+0x1fa>
/home/khj/Desktop/hello_standalone/freedom-metal/src/drivers/sifive_gpio0.c:159
    case METAL_GPIO_INT_BOTH_LEVEL:
        __METAL_ACCESS_ONCE(
            (__metal_io_u32 *)(base + METAL_SIFIVE_GPIO0_HIGH_IE)) |= source;
20405916:	fec42783          	lw	a5,-20(s0)
2040591a:	02878793          	addi	a5,a5,40
2040591e:	4398                	lw	a4,0(a5)
20405920:	fd842783          	lw	a5,-40(s0)
20405924:	fec42683          	lw	a3,-20(s0)
20405928:	02868693          	addi	a3,a3,40
2040592c:	8fd9                	or	a5,a5,a4
2040592e:	c29c                	sw	a5,0(a3)
/home/khj/Desktop/hello_standalone/freedom-metal/src/drivers/sifive_gpio0.c:161
        __METAL_ACCESS_ONCE(
            (__metal_io_u32 *)(base + METAL_SIFIVE_GPIO0_LOW_IE)) |= source;
20405930:	fec42783          	lw	a5,-20(s0)
20405934:	03078793          	addi	a5,a5,48
20405938:	4398                	lw	a4,0(a5)
2040593a:	fd842783          	lw	a5,-40(s0)
2040593e:	fec42683          	lw	a3,-20(s0)
20405942:	03068693          	addi	a3,a3,48
20405946:	8fd9                	or	a5,a5,a4
20405948:	c29c                	sw	a5,0(a3)
/home/khj/Desktop/hello_standalone/freedom-metal/src/drivers/sifive_gpio0.c:162
        break;
2040594a:	a0a5                	j	204059b2 <__metal_driver_sifive_gpio0_config_int+0x1fa>
/home/khj/Desktop/hello_standalone/freedom-metal/src/drivers/sifive_gpio0.c:165
    case METAL_GPIO_INT_MAX:
        __METAL_ACCESS_ONCE(
            (__metal_io_u32 *)(base + METAL_SIFIVE_GPIO0_RISE_IE)) |= source;
2040594c:	fec42783          	lw	a5,-20(s0)
20405950:	07e1                	addi	a5,a5,24
20405952:	4398                	lw	a4,0(a5)
20405954:	fd842783          	lw	a5,-40(s0)
20405958:	fec42683          	lw	a3,-20(s0)
2040595c:	06e1                	addi	a3,a3,24
2040595e:	8fd9                	or	a5,a5,a4
20405960:	c29c                	sw	a5,0(a3)
/home/khj/Desktop/hello_standalone/freedom-metal/src/drivers/sifive_gpio0.c:167
        __METAL_ACCESS_ONCE(
            (__metal_io_u32 *)(base + METAL_SIFIVE_GPIO0_FALL_IE)) |= source;
20405962:	fec42783          	lw	a5,-20(s0)
20405966:	02078793          	addi	a5,a5,32
2040596a:	4398                	lw	a4,0(a5)
2040596c:	fd842783          	lw	a5,-40(s0)
20405970:	fec42683          	lw	a3,-20(s0)
20405974:	02068693          	addi	a3,a3,32
20405978:	8fd9                	or	a5,a5,a4
2040597a:	c29c                	sw	a5,0(a3)
/home/khj/Desktop/hello_standalone/freedom-metal/src/drivers/sifive_gpio0.c:169
        __METAL_ACCESS_ONCE(
            (__metal_io_u32 *)(base + METAL_SIFIVE_GPIO0_HIGH_IE)) |= source;
2040597c:	fec42783          	lw	a5,-20(s0)
20405980:	02878793          	addi	a5,a5,40
20405984:	4398                	lw	a4,0(a5)
20405986:	fd842783          	lw	a5,-40(s0)
2040598a:	fec42683          	lw	a3,-20(s0)
2040598e:	02868693          	addi	a3,a3,40
20405992:	8fd9                	or	a5,a5,a4
20405994:	c29c                	sw	a5,0(a3)
/home/khj/Desktop/hello_standalone/freedom-metal/src/drivers/sifive_gpio0.c:171
        __METAL_ACCESS_ONCE(
            (__metal_io_u32 *)(base + METAL_SIFIVE_GPIO0_LOW_IE)) |= source;
20405996:	fec42783          	lw	a5,-20(s0)
2040599a:	03078793          	addi	a5,a5,48
2040599e:	4398                	lw	a4,0(a5)
204059a0:	fd842783          	lw	a5,-40(s0)
204059a4:	fec42683          	lw	a3,-20(s0)
204059a8:	03068693          	addi	a3,a3,48
204059ac:	8fd9                	or	a5,a5,a4
204059ae:	c29c                	sw	a5,0(a3)
/home/khj/Desktop/hello_standalone/freedom-metal/src/drivers/sifive_gpio0.c:172
        break;
204059b0:	0001                	nop
/home/khj/Desktop/hello_standalone/freedom-metal/src/drivers/sifive_gpio0.c:174
    }
    return 0;
204059b2:	4781                	li	a5,0
/home/khj/Desktop/hello_standalone/freedom-metal/src/drivers/sifive_gpio0.c:175
}
204059b4:	853e                	mv	a0,a5
204059b6:	50b2                	lw	ra,44(sp)
204059b8:	5422                	lw	s0,40(sp)
204059ba:	6145                	addi	sp,sp,48
204059bc:	8082                	ret

204059be <__metal_driver_sifive_gpio0_clear_int>:
__metal_driver_sifive_gpio0_clear_int():
/home/khj/Desktop/hello_standalone/freedom-metal/src/drivers/sifive_gpio0.c:178

int __metal_driver_sifive_gpio0_clear_int(struct metal_gpio *ggpio, long source,
                                          int intr_type) {
204059be:	7179                	addi	sp,sp,-48
204059c0:	d606                	sw	ra,44(sp)
204059c2:	d422                	sw	s0,40(sp)
204059c4:	1800                	addi	s0,sp,48
204059c6:	fca42e23          	sw	a0,-36(s0)
204059ca:	fcb42c23          	sw	a1,-40(s0)
204059ce:	fcc42a23          	sw	a2,-44(s0)
/home/khj/Desktop/hello_standalone/freedom-metal/src/drivers/sifive_gpio0.c:179
    long base = __metal_driver_sifive_gpio0_base(ggpio);
204059d2:	fdc42503          	lw	a0,-36(s0)
204059d6:	90dff0ef          	jal	ra,204052e2 <__metal_driver_sifive_gpio0_base>
204059da:	87aa                	mv	a5,a0
204059dc:	fef42623          	sw	a5,-20(s0)
/home/khj/Desktop/hello_standalone/freedom-metal/src/drivers/sifive_gpio0.c:181

    switch (intr_type) {
204059e0:	fd442703          	lw	a4,-44(s0)
204059e4:	479d                	li	a5,7
204059e6:	14e7ea63          	bltu	a5,a4,20405b3a <__metal_driver_sifive_gpio0_clear_int+0x17c>
204059ea:	fd442783          	lw	a5,-44(s0)
204059ee:	00279713          	slli	a4,a5,0x2
204059f2:	204017b7          	lui	a5,0x20401
204059f6:	ea878793          	addi	a5,a5,-344 # 20400ea8 <__metal_driver_vtable_sifive_fe310_g000_pll+0x2c>
204059fa:	97ba                	add	a5,a5,a4
204059fc:	439c                	lw	a5,0(a5)
204059fe:	8782                	jr	a5
/home/khj/Desktop/hello_standalone/freedom-metal/src/drivers/sifive_gpio0.c:184
    case METAL_GPIO_INT_RISING:
        __METAL_ACCESS_ONCE(
            (__metal_io_u32 *)(base + METAL_SIFIVE_GPIO0_RISE_IP)) |= source;
20405a00:	fec42783          	lw	a5,-20(s0)
20405a04:	07f1                	addi	a5,a5,28
20405a06:	4398                	lw	a4,0(a5)
20405a08:	fd842783          	lw	a5,-40(s0)
20405a0c:	fec42683          	lw	a3,-20(s0)
20405a10:	06f1                	addi	a3,a3,28
20405a12:	8fd9                	or	a5,a5,a4
20405a14:	c29c                	sw	a5,0(a3)
/home/khj/Desktop/hello_standalone/freedom-metal/src/drivers/sifive_gpio0.c:185
        break;
20405a16:	a215                	j	20405b3a <__metal_driver_sifive_gpio0_clear_int+0x17c>
/home/khj/Desktop/hello_standalone/freedom-metal/src/drivers/sifive_gpio0.c:188
    case METAL_GPIO_INT_FALLING:
        __METAL_ACCESS_ONCE(
            (__metal_io_u32 *)(base + METAL_SIFIVE_GPIO0_FALL_IP)) |= source;
20405a18:	fec42783          	lw	a5,-20(s0)
20405a1c:	02478793          	addi	a5,a5,36
20405a20:	4398                	lw	a4,0(a5)
20405a22:	fd842783          	lw	a5,-40(s0)
20405a26:	fec42683          	lw	a3,-20(s0)
20405a2a:	02468693          	addi	a3,a3,36
20405a2e:	8fd9                	or	a5,a5,a4
20405a30:	c29c                	sw	a5,0(a3)
/home/khj/Desktop/hello_standalone/freedom-metal/src/drivers/sifive_gpio0.c:189
        break;
20405a32:	a221                	j	20405b3a <__metal_driver_sifive_gpio0_clear_int+0x17c>
/home/khj/Desktop/hello_standalone/freedom-metal/src/drivers/sifive_gpio0.c:192
    case METAL_GPIO_INT_BOTH_EDGE:
        __METAL_ACCESS_ONCE(
            (__metal_io_u32 *)(base + METAL_SIFIVE_GPIO0_RISE_IP)) |= source;
20405a34:	fec42783          	lw	a5,-20(s0)
20405a38:	07f1                	addi	a5,a5,28
20405a3a:	4398                	lw	a4,0(a5)
20405a3c:	fd842783          	lw	a5,-40(s0)
20405a40:	fec42683          	lw	a3,-20(s0)
20405a44:	06f1                	addi	a3,a3,28
20405a46:	8fd9                	or	a5,a5,a4
20405a48:	c29c                	sw	a5,0(a3)
/home/khj/Desktop/hello_standalone/freedom-metal/src/drivers/sifive_gpio0.c:194
        __METAL_ACCESS_ONCE(
            (__metal_io_u32 *)(base + METAL_SIFIVE_GPIO0_FALL_IP)) |= source;
20405a4a:	fec42783          	lw	a5,-20(s0)
20405a4e:	02478793          	addi	a5,a5,36
20405a52:	4398                	lw	a4,0(a5)
20405a54:	fd842783          	lw	a5,-40(s0)
20405a58:	fec42683          	lw	a3,-20(s0)
20405a5c:	02468693          	addi	a3,a3,36
20405a60:	8fd9                	or	a5,a5,a4
20405a62:	c29c                	sw	a5,0(a3)
/home/khj/Desktop/hello_standalone/freedom-metal/src/drivers/sifive_gpio0.c:195
        break;
20405a64:	a8d9                	j	20405b3a <__metal_driver_sifive_gpio0_clear_int+0x17c>
/home/khj/Desktop/hello_standalone/freedom-metal/src/drivers/sifive_gpio0.c:198
    case METAL_GPIO_INT_HIGH:
        __METAL_ACCESS_ONCE(
            (__metal_io_u32 *)(base + METAL_SIFIVE_GPIO0_HIGH_IP)) |= source;
20405a66:	fec42783          	lw	a5,-20(s0)
20405a6a:	02c78793          	addi	a5,a5,44
20405a6e:	4398                	lw	a4,0(a5)
20405a70:	fd842783          	lw	a5,-40(s0)
20405a74:	fec42683          	lw	a3,-20(s0)
20405a78:	02c68693          	addi	a3,a3,44
20405a7c:	8fd9                	or	a5,a5,a4
20405a7e:	c29c                	sw	a5,0(a3)
/home/khj/Desktop/hello_standalone/freedom-metal/src/drivers/sifive_gpio0.c:199
        break;
20405a80:	a86d                	j	20405b3a <__metal_driver_sifive_gpio0_clear_int+0x17c>
/home/khj/Desktop/hello_standalone/freedom-metal/src/drivers/sifive_gpio0.c:202
    case METAL_GPIO_INT_LOW:
        __METAL_ACCESS_ONCE(
            (__metal_io_u32 *)(base + METAL_SIFIVE_GPIO0_LOW_IP)) |= source;
20405a82:	fec42783          	lw	a5,-20(s0)
20405a86:	03478793          	addi	a5,a5,52
20405a8a:	4398                	lw	a4,0(a5)
20405a8c:	fd842783          	lw	a5,-40(s0)
20405a90:	fec42683          	lw	a3,-20(s0)
20405a94:	03468693          	addi	a3,a3,52
20405a98:	8fd9                	or	a5,a5,a4
20405a9a:	c29c                	sw	a5,0(a3)
/home/khj/Desktop/hello_standalone/freedom-metal/src/drivers/sifive_gpio0.c:203
        break;
20405a9c:	a879                	j	20405b3a <__metal_driver_sifive_gpio0_clear_int+0x17c>
/home/khj/Desktop/hello_standalone/freedom-metal/src/drivers/sifive_gpio0.c:206
    case METAL_GPIO_INT_BOTH_LEVEL:
        __METAL_ACCESS_ONCE(
            (__metal_io_u32 *)(base + METAL_SIFIVE_GPIO0_HIGH_IP)) |= source;
20405a9e:	fec42783          	lw	a5,-20(s0)
20405aa2:	02c78793          	addi	a5,a5,44
20405aa6:	4398                	lw	a4,0(a5)
20405aa8:	fd842783          	lw	a5,-40(s0)
20405aac:	fec42683          	lw	a3,-20(s0)
20405ab0:	02c68693          	addi	a3,a3,44
20405ab4:	8fd9                	or	a5,a5,a4
20405ab6:	c29c                	sw	a5,0(a3)
/home/khj/Desktop/hello_standalone/freedom-metal/src/drivers/sifive_gpio0.c:208
        __METAL_ACCESS_ONCE(
            (__metal_io_u32 *)(base + METAL_SIFIVE_GPIO0_LOW_IP)) |= source;
20405ab8:	fec42783          	lw	a5,-20(s0)
20405abc:	03478793          	addi	a5,a5,52
20405ac0:	4398                	lw	a4,0(a5)
20405ac2:	fd842783          	lw	a5,-40(s0)
20405ac6:	fec42683          	lw	a3,-20(s0)
20405aca:	03468693          	addi	a3,a3,52
20405ace:	8fd9                	or	a5,a5,a4
20405ad0:	c29c                	sw	a5,0(a3)
/home/khj/Desktop/hello_standalone/freedom-metal/src/drivers/sifive_gpio0.c:209
        break;
20405ad2:	a0a5                	j	20405b3a <__metal_driver_sifive_gpio0_clear_int+0x17c>
/home/khj/Desktop/hello_standalone/freedom-metal/src/drivers/sifive_gpio0.c:212
    case METAL_GPIO_INT_MAX:
        __METAL_ACCESS_ONCE(
            (__metal_io_u32 *)(base + METAL_SIFIVE_GPIO0_RISE_IP)) |= source;
20405ad4:	fec42783          	lw	a5,-20(s0)
20405ad8:	07f1                	addi	a5,a5,28
20405ada:	4398                	lw	a4,0(a5)
20405adc:	fd842783          	lw	a5,-40(s0)
20405ae0:	fec42683          	lw	a3,-20(s0)
20405ae4:	06f1                	addi	a3,a3,28
20405ae6:	8fd9                	or	a5,a5,a4
20405ae8:	c29c                	sw	a5,0(a3)
/home/khj/Desktop/hello_standalone/freedom-metal/src/drivers/sifive_gpio0.c:214
        __METAL_ACCESS_ONCE(
            (__metal_io_u32 *)(base + METAL_SIFIVE_GPIO0_FALL_IP)) |= source;
20405aea:	fec42783          	lw	a5,-20(s0)
20405aee:	02478793          	addi	a5,a5,36
20405af2:	4398                	lw	a4,0(a5)
20405af4:	fd842783          	lw	a5,-40(s0)
20405af8:	fec42683          	lw	a3,-20(s0)
20405afc:	02468693          	addi	a3,a3,36
20405b00:	8fd9                	or	a5,a5,a4
20405b02:	c29c                	sw	a5,0(a3)
/home/khj/Desktop/hello_standalone/freedom-metal/src/drivers/sifive_gpio0.c:216
        __METAL_ACCESS_ONCE(
            (__metal_io_u32 *)(base + METAL_SIFIVE_GPIO0_HIGH_IP)) |= source;
20405b04:	fec42783          	lw	a5,-20(s0)
20405b08:	02c78793          	addi	a5,a5,44
20405b0c:	4398                	lw	a4,0(a5)
20405b0e:	fd842783          	lw	a5,-40(s0)
20405b12:	fec42683          	lw	a3,-20(s0)
20405b16:	02c68693          	addi	a3,a3,44
20405b1a:	8fd9                	or	a5,a5,a4
20405b1c:	c29c                	sw	a5,0(a3)
/home/khj/Desktop/hello_standalone/freedom-metal/src/drivers/sifive_gpio0.c:218
        __METAL_ACCESS_ONCE(
            (__metal_io_u32 *)(base + METAL_SIFIVE_GPIO0_LOW_IP)) |= source;
20405b1e:	fec42783          	lw	a5,-20(s0)
20405b22:	03478793          	addi	a5,a5,52
20405b26:	4398                	lw	a4,0(a5)
20405b28:	fd842783          	lw	a5,-40(s0)
20405b2c:	fec42683          	lw	a3,-20(s0)
20405b30:	03468693          	addi	a3,a3,52
20405b34:	8fd9                	or	a5,a5,a4
20405b36:	c29c                	sw	a5,0(a3)
/home/khj/Desktop/hello_standalone/freedom-metal/src/drivers/sifive_gpio0.c:219
        break;
20405b38:	0001                	nop
/home/khj/Desktop/hello_standalone/freedom-metal/src/drivers/sifive_gpio0.c:221
    }
    return 0;
20405b3a:	4781                	li	a5,0
/home/khj/Desktop/hello_standalone/freedom-metal/src/drivers/sifive_gpio0.c:222
}
20405b3c:	853e                	mv	a0,a5
20405b3e:	50b2                	lw	ra,44(sp)
20405b40:	5422                	lw	s0,40(sp)
20405b42:	6145                	addi	sp,sp,48
20405b44:	8082                	ret

20405b46 <__metal_driver_gpio_interrupt_controller>:
__metal_driver_gpio_interrupt_controller():
/home/khj/Desktop/hello_standalone/freedom-metal/src/drivers/sifive_gpio0.c:225

struct metal_interrupt *
__metal_driver_gpio_interrupt_controller(struct metal_gpio *gpio) {
20405b46:	1101                	addi	sp,sp,-32
20405b48:	ce06                	sw	ra,28(sp)
20405b4a:	cc22                	sw	s0,24(sp)
20405b4c:	1000                	addi	s0,sp,32
20405b4e:	fea42623          	sw	a0,-20(s0)
/home/khj/Desktop/hello_standalone/freedom-metal/src/drivers/sifive_gpio0.c:226
    return __metal_driver_sifive_gpio0_interrupt_parent(gpio);
20405b52:	fec42503          	lw	a0,-20(s0)
20405b56:	fb2ff0ef          	jal	ra,20405308 <__metal_driver_sifive_gpio0_interrupt_parent>
20405b5a:	87aa                	mv	a5,a0
/home/khj/Desktop/hello_standalone/freedom-metal/src/drivers/sifive_gpio0.c:227
}
20405b5c:	853e                	mv	a0,a5
20405b5e:	40f2                	lw	ra,28(sp)
20405b60:	4462                	lw	s0,24(sp)
20405b62:	6105                	addi	sp,sp,32
20405b64:	8082                	ret

20405b66 <__metal_driver_gpio_get_interrupt_id>:
__metal_driver_gpio_get_interrupt_id():
/home/khj/Desktop/hello_standalone/freedom-metal/src/drivers/sifive_gpio0.c:229

int __metal_driver_gpio_get_interrupt_id(struct metal_gpio *gpio, int pin) {
20405b66:	7179                	addi	sp,sp,-48
20405b68:	d606                	sw	ra,44(sp)
20405b6a:	d422                	sw	s0,40(sp)
20405b6c:	1800                	addi	s0,sp,48
20405b6e:	fca42e23          	sw	a0,-36(s0)
20405b72:	fcb42c23          	sw	a1,-40(s0)
/home/khj/Desktop/hello_standalone/freedom-metal/src/drivers/sifive_gpio0.c:231
    int irq;
    irq = __metal_driver_sifive_gpio0_interrupt_lines(gpio, pin);
20405b76:	fd842583          	lw	a1,-40(s0)
20405b7a:	fdc42503          	lw	a0,-36(s0)
20405b7e:	fb4ff0ef          	jal	ra,20405332 <__metal_driver_sifive_gpio0_interrupt_lines>
20405b82:	fea42623          	sw	a0,-20(s0)
/home/khj/Desktop/hello_standalone/freedom-metal/src/drivers/sifive_gpio0.c:232
    return irq;
20405b86:	fec42783          	lw	a5,-20(s0)
/home/khj/Desktop/hello_standalone/freedom-metal/src/drivers/sifive_gpio0.c:233
}
20405b8a:	853e                	mv	a0,a5
20405b8c:	50b2                	lw	ra,44(sp)
20405b8e:	5422                	lw	s0,40(sp)
20405b90:	6145                	addi	sp,sp,48
20405b92:	8082                	ret

20405b94 <__metal_driver_sifive_test0_base>:
__metal_driver_sifive_test0_base():
/home/khj/Desktop/hello_standalone/bsp/build/debug/./metal/machine.h:864
{
20405b94:	1101                	addi	sp,sp,-32
20405b96:	ce22                	sw	s0,28(sp)
20405b98:	1000                	addi	s0,sp,32
20405b9a:	fea42623          	sw	a0,-20(s0)
/home/khj/Desktop/hello_standalone/bsp/build/debug/./metal/machine.h:865
	if ((uintptr_t)sd == (uintptr_t)&__metal_dt_test_100000) {
20405b9e:	fec42703          	lw	a4,-20(s0)
20405ba2:	82418793          	addi	a5,gp,-2012 # 800007c4 <__metal_dt_test_100000>
20405ba6:	00f71563          	bne	a4,a5,20405bb0 <__metal_driver_sifive_test0_base+0x1c>
/home/khj/Desktop/hello_standalone/bsp/build/debug/./metal/machine.h:866
		return METAL_SIFIVE_TEST0_100000_BASE_ADDRESS;
20405baa:	001007b7          	lui	a5,0x100
20405bae:	a011                	j	20405bb2 <__metal_driver_sifive_test0_base+0x1e>
/home/khj/Desktop/hello_standalone/bsp/build/debug/./metal/machine.h:869
		return 0;
20405bb0:	4781                	li	a5,0
/home/khj/Desktop/hello_standalone/bsp/build/debug/./metal/machine.h:871
}
20405bb2:	853e                	mv	a0,a5
20405bb4:	4472                	lw	s0,28(sp)
20405bb6:	6105                	addi	sp,sp,32
20405bb8:	8082                	ret

20405bba <__metal_driver_sifive_test0_exit>:
__metal_driver_sifive_test0_exit():
/home/khj/Desktop/hello_standalone/freedom-metal/src/drivers/sifive_test0.c:18
#include <metal/io.h>

void __metal_driver_sifive_test0_exit(const struct __metal_shutdown *sd,
                                      int code) __attribute__((noreturn));
void __metal_driver_sifive_test0_exit(const struct __metal_shutdown *sd,
                                      int code) {
20405bba:	7179                	addi	sp,sp,-48
20405bbc:	d606                	sw	ra,44(sp)
20405bbe:	d422                	sw	s0,40(sp)
20405bc0:	1800                	addi	s0,sp,48
20405bc2:	fca42e23          	sw	a0,-36(s0)
20405bc6:	fcb42c23          	sw	a1,-40(s0)
/home/khj/Desktop/hello_standalone/freedom-metal/src/drivers/sifive_test0.c:19
    long base = __metal_driver_sifive_test0_base(sd);
20405bca:	fdc42503          	lw	a0,-36(s0)
20405bce:	37d9                	jal	20405b94 <__metal_driver_sifive_test0_base>
20405bd0:	87aa                	mv	a5,a0
20405bd2:	fef42623          	sw	a5,-20(s0)
/home/khj/Desktop/hello_standalone/freedom-metal/src/drivers/sifive_test0.c:20
    uint32_t out = (code << 16) + (code == 0 ? 0x5555 : 0x3333);
20405bd6:	fd842783          	lw	a5,-40(s0)
20405bda:	01079713          	slli	a4,a5,0x10
20405bde:	fd842783          	lw	a5,-40(s0)
20405be2:	e789                	bnez	a5,20405bec <__metal_driver_sifive_test0_exit+0x32>
/home/khj/Desktop/hello_standalone/freedom-metal/src/drivers/sifive_test0.c:20 (discriminator 1)
20405be4:	6795                	lui	a5,0x5
20405be6:	55578793          	addi	a5,a5,1365 # 5555 <__heap_size+0x4d55>
20405bea:	a021                	j	20405bf2 <__metal_driver_sifive_test0_exit+0x38>
/home/khj/Desktop/hello_standalone/freedom-metal/src/drivers/sifive_test0.c:20 (discriminator 2)
20405bec:	678d                	lui	a5,0x3
20405bee:	33378793          	addi	a5,a5,819 # 3333 <__heap_size+0x2b33>
/home/khj/Desktop/hello_standalone/freedom-metal/src/drivers/sifive_test0.c:20 (discriminator 4)
20405bf2:	97ba                	add	a5,a5,a4
20405bf4:	fef42423          	sw	a5,-24(s0)
/home/khj/Desktop/hello_standalone/freedom-metal/src/drivers/sifive_test0.c:22 (discriminator 1)
    while (1) {
        __METAL_ACCESS_ONCE((
20405bf8:	fec42783          	lw	a5,-20(s0)
/home/khj/Desktop/hello_standalone/freedom-metal/src/drivers/sifive_test0.c:23 (discriminator 1)
            __metal_io_u32 *)(base + METAL_SIFIVE_TEST0_FINISHER_OFFSET)) = out;
20405bfc:	fe842703          	lw	a4,-24(s0)
20405c00:	c398                	sw	a4,0(a5)
20405c02:	bfdd                	j	20405bf8 <__metal_driver_sifive_test0_exit+0x3e>

20405c04 <__metal_driver_sifive_uart0_control_base>:
__metal_driver_sifive_uart0_control_base():
/home/khj/Desktop/hello_standalone/bsp/build/debug/./metal/machine.h:889
{
20405c04:	1101                	addi	sp,sp,-32
20405c06:	ce22                	sw	s0,28(sp)
20405c08:	1000                	addi	s0,sp,32
20405c0a:	fea42623          	sw	a0,-20(s0)
/home/khj/Desktop/hello_standalone/bsp/build/debug/./metal/machine.h:890
	if ((uintptr_t)uart == (uintptr_t)&__metal_dt_serial_10013000) {
20405c0e:	fec42703          	lw	a4,-20(s0)
20405c12:	800007b7          	lui	a5,0x80000
20405c16:	75878793          	addi	a5,a5,1880 # 80000758 <metal_dtim_0_memory_end+0xffff0758>
20405c1a:	00f71563          	bne	a4,a5,20405c24 <__metal_driver_sifive_uart0_control_base+0x20>
/home/khj/Desktop/hello_standalone/bsp/build/debug/./metal/machine.h:891
		return METAL_SIFIVE_UART0_10013000_BASE_ADDRESS;
20405c1e:	100137b7          	lui	a5,0x10013
20405c22:	a011                	j	20405c26 <__metal_driver_sifive_uart0_control_base+0x22>
/home/khj/Desktop/hello_standalone/bsp/build/debug/./metal/machine.h:894
		return 0;
20405c24:	4781                	li	a5,0
/home/khj/Desktop/hello_standalone/bsp/build/debug/./metal/machine.h:896
}
20405c26:	853e                	mv	a0,a5
20405c28:	4472                	lw	s0,28(sp)
20405c2a:	6105                	addi	sp,sp,32
20405c2c:	8082                	ret

20405c2e <__metal_driver_sifive_uart0_interrupt_parent>:
__metal_driver_sifive_uart0_interrupt_parent():
/home/khj/Desktop/hello_standalone/bsp/build/debug/./metal/machine.h:919
{
20405c2e:	1101                	addi	sp,sp,-32
20405c30:	ce22                	sw	s0,28(sp)
20405c32:	1000                	addi	s0,sp,32
20405c34:	fea42623          	sw	a0,-20(s0)
/home/khj/Desktop/hello_standalone/bsp/build/debug/./metal/machine.h:920
	if ((uintptr_t)uart == (uintptr_t)&__metal_dt_serial_10013000) {
20405c38:	fec42703          	lw	a4,-20(s0)
20405c3c:	800007b7          	lui	a5,0x80000
20405c40:	75878793          	addi	a5,a5,1880 # 80000758 <metal_dtim_0_memory_end+0xffff0758>
20405c44:	00f71763          	bne	a4,a5,20405c52 <__metal_driver_sifive_uart0_interrupt_parent+0x24>
/home/khj/Desktop/hello_standalone/bsp/build/debug/./metal/machine.h:921
		return (struct metal_interrupt *)&__metal_dt_interrupt_controller_c000000.controller;
20405c48:	800007b7          	lui	a5,0x80000
20405c4c:	45878793          	addi	a5,a5,1112 # 80000458 <metal_dtim_0_memory_end+0xffff0458>
20405c50:	a011                	j	20405c54 <__metal_driver_sifive_uart0_interrupt_parent+0x26>
/home/khj/Desktop/hello_standalone/bsp/build/debug/./metal/machine.h:924
		return 0;
20405c52:	4781                	li	a5,0
/home/khj/Desktop/hello_standalone/bsp/build/debug/./metal/machine.h:926
}
20405c54:	853e                	mv	a0,a5
20405c56:	4472                	lw	s0,28(sp)
20405c58:	6105                	addi	sp,sp,32
20405c5a:	8082                	ret

20405c5c <__metal_driver_sifive_uart0_interrupt_line>:
__metal_driver_sifive_uart0_interrupt_line():
/home/khj/Desktop/hello_standalone/bsp/build/debug/./metal/machine.h:929
{
20405c5c:	1101                	addi	sp,sp,-32
20405c5e:	ce22                	sw	s0,28(sp)
20405c60:	1000                	addi	s0,sp,32
20405c62:	fea42623          	sw	a0,-20(s0)
/home/khj/Desktop/hello_standalone/bsp/build/debug/./metal/machine.h:930
	if ((uintptr_t)uart == (uintptr_t)&__metal_dt_serial_10013000) {
20405c66:	fec42703          	lw	a4,-20(s0)
20405c6a:	800007b7          	lui	a5,0x80000
20405c6e:	75878793          	addi	a5,a5,1880 # 80000758 <metal_dtim_0_memory_end+0xffff0758>
20405c72:	00f71463          	bne	a4,a5,20405c7a <__metal_driver_sifive_uart0_interrupt_line+0x1e>
/home/khj/Desktop/hello_standalone/bsp/build/debug/./metal/machine.h:931
		return 5;
20405c76:	4795                	li	a5,5
20405c78:	a011                	j	20405c7c <__metal_driver_sifive_uart0_interrupt_line+0x20>
/home/khj/Desktop/hello_standalone/bsp/build/debug/./metal/machine.h:934
		return 0;
20405c7a:	4781                	li	a5,0
/home/khj/Desktop/hello_standalone/bsp/build/debug/./metal/machine.h:936
}
20405c7c:	853e                	mv	a0,a5
20405c7e:	4472                	lw	s0,28(sp)
20405c80:	6105                	addi	sp,sp,32
20405c82:	8082                	ret

20405c84 <__metal_driver_sifive_uart0_clock>:
__metal_driver_sifive_uart0_clock():
/home/khj/Desktop/hello_standalone/bsp/build/debug/./metal/machine.h:939
{
20405c84:	1101                	addi	sp,sp,-32
20405c86:	ce22                	sw	s0,28(sp)
20405c88:	1000                	addi	s0,sp,32
20405c8a:	fea42623          	sw	a0,-20(s0)
/home/khj/Desktop/hello_standalone/bsp/build/debug/./metal/machine.h:940
	if ((uintptr_t)uart == (uintptr_t)&__metal_dt_serial_10013000) {
20405c8e:	fec42703          	lw	a4,-20(s0)
20405c92:	800007b7          	lui	a5,0x80000
20405c96:	75878793          	addi	a5,a5,1880 # 80000758 <metal_dtim_0_memory_end+0xffff0758>
20405c9a:	00f71763          	bne	a4,a5,20405ca8 <__metal_driver_sifive_uart0_clock+0x24>
/home/khj/Desktop/hello_standalone/bsp/build/debug/./metal/machine.h:941
		return (struct metal_clock *)&__metal_dt_clock_4.clock;
20405c9e:	800007b7          	lui	a5,0x80000
20405ca2:	79078793          	addi	a5,a5,1936 # 80000790 <metal_dtim_0_memory_end+0xffff0790>
20405ca6:	a011                	j	20405caa <__metal_driver_sifive_uart0_clock+0x26>
/home/khj/Desktop/hello_standalone/bsp/build/debug/./metal/machine.h:944
		return 0;
20405ca8:	4781                	li	a5,0
/home/khj/Desktop/hello_standalone/bsp/build/debug/./metal/machine.h:946
}
20405caa:	853e                	mv	a0,a5
20405cac:	4472                	lw	s0,28(sp)
20405cae:	6105                	addi	sp,sp,32
20405cb0:	8082                	ret

20405cb2 <__metal_driver_sifive_uart0_pinmux>:
__metal_driver_sifive_uart0_pinmux():
/home/khj/Desktop/hello_standalone/bsp/build/debug/./metal/machine.h:949
{
20405cb2:	1101                	addi	sp,sp,-32
20405cb4:	ce22                	sw	s0,28(sp)
20405cb6:	1000                	addi	s0,sp,32
20405cb8:	fea42623          	sw	a0,-20(s0)
/home/khj/Desktop/hello_standalone/bsp/build/debug/./metal/machine.h:950
	if ((uintptr_t)uart == (uintptr_t)&__metal_dt_serial_10013000) {
20405cbc:	fec42703          	lw	a4,-20(s0)
20405cc0:	800007b7          	lui	a5,0x80000
20405cc4:	75878793          	addi	a5,a5,1880 # 80000758 <metal_dtim_0_memory_end+0xffff0758>
20405cc8:	00f71563          	bne	a4,a5,20405cd2 <__metal_driver_sifive_uart0_pinmux+0x20>
/home/khj/Desktop/hello_standalone/bsp/build/debug/./metal/machine.h:951
		return (struct __metal_driver_sifive_gpio0 *)&__metal_dt_gpio_10012000;
20405ccc:	82018793          	addi	a5,gp,-2016 # 800007c0 <__metal_dt_gpio_10012000>
20405cd0:	a011                	j	20405cd4 <__metal_driver_sifive_uart0_pinmux+0x22>
/home/khj/Desktop/hello_standalone/bsp/build/debug/./metal/machine.h:954
		return 0;
20405cd2:	4781                	li	a5,0
/home/khj/Desktop/hello_standalone/bsp/build/debug/./metal/machine.h:956
}
20405cd4:	853e                	mv	a0,a5
20405cd6:	4472                	lw	s0,28(sp)
20405cd8:	6105                	addi	sp,sp,32
20405cda:	8082                	ret

20405cdc <__metal_driver_sifive_uart0_pinmux_output_selector>:
__metal_driver_sifive_uart0_pinmux_output_selector():
/home/khj/Desktop/hello_standalone/bsp/build/debug/./metal/machine.h:959
{
20405cdc:	1101                	addi	sp,sp,-32
20405cde:	ce22                	sw	s0,28(sp)
20405ce0:	1000                	addi	s0,sp,32
20405ce2:	fea42623          	sw	a0,-20(s0)
/home/khj/Desktop/hello_standalone/bsp/build/debug/./metal/machine.h:960
	if ((uintptr_t)uart == (uintptr_t)&__metal_dt_serial_10013000) {
20405ce6:	fec42703          	lw	a4,-20(s0)
20405cea:	800007b7          	lui	a5,0x80000
20405cee:	75878793          	addi	a5,a5,1880 # 80000758 <metal_dtim_0_memory_end+0xffff0758>
20405cf2:	00f71463          	bne	a4,a5,20405cfa <__metal_driver_sifive_uart0_pinmux_output_selector+0x1e>
/home/khj/Desktop/hello_standalone/bsp/build/debug/./metal/machine.h:961
		return 0;
20405cf6:	4781                	li	a5,0
20405cf8:	a011                	j	20405cfc <__metal_driver_sifive_uart0_pinmux_output_selector+0x20>
/home/khj/Desktop/hello_standalone/bsp/build/debug/./metal/machine.h:964
		return 0;
20405cfa:	4781                	li	a5,0
/home/khj/Desktop/hello_standalone/bsp/build/debug/./metal/machine.h:966
}
20405cfc:	853e                	mv	a0,a5
20405cfe:	4472                	lw	s0,28(sp)
20405d00:	6105                	addi	sp,sp,32
20405d02:	8082                	ret

20405d04 <__metal_driver_sifive_uart0_pinmux_source_selector>:
__metal_driver_sifive_uart0_pinmux_source_selector():
/home/khj/Desktop/hello_standalone/bsp/build/debug/./metal/machine.h:969
{
20405d04:	1101                	addi	sp,sp,-32
20405d06:	ce22                	sw	s0,28(sp)
20405d08:	1000                	addi	s0,sp,32
20405d0a:	fea42623          	sw	a0,-20(s0)
/home/khj/Desktop/hello_standalone/bsp/build/debug/./metal/machine.h:970
	if ((uintptr_t)uart == (uintptr_t)&__metal_dt_serial_10013000) {
20405d0e:	fec42703          	lw	a4,-20(s0)
20405d12:	800007b7          	lui	a5,0x80000
20405d16:	75878793          	addi	a5,a5,1880 # 80000758 <metal_dtim_0_memory_end+0xffff0758>
20405d1a:	00f71563          	bne	a4,a5,20405d24 <__metal_driver_sifive_uart0_pinmux_source_selector+0x20>
/home/khj/Desktop/hello_standalone/bsp/build/debug/./metal/machine.h:971
		return 196608;
20405d1e:	000307b7          	lui	a5,0x30
20405d22:	a011                	j	20405d26 <__metal_driver_sifive_uart0_pinmux_source_selector+0x22>
/home/khj/Desktop/hello_standalone/bsp/build/debug/./metal/machine.h:974
		return 0;
20405d24:	4781                	li	a5,0
/home/khj/Desktop/hello_standalone/bsp/build/debug/./metal/machine.h:976
}
20405d26:	853e                	mv	a0,a5
20405d28:	4472                	lw	s0,28(sp)
20405d2a:	6105                	addi	sp,sp,32
20405d2c:	8082                	ret

20405d2e <__metal_driver_sifive_uart0_interrupt_controller>:
__metal_driver_sifive_uart0_interrupt_controller():
/home/khj/Desktop/hello_standalone/freedom-metal/src/drivers/sifive_uart0.c:37
    (__METAL_ACCESS_ONCE((__metal_io_u8 *)UART_REG(offset)))
#define UART_REGW(offset)                                                      \
    (__METAL_ACCESS_ONCE((__metal_io_u32 *)UART_REG(offset)))

struct metal_interrupt *
__metal_driver_sifive_uart0_interrupt_controller(struct metal_uart *uart) {
20405d2e:	1101                	addi	sp,sp,-32
20405d30:	ce06                	sw	ra,28(sp)
20405d32:	cc22                	sw	s0,24(sp)
20405d34:	1000                	addi	s0,sp,32
20405d36:	fea42623          	sw	a0,-20(s0)
/home/khj/Desktop/hello_standalone/freedom-metal/src/drivers/sifive_uart0.c:38
    return __metal_driver_sifive_uart0_interrupt_parent(uart);
20405d3a:	fec42503          	lw	a0,-20(s0)
20405d3e:	3dc5                	jal	20405c2e <__metal_driver_sifive_uart0_interrupt_parent>
20405d40:	87aa                	mv	a5,a0
/home/khj/Desktop/hello_standalone/freedom-metal/src/drivers/sifive_uart0.c:39
}
20405d42:	853e                	mv	a0,a5
20405d44:	40f2                	lw	ra,28(sp)
20405d46:	4462                	lw	s0,24(sp)
20405d48:	6105                	addi	sp,sp,32
20405d4a:	8082                	ret

20405d4c <__metal_driver_sifive_uart0_get_interrupt_id>:
__metal_driver_sifive_uart0_get_interrupt_id():
/home/khj/Desktop/hello_standalone/freedom-metal/src/drivers/sifive_uart0.c:41

int __metal_driver_sifive_uart0_get_interrupt_id(struct metal_uart *uart) {
20405d4c:	1101                	addi	sp,sp,-32
20405d4e:	ce06                	sw	ra,28(sp)
20405d50:	cc22                	sw	s0,24(sp)
20405d52:	1000                	addi	s0,sp,32
20405d54:	fea42623          	sw	a0,-20(s0)
/home/khj/Desktop/hello_standalone/freedom-metal/src/drivers/sifive_uart0.c:42
    return __metal_driver_sifive_uart0_interrupt_line(uart);
20405d58:	fec42503          	lw	a0,-20(s0)
20405d5c:	3701                	jal	20405c5c <__metal_driver_sifive_uart0_interrupt_line>
20405d5e:	87aa                	mv	a5,a0
/home/khj/Desktop/hello_standalone/freedom-metal/src/drivers/sifive_uart0.c:43
}
20405d60:	853e                	mv	a0,a5
20405d62:	40f2                	lw	ra,28(sp)
20405d64:	4462                	lw	s0,24(sp)
20405d66:	6105                	addi	sp,sp,32
20405d68:	8082                	ret

20405d6a <__metal_driver_sifive_uart0_tx_interrupt_enable>:
__metal_driver_sifive_uart0_tx_interrupt_enable():
/home/khj/Desktop/hello_standalone/freedom-metal/src/drivers/sifive_uart0.c:45

int __metal_driver_sifive_uart0_tx_interrupt_enable(struct metal_uart *uart) {
20405d6a:	7179                	addi	sp,sp,-48
20405d6c:	d606                	sw	ra,44(sp)
20405d6e:	d422                	sw	s0,40(sp)
20405d70:	1800                	addi	s0,sp,48
20405d72:	fca42e23          	sw	a0,-36(s0)
/home/khj/Desktop/hello_standalone/freedom-metal/src/drivers/sifive_uart0.c:46
    long control_base = __metal_driver_sifive_uart0_control_base(uart);
20405d76:	fdc42503          	lw	a0,-36(s0)
20405d7a:	3569                	jal	20405c04 <__metal_driver_sifive_uart0_control_base>
20405d7c:	87aa                	mv	a5,a0
20405d7e:	fef42623          	sw	a5,-20(s0)
/home/khj/Desktop/hello_standalone/freedom-metal/src/drivers/sifive_uart0.c:48

    UART_REGW(METAL_SIFIVE_UART0_IE) |= UART_TXWM;
20405d82:	fec42783          	lw	a5,-20(s0)
20405d86:	07c1                	addi	a5,a5,16
20405d88:	439c                	lw	a5,0(a5)
20405d8a:	fec42703          	lw	a4,-20(s0)
20405d8e:	0741                	addi	a4,a4,16
20405d90:	0017e793          	ori	a5,a5,1
20405d94:	c31c                	sw	a5,0(a4)
/home/khj/Desktop/hello_standalone/freedom-metal/src/drivers/sifive_uart0.c:49
    return 0;
20405d96:	4781                	li	a5,0
/home/khj/Desktop/hello_standalone/freedom-metal/src/drivers/sifive_uart0.c:50
}
20405d98:	853e                	mv	a0,a5
20405d9a:	50b2                	lw	ra,44(sp)
20405d9c:	5422                	lw	s0,40(sp)
20405d9e:	6145                	addi	sp,sp,48
20405da0:	8082                	ret

20405da2 <__metal_driver_sifive_uart0_tx_interrupt_disable>:
__metal_driver_sifive_uart0_tx_interrupt_disable():
/home/khj/Desktop/hello_standalone/freedom-metal/src/drivers/sifive_uart0.c:52

int __metal_driver_sifive_uart0_tx_interrupt_disable(struct metal_uart *uart) {
20405da2:	7179                	addi	sp,sp,-48
20405da4:	d606                	sw	ra,44(sp)
20405da6:	d422                	sw	s0,40(sp)
20405da8:	1800                	addi	s0,sp,48
20405daa:	fca42e23          	sw	a0,-36(s0)
/home/khj/Desktop/hello_standalone/freedom-metal/src/drivers/sifive_uart0.c:53
    long control_base = __metal_driver_sifive_uart0_control_base(uart);
20405dae:	fdc42503          	lw	a0,-36(s0)
20405db2:	3d89                	jal	20405c04 <__metal_driver_sifive_uart0_control_base>
20405db4:	87aa                	mv	a5,a0
20405db6:	fef42623          	sw	a5,-20(s0)
/home/khj/Desktop/hello_standalone/freedom-metal/src/drivers/sifive_uart0.c:55

    UART_REGW(METAL_SIFIVE_UART0_IE) &= ~UART_TXWM;
20405dba:	fec42783          	lw	a5,-20(s0)
20405dbe:	07c1                	addi	a5,a5,16
20405dc0:	439c                	lw	a5,0(a5)
20405dc2:	fec42703          	lw	a4,-20(s0)
20405dc6:	0741                	addi	a4,a4,16
20405dc8:	9bf9                	andi	a5,a5,-2
20405dca:	c31c                	sw	a5,0(a4)
/home/khj/Desktop/hello_standalone/freedom-metal/src/drivers/sifive_uart0.c:56
    return 0;
20405dcc:	4781                	li	a5,0
/home/khj/Desktop/hello_standalone/freedom-metal/src/drivers/sifive_uart0.c:57
}
20405dce:	853e                	mv	a0,a5
20405dd0:	50b2                	lw	ra,44(sp)
20405dd2:	5422                	lw	s0,40(sp)
20405dd4:	6145                	addi	sp,sp,48
20405dd6:	8082                	ret

20405dd8 <__metal_driver_sifive_uart0_rx_interrupt_enable>:
__metal_driver_sifive_uart0_rx_interrupt_enable():
/home/khj/Desktop/hello_standalone/freedom-metal/src/drivers/sifive_uart0.c:59

int __metal_driver_sifive_uart0_rx_interrupt_enable(struct metal_uart *uart) {
20405dd8:	7179                	addi	sp,sp,-48
20405dda:	d606                	sw	ra,44(sp)
20405ddc:	d422                	sw	s0,40(sp)
20405dde:	1800                	addi	s0,sp,48
20405de0:	fca42e23          	sw	a0,-36(s0)
/home/khj/Desktop/hello_standalone/freedom-metal/src/drivers/sifive_uart0.c:60
    long control_base = __metal_driver_sifive_uart0_control_base(uart);
20405de4:	fdc42503          	lw	a0,-36(s0)
20405de8:	e1dff0ef          	jal	ra,20405c04 <__metal_driver_sifive_uart0_control_base>
20405dec:	87aa                	mv	a5,a0
20405dee:	fef42623          	sw	a5,-20(s0)
/home/khj/Desktop/hello_standalone/freedom-metal/src/drivers/sifive_uart0.c:62

    UART_REGW(METAL_SIFIVE_UART0_IE) |= UART_RXWM;
20405df2:	fec42783          	lw	a5,-20(s0)
20405df6:	07c1                	addi	a5,a5,16
20405df8:	439c                	lw	a5,0(a5)
20405dfa:	fec42703          	lw	a4,-20(s0)
20405dfe:	0741                	addi	a4,a4,16
20405e00:	0027e793          	ori	a5,a5,2
20405e04:	c31c                	sw	a5,0(a4)
/home/khj/Desktop/hello_standalone/freedom-metal/src/drivers/sifive_uart0.c:63
    return 0;
20405e06:	4781                	li	a5,0
/home/khj/Desktop/hello_standalone/freedom-metal/src/drivers/sifive_uart0.c:64
}
20405e08:	853e                	mv	a0,a5
20405e0a:	50b2                	lw	ra,44(sp)
20405e0c:	5422                	lw	s0,40(sp)
20405e0e:	6145                	addi	sp,sp,48
20405e10:	8082                	ret

20405e12 <__metal_driver_sifive_uart0_rx_interrupt_disable>:
__metal_driver_sifive_uart0_rx_interrupt_disable():
/home/khj/Desktop/hello_standalone/freedom-metal/src/drivers/sifive_uart0.c:66

int __metal_driver_sifive_uart0_rx_interrupt_disable(struct metal_uart *uart) {
20405e12:	7179                	addi	sp,sp,-48
20405e14:	d606                	sw	ra,44(sp)
20405e16:	d422                	sw	s0,40(sp)
20405e18:	1800                	addi	s0,sp,48
20405e1a:	fca42e23          	sw	a0,-36(s0)
/home/khj/Desktop/hello_standalone/freedom-metal/src/drivers/sifive_uart0.c:67
    long control_base = __metal_driver_sifive_uart0_control_base(uart);
20405e1e:	fdc42503          	lw	a0,-36(s0)
20405e22:	de3ff0ef          	jal	ra,20405c04 <__metal_driver_sifive_uart0_control_base>
20405e26:	87aa                	mv	a5,a0
20405e28:	fef42623          	sw	a5,-20(s0)
/home/khj/Desktop/hello_standalone/freedom-metal/src/drivers/sifive_uart0.c:69

    UART_REGW(METAL_SIFIVE_UART0_IE) &= ~UART_RXWM;
20405e2c:	fec42783          	lw	a5,-20(s0)
20405e30:	07c1                	addi	a5,a5,16
20405e32:	439c                	lw	a5,0(a5)
20405e34:	fec42703          	lw	a4,-20(s0)
20405e38:	0741                	addi	a4,a4,16
20405e3a:	9bf5                	andi	a5,a5,-3
20405e3c:	c31c                	sw	a5,0(a4)
/home/khj/Desktop/hello_standalone/freedom-metal/src/drivers/sifive_uart0.c:70
    return 0;
20405e3e:	4781                	li	a5,0
/home/khj/Desktop/hello_standalone/freedom-metal/src/drivers/sifive_uart0.c:71
}
20405e40:	853e                	mv	a0,a5
20405e42:	50b2                	lw	ra,44(sp)
20405e44:	5422                	lw	s0,40(sp)
20405e46:	6145                	addi	sp,sp,48
20405e48:	8082                	ret

20405e4a <__metal_driver_sifive_uart0_txready>:
__metal_driver_sifive_uart0_txready():
/home/khj/Desktop/hello_standalone/freedom-metal/src/drivers/sifive_uart0.c:73

int __metal_driver_sifive_uart0_txready(struct metal_uart *uart) {
20405e4a:	7179                	addi	sp,sp,-48
20405e4c:	d606                	sw	ra,44(sp)
20405e4e:	d422                	sw	s0,40(sp)
20405e50:	1800                	addi	s0,sp,48
20405e52:	fca42e23          	sw	a0,-36(s0)
/home/khj/Desktop/hello_standalone/freedom-metal/src/drivers/sifive_uart0.c:74
    long control_base = __metal_driver_sifive_uart0_control_base(uart);
20405e56:	fdc42503          	lw	a0,-36(s0)
20405e5a:	dabff0ef          	jal	ra,20405c04 <__metal_driver_sifive_uart0_control_base>
20405e5e:	87aa                	mv	a5,a0
20405e60:	fef42623          	sw	a5,-20(s0)
/home/khj/Desktop/hello_standalone/freedom-metal/src/drivers/sifive_uart0.c:76

    return !!((UART_REGW(METAL_SIFIVE_UART0_TXDATA) & UART_TXFULL));
20405e64:	fec42783          	lw	a5,-20(s0)
20405e68:	439c                	lw	a5,0(a5)
20405e6a:	83fd                	srli	a5,a5,0x1f
20405e6c:	0ff7f793          	andi	a5,a5,255
/home/khj/Desktop/hello_standalone/freedom-metal/src/drivers/sifive_uart0.c:77
}
20405e70:	853e                	mv	a0,a5
20405e72:	50b2                	lw	ra,44(sp)
20405e74:	5422                	lw	s0,40(sp)
20405e76:	6145                	addi	sp,sp,48
20405e78:	8082                	ret

20405e7a <__metal_driver_sifive_uart0_set_tx_watermark>:
__metal_driver_sifive_uart0_set_tx_watermark():
/home/khj/Desktop/hello_standalone/freedom-metal/src/drivers/sifive_uart0.c:80

int __metal_driver_sifive_uart0_set_tx_watermark(struct metal_uart *uart,
                                                 size_t level) {
20405e7a:	7179                	addi	sp,sp,-48
20405e7c:	d606                	sw	ra,44(sp)
20405e7e:	d422                	sw	s0,40(sp)
20405e80:	1800                	addi	s0,sp,48
20405e82:	fca42e23          	sw	a0,-36(s0)
20405e86:	fcb42c23          	sw	a1,-40(s0)
/home/khj/Desktop/hello_standalone/freedom-metal/src/drivers/sifive_uart0.c:81
    long control_base = __metal_driver_sifive_uart0_control_base(uart);
20405e8a:	fdc42503          	lw	a0,-36(s0)
20405e8e:	d77ff0ef          	jal	ra,20405c04 <__metal_driver_sifive_uart0_control_base>
20405e92:	87aa                	mv	a5,a0
20405e94:	fef42623          	sw	a5,-20(s0)
/home/khj/Desktop/hello_standalone/freedom-metal/src/drivers/sifive_uart0.c:83

    UART_REGW(METAL_SIFIVE_UART0_TXCTRL) |= UART_TXCNT(level);
20405e98:	fec42783          	lw	a5,-20(s0)
20405e9c:	07a1                	addi	a5,a5,8
20405e9e:	4398                	lw	a4,0(a5)
20405ea0:	fd842783          	lw	a5,-40(s0)
20405ea4:	01079693          	slli	a3,a5,0x10
20405ea8:	000707b7          	lui	a5,0x70
20405eac:	8ff5                	and	a5,a5,a3
20405eae:	fec42683          	lw	a3,-20(s0)
20405eb2:	06a1                	addi	a3,a3,8
20405eb4:	8fd9                	or	a5,a5,a4
20405eb6:	c29c                	sw	a5,0(a3)
/home/khj/Desktop/hello_standalone/freedom-metal/src/drivers/sifive_uart0.c:84
    return 0;
20405eb8:	4781                	li	a5,0
/home/khj/Desktop/hello_standalone/freedom-metal/src/drivers/sifive_uart0.c:85
}
20405eba:	853e                	mv	a0,a5
20405ebc:	50b2                	lw	ra,44(sp)
20405ebe:	5422                	lw	s0,40(sp)
20405ec0:	6145                	addi	sp,sp,48
20405ec2:	8082                	ret

20405ec4 <__metal_driver_sifive_uart0_get_tx_watermark>:
__metal_driver_sifive_uart0_get_tx_watermark():
/home/khj/Desktop/hello_standalone/freedom-metal/src/drivers/sifive_uart0.c:87

size_t __metal_driver_sifive_uart0_get_tx_watermark(struct metal_uart *uart) {
20405ec4:	7179                	addi	sp,sp,-48
20405ec6:	d606                	sw	ra,44(sp)
20405ec8:	d422                	sw	s0,40(sp)
20405eca:	1800                	addi	s0,sp,48
20405ecc:	fca42e23          	sw	a0,-36(s0)
/home/khj/Desktop/hello_standalone/freedom-metal/src/drivers/sifive_uart0.c:88
    long control_base = __metal_driver_sifive_uart0_control_base(uart);
20405ed0:	fdc42503          	lw	a0,-36(s0)
20405ed4:	d31ff0ef          	jal	ra,20405c04 <__metal_driver_sifive_uart0_control_base>
20405ed8:	87aa                	mv	a5,a0
20405eda:	fef42623          	sw	a5,-20(s0)
/home/khj/Desktop/hello_standalone/freedom-metal/src/drivers/sifive_uart0.c:90

    return ((UART_REGW(METAL_SIFIVE_UART0_TXCTRL) >> 16) & 0x7);
20405ede:	fec42783          	lw	a5,-20(s0)
20405ee2:	07a1                	addi	a5,a5,8
20405ee4:	439c                	lw	a5,0(a5)
20405ee6:	83c1                	srli	a5,a5,0x10
20405ee8:	8b9d                	andi	a5,a5,7
/home/khj/Desktop/hello_standalone/freedom-metal/src/drivers/sifive_uart0.c:91
}
20405eea:	853e                	mv	a0,a5
20405eec:	50b2                	lw	ra,44(sp)
20405eee:	5422                	lw	s0,40(sp)
20405ef0:	6145                	addi	sp,sp,48
20405ef2:	8082                	ret

20405ef4 <__metal_driver_sifive_uart0_set_rx_watermark>:
__metal_driver_sifive_uart0_set_rx_watermark():
/home/khj/Desktop/hello_standalone/freedom-metal/src/drivers/sifive_uart0.c:94

int __metal_driver_sifive_uart0_set_rx_watermark(struct metal_uart *uart,
                                                 size_t level) {
20405ef4:	7179                	addi	sp,sp,-48
20405ef6:	d606                	sw	ra,44(sp)
20405ef8:	d422                	sw	s0,40(sp)
20405efa:	1800                	addi	s0,sp,48
20405efc:	fca42e23          	sw	a0,-36(s0)
20405f00:	fcb42c23          	sw	a1,-40(s0)
/home/khj/Desktop/hello_standalone/freedom-metal/src/drivers/sifive_uart0.c:95
    long control_base = __metal_driver_sifive_uart0_control_base(uart);
20405f04:	fdc42503          	lw	a0,-36(s0)
20405f08:	cfdff0ef          	jal	ra,20405c04 <__metal_driver_sifive_uart0_control_base>
20405f0c:	87aa                	mv	a5,a0
20405f0e:	fef42623          	sw	a5,-20(s0)
/home/khj/Desktop/hello_standalone/freedom-metal/src/drivers/sifive_uart0.c:97

    UART_REGW(METAL_SIFIVE_UART0_RXCTRL) |= UART_RXCNT(level);
20405f12:	fec42783          	lw	a5,-20(s0)
20405f16:	07b1                	addi	a5,a5,12
20405f18:	4398                	lw	a4,0(a5)
20405f1a:	fd842783          	lw	a5,-40(s0)
20405f1e:	01079693          	slli	a3,a5,0x10
20405f22:	000707b7          	lui	a5,0x70
20405f26:	8ff5                	and	a5,a5,a3
20405f28:	fec42683          	lw	a3,-20(s0)
20405f2c:	06b1                	addi	a3,a3,12
20405f2e:	8fd9                	or	a5,a5,a4
20405f30:	c29c                	sw	a5,0(a3)
/home/khj/Desktop/hello_standalone/freedom-metal/src/drivers/sifive_uart0.c:98
    return 0;
20405f32:	4781                	li	a5,0
/home/khj/Desktop/hello_standalone/freedom-metal/src/drivers/sifive_uart0.c:99
}
20405f34:	853e                	mv	a0,a5
20405f36:	50b2                	lw	ra,44(sp)
20405f38:	5422                	lw	s0,40(sp)
20405f3a:	6145                	addi	sp,sp,48
20405f3c:	8082                	ret

20405f3e <__metal_driver_sifive_uart0_get_rx_watermark>:
__metal_driver_sifive_uart0_get_rx_watermark():
/home/khj/Desktop/hello_standalone/freedom-metal/src/drivers/sifive_uart0.c:101

size_t __metal_driver_sifive_uart0_get_rx_watermark(struct metal_uart *uart) {
20405f3e:	7179                	addi	sp,sp,-48
20405f40:	d606                	sw	ra,44(sp)
20405f42:	d422                	sw	s0,40(sp)
20405f44:	1800                	addi	s0,sp,48
20405f46:	fca42e23          	sw	a0,-36(s0)
/home/khj/Desktop/hello_standalone/freedom-metal/src/drivers/sifive_uart0.c:102
    long control_base = __metal_driver_sifive_uart0_control_base(uart);
20405f4a:	fdc42503          	lw	a0,-36(s0)
20405f4e:	cb7ff0ef          	jal	ra,20405c04 <__metal_driver_sifive_uart0_control_base>
20405f52:	87aa                	mv	a5,a0
20405f54:	fef42623          	sw	a5,-20(s0)
/home/khj/Desktop/hello_standalone/freedom-metal/src/drivers/sifive_uart0.c:104

    return ((UART_REGW(METAL_SIFIVE_UART0_RXCTRL) >> 16) & 0x7);
20405f58:	fec42783          	lw	a5,-20(s0)
20405f5c:	07b1                	addi	a5,a5,12
20405f5e:	439c                	lw	a5,0(a5)
20405f60:	83c1                	srli	a5,a5,0x10
20405f62:	8b9d                	andi	a5,a5,7
/home/khj/Desktop/hello_standalone/freedom-metal/src/drivers/sifive_uart0.c:105
}
20405f64:	853e                	mv	a0,a5
20405f66:	50b2                	lw	ra,44(sp)
20405f68:	5422                	lw	s0,40(sp)
20405f6a:	6145                	addi	sp,sp,48
20405f6c:	8082                	ret

20405f6e <__metal_driver_sifive_uart0_putc>:
__metal_driver_sifive_uart0_putc():
/home/khj/Desktop/hello_standalone/freedom-metal/src/drivers/sifive_uart0.c:107

int __metal_driver_sifive_uart0_putc(struct metal_uart *uart, int c) {
20405f6e:	7179                	addi	sp,sp,-48
20405f70:	d606                	sw	ra,44(sp)
20405f72:	d422                	sw	s0,40(sp)
20405f74:	1800                	addi	s0,sp,48
20405f76:	fca42e23          	sw	a0,-36(s0)
20405f7a:	fcb42c23          	sw	a1,-40(s0)
/home/khj/Desktop/hello_standalone/freedom-metal/src/drivers/sifive_uart0.c:108
    long control_base = __metal_driver_sifive_uart0_control_base(uart);
20405f7e:	fdc42503          	lw	a0,-36(s0)
20405f82:	c83ff0ef          	jal	ra,20405c04 <__metal_driver_sifive_uart0_control_base>
20405f86:	87aa                	mv	a5,a0
20405f88:	fef42623          	sw	a5,-20(s0)
/home/khj/Desktop/hello_standalone/freedom-metal/src/drivers/sifive_uart0.c:110

    while (__metal_driver_sifive_uart0_txready(uart) != 0) {
20405f8c:	0001                	nop
/home/khj/Desktop/hello_standalone/freedom-metal/src/drivers/sifive_uart0.c:110 (discriminator 1)
20405f8e:	fdc42503          	lw	a0,-36(s0)
20405f92:	3d65                	jal	20405e4a <__metal_driver_sifive_uart0_txready>
20405f94:	87aa                	mv	a5,a0
20405f96:	ffe5                	bnez	a5,20405f8e <__metal_driver_sifive_uart0_putc+0x20>
/home/khj/Desktop/hello_standalone/freedom-metal/src/drivers/sifive_uart0.c:113
        /* wait */
    }
    UART_REGW(METAL_SIFIVE_UART0_TXDATA) = c;
20405f98:	fec42783          	lw	a5,-20(s0)
20405f9c:	fd842703          	lw	a4,-40(s0)
20405fa0:	c398                	sw	a4,0(a5)
/home/khj/Desktop/hello_standalone/freedom-metal/src/drivers/sifive_uart0.c:114
    return 0;
20405fa2:	4781                	li	a5,0
/home/khj/Desktop/hello_standalone/freedom-metal/src/drivers/sifive_uart0.c:115
}
20405fa4:	853e                	mv	a0,a5
20405fa6:	50b2                	lw	ra,44(sp)
20405fa8:	5422                	lw	s0,40(sp)
20405faa:	6145                	addi	sp,sp,48
20405fac:	8082                	ret

20405fae <__metal_driver_sifive_uart0_getc>:
__metal_driver_sifive_uart0_getc():
/home/khj/Desktop/hello_standalone/freedom-metal/src/drivers/sifive_uart0.c:117

int __metal_driver_sifive_uart0_getc(struct metal_uart *uart, int *c) {
20405fae:	7179                	addi	sp,sp,-48
20405fb0:	d606                	sw	ra,44(sp)
20405fb2:	d422                	sw	s0,40(sp)
20405fb4:	1800                	addi	s0,sp,48
20405fb6:	fca42e23          	sw	a0,-36(s0)
20405fba:	fcb42c23          	sw	a1,-40(s0)
/home/khj/Desktop/hello_standalone/freedom-metal/src/drivers/sifive_uart0.c:119
    uint32_t ch;
    long control_base = __metal_driver_sifive_uart0_control_base(uart);
20405fbe:	fdc42503          	lw	a0,-36(s0)
20405fc2:	c43ff0ef          	jal	ra,20405c04 <__metal_driver_sifive_uart0_control_base>
20405fc6:	87aa                	mv	a5,a0
20405fc8:	fef42623          	sw	a5,-20(s0)
/home/khj/Desktop/hello_standalone/freedom-metal/src/drivers/sifive_uart0.c:121
    /* No seperate status register, we get status and the byte at same time */
    ch = UART_REGW(METAL_SIFIVE_UART0_RXDATA);
20405fcc:	fec42783          	lw	a5,-20(s0)
20405fd0:	0791                	addi	a5,a5,4
20405fd2:	439c                	lw	a5,0(a5)
20405fd4:	fef42423          	sw	a5,-24(s0)
/home/khj/Desktop/hello_standalone/freedom-metal/src/drivers/sifive_uart0.c:123
    ;
    if (ch & UART_RXEMPTY) {
20405fd8:	fe842783          	lw	a5,-24(s0)
20405fdc:	0007d763          	bgez	a5,20405fea <__metal_driver_sifive_uart0_getc+0x3c>
/home/khj/Desktop/hello_standalone/freedom-metal/src/drivers/sifive_uart0.c:124
        *c = -1; /* aka: EOF in most of the world */
20405fe0:	fd842783          	lw	a5,-40(s0)
20405fe4:	577d                	li	a4,-1
20405fe6:	c398                	sw	a4,0(a5)
20405fe8:	a801                	j	20405ff8 <__metal_driver_sifive_uart0_getc+0x4a>
/home/khj/Desktop/hello_standalone/freedom-metal/src/drivers/sifive_uart0.c:126
    } else {
        *c = ch & 0x0ff;
20405fea:	fe842783          	lw	a5,-24(s0)
20405fee:	0ff7f713          	andi	a4,a5,255
20405ff2:	fd842783          	lw	a5,-40(s0)
20405ff6:	c398                	sw	a4,0(a5)
/home/khj/Desktop/hello_standalone/freedom-metal/src/drivers/sifive_uart0.c:128
    }
    return 0;
20405ff8:	4781                	li	a5,0
/home/khj/Desktop/hello_standalone/freedom-metal/src/drivers/sifive_uart0.c:129
}
20405ffa:	853e                	mv	a0,a5
20405ffc:	50b2                	lw	ra,44(sp)
20405ffe:	5422                	lw	s0,40(sp)
20406000:	6145                	addi	sp,sp,48
20406002:	8082                	ret

20406004 <__metal_driver_sifive_uart0_get_baud_rate>:
__metal_driver_sifive_uart0_get_baud_rate():
/home/khj/Desktop/hello_standalone/freedom-metal/src/drivers/sifive_uart0.c:131

int __metal_driver_sifive_uart0_get_baud_rate(struct metal_uart *guart) {
20406004:	7179                	addi	sp,sp,-48
20406006:	d622                	sw	s0,44(sp)
20406008:	1800                	addi	s0,sp,48
2040600a:	fca42e23          	sw	a0,-36(s0)
/home/khj/Desktop/hello_standalone/freedom-metal/src/drivers/sifive_uart0.c:132
    struct __metal_driver_sifive_uart0 *uart = (void *)guart;
2040600e:	fdc42783          	lw	a5,-36(s0)
20406012:	fef42623          	sw	a5,-20(s0)
/home/khj/Desktop/hello_standalone/freedom-metal/src/drivers/sifive_uart0.c:133
    return uart->baud_rate;
20406016:	fec42783          	lw	a5,-20(s0)
2040601a:	43dc                	lw	a5,4(a5)
/home/khj/Desktop/hello_standalone/freedom-metal/src/drivers/sifive_uart0.c:134
}
2040601c:	853e                	mv	a0,a5
2040601e:	5432                	lw	s0,44(sp)
20406020:	6145                	addi	sp,sp,48
20406022:	8082                	ret

20406024 <__metal_driver_sifive_uart0_set_baud_rate>:
__metal_driver_sifive_uart0_set_baud_rate():
/home/khj/Desktop/hello_standalone/freedom-metal/src/drivers/sifive_uart0.c:137

int __metal_driver_sifive_uart0_set_baud_rate(struct metal_uart *guart,
                                              int baud_rate) {
20406024:	7179                	addi	sp,sp,-48
20406026:	d606                	sw	ra,44(sp)
20406028:	d422                	sw	s0,40(sp)
2040602a:	1800                	addi	s0,sp,48
2040602c:	fca42e23          	sw	a0,-36(s0)
20406030:	fcb42c23          	sw	a1,-40(s0)
/home/khj/Desktop/hello_standalone/freedom-metal/src/drivers/sifive_uart0.c:138
    struct __metal_driver_sifive_uart0 *uart = (void *)guart;
20406034:	fdc42783          	lw	a5,-36(s0)
20406038:	fef42623          	sw	a5,-20(s0)
/home/khj/Desktop/hello_standalone/freedom-metal/src/drivers/sifive_uart0.c:139
    long control_base = __metal_driver_sifive_uart0_control_base(guart);
2040603c:	fdc42503          	lw	a0,-36(s0)
20406040:	bc5ff0ef          	jal	ra,20405c04 <__metal_driver_sifive_uart0_control_base>
20406044:	87aa                	mv	a5,a0
20406046:	fef42423          	sw	a5,-24(s0)
/home/khj/Desktop/hello_standalone/freedom-metal/src/drivers/sifive_uart0.c:140
    struct metal_clock *clock = __metal_driver_sifive_uart0_clock(guart);
2040604a:	fdc42503          	lw	a0,-36(s0)
2040604e:	c37ff0ef          	jal	ra,20405c84 <__metal_driver_sifive_uart0_clock>
20406052:	fea42223          	sw	a0,-28(s0)
/home/khj/Desktop/hello_standalone/freedom-metal/src/drivers/sifive_uart0.c:142

    uart->baud_rate = baud_rate;
20406056:	fd842703          	lw	a4,-40(s0)
2040605a:	fec42783          	lw	a5,-20(s0)
2040605e:	c3d8                	sw	a4,4(a5)
/home/khj/Desktop/hello_standalone/freedom-metal/src/drivers/sifive_uart0.c:144

    if (clock != NULL) {
20406060:	fe442783          	lw	a5,-28(s0)
20406064:	cbb1                	beqz	a5,204060b8 <__metal_driver_sifive_uart0_set_baud_rate+0x94>
/home/khj/Desktop/hello_standalone/freedom-metal/src/drivers/sifive_uart0.c:145
        long clock_rate = clock->vtable->get_rate_hz(clock);
20406066:	fe442783          	lw	a5,-28(s0)
2040606a:	439c                	lw	a5,0(a5)
2040606c:	439c                	lw	a5,0(a5)
2040606e:	fe442503          	lw	a0,-28(s0)
20406072:	9782                	jalr	a5
20406074:	fea42023          	sw	a0,-32(s0)
/home/khj/Desktop/hello_standalone/freedom-metal/src/drivers/sifive_uart0.c:146
        UART_REGW(METAL_SIFIVE_UART0_DIV) = clock_rate / baud_rate - 1;
20406078:	fe042703          	lw	a4,-32(s0)
2040607c:	fd842783          	lw	a5,-40(s0)
20406080:	02f747b3          	div	a5,a4,a5
20406084:	fff78713          	addi	a4,a5,-1 # 6ffff <__heap_size+0x6f7ff>
20406088:	fe842783          	lw	a5,-24(s0)
2040608c:	07e1                	addi	a5,a5,24
2040608e:	c398                	sw	a4,0(a5)
/home/khj/Desktop/hello_standalone/freedom-metal/src/drivers/sifive_uart0.c:147
        UART_REGW(METAL_SIFIVE_UART0_TXCTRL) |= UART_TXEN;
20406090:	fe842783          	lw	a5,-24(s0)
20406094:	07a1                	addi	a5,a5,8
20406096:	439c                	lw	a5,0(a5)
20406098:	fe842703          	lw	a4,-24(s0)
2040609c:	0721                	addi	a4,a4,8
2040609e:	0017e793          	ori	a5,a5,1
204060a2:	c31c                	sw	a5,0(a4)
/home/khj/Desktop/hello_standalone/freedom-metal/src/drivers/sifive_uart0.c:148
        UART_REGW(METAL_SIFIVE_UART0_RXCTRL) |= UART_RXEN;
204060a4:	fe842783          	lw	a5,-24(s0)
204060a8:	07b1                	addi	a5,a5,12
204060aa:	439c                	lw	a5,0(a5)
204060ac:	fe842703          	lw	a4,-24(s0)
204060b0:	0731                	addi	a4,a4,12
204060b2:	0017e793          	ori	a5,a5,1
204060b6:	c31c                	sw	a5,0(a4)
/home/khj/Desktop/hello_standalone/freedom-metal/src/drivers/sifive_uart0.c:150
    }
    return 0;
204060b8:	4781                	li	a5,0
/home/khj/Desktop/hello_standalone/freedom-metal/src/drivers/sifive_uart0.c:151
}
204060ba:	853e                	mv	a0,a5
204060bc:	50b2                	lw	ra,44(sp)
204060be:	5422                	lw	s0,40(sp)
204060c0:	6145                	addi	sp,sp,48
204060c2:	8082                	ret

204060c4 <pre_rate_change_callback_func>:
pre_rate_change_callback_func():
/home/khj/Desktop/hello_standalone/freedom-metal/src/drivers/sifive_uart0.c:153

static void pre_rate_change_callback_func(void *priv) {
204060c4:	7139                	addi	sp,sp,-64
204060c6:	de06                	sw	ra,60(sp)
204060c8:	dc22                	sw	s0,56(sp)
204060ca:	0080                	addi	s0,sp,64
204060cc:	fca42623          	sw	a0,-52(s0)
/home/khj/Desktop/hello_standalone/freedom-metal/src/drivers/sifive_uart0.c:154
    struct __metal_driver_sifive_uart0 *uart = priv;
204060d0:	fcc42783          	lw	a5,-52(s0)
204060d4:	fef42623          	sw	a5,-20(s0)
/home/khj/Desktop/hello_standalone/freedom-metal/src/drivers/sifive_uart0.c:156
    long control_base =
        __metal_driver_sifive_uart0_control_base((struct metal_uart *)priv);
204060d8:	fcc42503          	lw	a0,-52(s0)
204060dc:	b29ff0ef          	jal	ra,20405c04 <__metal_driver_sifive_uart0_control_base>
204060e0:	87aa                	mv	a5,a0
/home/khj/Desktop/hello_standalone/freedom-metal/src/drivers/sifive_uart0.c:155
    long control_base =
204060e2:	fef42423          	sw	a5,-24(s0)
/home/khj/Desktop/hello_standalone/freedom-metal/src/drivers/sifive_uart0.c:158
    struct metal_clock *clock =
        __metal_driver_sifive_uart0_clock((struct metal_uart *)priv);
204060e6:	fcc42503          	lw	a0,-52(s0)
204060ea:	b9bff0ef          	jal	ra,20405c84 <__metal_driver_sifive_uart0_clock>
204060ee:	fea42223          	sw	a0,-28(s0)
/home/khj/Desktop/hello_standalone/freedom-metal/src/drivers/sifive_uart0.c:163

    /* Detect when the TXDATA is empty by setting the transmit watermark count
     * to one and waiting until an interrupt is pending */

    UART_REGW(METAL_SIFIVE_UART0_TXCTRL) &= ~(UART_TXCNT(0x7));
204060f2:	fe842783          	lw	a5,-24(s0)
204060f6:	07a1                	addi	a5,a5,8
204060f8:	4398                	lw	a4,0(a5)
204060fa:	fe842783          	lw	a5,-24(s0)
204060fe:	07a1                	addi	a5,a5,8
20406100:	86be                	mv	a3,a5
20406102:	fff907b7          	lui	a5,0xfff90
20406106:	17fd                	addi	a5,a5,-1
20406108:	8ff9                	and	a5,a5,a4
2040610a:	c29c                	sw	a5,0(a3)
/home/khj/Desktop/hello_standalone/freedom-metal/src/drivers/sifive_uart0.c:164
    UART_REGW(METAL_SIFIVE_UART0_TXCTRL) |= UART_TXCNT(1);
2040610c:	fe842783          	lw	a5,-24(s0)
20406110:	07a1                	addi	a5,a5,8
20406112:	4398                	lw	a4,0(a5)
20406114:	fe842783          	lw	a5,-24(s0)
20406118:	07a1                	addi	a5,a5,8
2040611a:	86be                	mv	a3,a5
2040611c:	67c1                	lui	a5,0x10
2040611e:	8fd9                	or	a5,a5,a4
20406120:	c29c                	sw	a5,0(a3)
/home/khj/Desktop/hello_standalone/freedom-metal/src/drivers/sifive_uart0.c:166

    while ((UART_REGW(METAL_SIFIVE_UART0_IP) & UART_TXWM) == 0)
20406122:	0001                	nop
/home/khj/Desktop/hello_standalone/freedom-metal/src/drivers/sifive_uart0.c:166 (discriminator 1)
20406124:	fe842783          	lw	a5,-24(s0)
20406128:	07d1                	addi	a5,a5,20
2040612a:	439c                	lw	a5,0(a5)
2040612c:	8b85                	andi	a5,a5,1
2040612e:	dbfd                	beqz	a5,20406124 <pre_rate_change_callback_func+0x60>
/home/khj/Desktop/hello_standalone/freedom-metal/src/drivers/sifive_uart0.c:174
    /* When the TXDATA clears, the UART is still shifting out the last byte.
     * Calculate the time we must drain to finish transmitting and then wait
     * that long. */

    long bits_per_symbol =
        (UART_REGW(METAL_SIFIVE_UART0_TXCTRL) & (1 << 1)) ? 9 : 10;
20406130:	fe842783          	lw	a5,-24(s0)
20406134:	07a1                	addi	a5,a5,8
20406136:	439c                	lw	a5,0(a5)
20406138:	8b89                	andi	a5,a5,2
2040613a:	c399                	beqz	a5,20406140 <pre_rate_change_callback_func+0x7c>
/home/khj/Desktop/hello_standalone/freedom-metal/src/drivers/sifive_uart0.c:174 (discriminator 1)
2040613c:	47a5                	li	a5,9
2040613e:	a011                	j	20406142 <pre_rate_change_callback_func+0x7e>
/home/khj/Desktop/hello_standalone/freedom-metal/src/drivers/sifive_uart0.c:174 (discriminator 2)
20406140:	47a9                	li	a5,10
/home/khj/Desktop/hello_standalone/freedom-metal/src/drivers/sifive_uart0.c:173
    long bits_per_symbol =
20406142:	fef42023          	sw	a5,-32(s0)
/home/khj/Desktop/hello_standalone/freedom-metal/src/drivers/sifive_uart0.c:175
    long clk_freq = clock->vtable->get_rate_hz(clock);
20406146:	fe442783          	lw	a5,-28(s0)
2040614a:	439c                	lw	a5,0(a5)
2040614c:	439c                	lw	a5,0(a5)
2040614e:	fe442503          	lw	a0,-28(s0)
20406152:	9782                	jalr	a5
20406154:	fca42e23          	sw	a0,-36(s0)
/home/khj/Desktop/hello_standalone/freedom-metal/src/drivers/sifive_uart0.c:176
    long cycles_to_wait = bits_per_symbol * clk_freq / uart->baud_rate;
20406158:	fe042703          	lw	a4,-32(s0)
2040615c:	fdc42783          	lw	a5,-36(s0)
20406160:	02f707b3          	mul	a5,a4,a5
20406164:	873e                	mv	a4,a5
20406166:	fec42783          	lw	a5,-20(s0)
2040616a:	43dc                	lw	a5,4(a5)
2040616c:	02f757b3          	divu	a5,a4,a5
20406170:	fcf42c23          	sw	a5,-40(s0)
/home/khj/Desktop/hello_standalone/freedom-metal/src/drivers/sifive_uart0.c:178

    for (volatile long x = 0; x < cycles_to_wait; x++)
20406174:	fc042a23          	sw	zero,-44(s0)
20406178:	a039                	j	20406186 <pre_rate_change_callback_func+0xc2>
/home/khj/Desktop/hello_standalone/freedom-metal/src/drivers/sifive_uart0.c:179 (discriminator 3)
        __asm__("nop");
2040617a:	0001                	nop
/home/khj/Desktop/hello_standalone/freedom-metal/src/drivers/sifive_uart0.c:178 (discriminator 3)
    for (volatile long x = 0; x < cycles_to_wait; x++)
2040617c:	fd442783          	lw	a5,-44(s0)
20406180:	0785                	addi	a5,a5,1
20406182:	fcf42a23          	sw	a5,-44(s0)
/home/khj/Desktop/hello_standalone/freedom-metal/src/drivers/sifive_uart0.c:178 (discriminator 1)
20406186:	fd442783          	lw	a5,-44(s0)
2040618a:	fd842703          	lw	a4,-40(s0)
2040618e:	fee7c6e3          	blt	a5,a4,2040617a <pre_rate_change_callback_func+0xb6>
/home/khj/Desktop/hello_standalone/freedom-metal/src/drivers/sifive_uart0.c:180
}
20406192:	0001                	nop
20406194:	50f2                	lw	ra,60(sp)
20406196:	5462                	lw	s0,56(sp)
20406198:	6121                	addi	sp,sp,64
2040619a:	8082                	ret

2040619c <post_rate_change_callback_func>:
post_rate_change_callback_func():
/home/khj/Desktop/hello_standalone/freedom-metal/src/drivers/sifive_uart0.c:182

static void post_rate_change_callback_func(void *priv) {
2040619c:	7179                	addi	sp,sp,-48
2040619e:	d606                	sw	ra,44(sp)
204061a0:	d422                	sw	s0,40(sp)
204061a2:	1800                	addi	s0,sp,48
204061a4:	fca42e23          	sw	a0,-36(s0)
/home/khj/Desktop/hello_standalone/freedom-metal/src/drivers/sifive_uart0.c:183
    struct __metal_driver_sifive_uart0 *uart = priv;
204061a8:	fdc42783          	lw	a5,-36(s0)
204061ac:	fef42623          	sw	a5,-20(s0)
/home/khj/Desktop/hello_standalone/freedom-metal/src/drivers/sifive_uart0.c:184
    metal_uart_set_baud_rate(&uart->uart, uart->baud_rate);
204061b0:	fec42703          	lw	a4,-20(s0)
204061b4:	fec42783          	lw	a5,-20(s0)
204061b8:	43dc                	lw	a5,4(a5)
204061ba:	85be                	mv	a1,a5
204061bc:	853a                	mv	a0,a4
204061be:	e7dfb0ef          	jal	ra,2040203a <metal_uart_set_baud_rate>
/home/khj/Desktop/hello_standalone/freedom-metal/src/drivers/sifive_uart0.c:185
}
204061c2:	0001                	nop
204061c4:	50b2                	lw	ra,44(sp)
204061c6:	5422                	lw	s0,40(sp)
204061c8:	6145                	addi	sp,sp,48
204061ca:	8082                	ret

204061cc <__metal_driver_sifive_uart0_init>:
__metal_driver_sifive_uart0_init():
/home/khj/Desktop/hello_standalone/freedom-metal/src/drivers/sifive_uart0.c:187

void __metal_driver_sifive_uart0_init(struct metal_uart *guart, int baud_rate) {
204061cc:	7139                	addi	sp,sp,-64
204061ce:	de06                	sw	ra,60(sp)
204061d0:	dc22                	sw	s0,56(sp)
204061d2:	0080                	addi	s0,sp,64
204061d4:	fca42623          	sw	a0,-52(s0)
204061d8:	fcb42423          	sw	a1,-56(s0)
/home/khj/Desktop/hello_standalone/freedom-metal/src/drivers/sifive_uart0.c:188
    struct __metal_driver_sifive_uart0 *uart = (void *)(guart);
204061dc:	fcc42783          	lw	a5,-52(s0)
204061e0:	fef42623          	sw	a5,-20(s0)
/home/khj/Desktop/hello_standalone/freedom-metal/src/drivers/sifive_uart0.c:189
    struct metal_clock *clock = __metal_driver_sifive_uart0_clock(guart);
204061e4:	fcc42503          	lw	a0,-52(s0)
204061e8:	a9dff0ef          	jal	ra,20405c84 <__metal_driver_sifive_uart0_clock>
204061ec:	fea42423          	sw	a0,-24(s0)
/home/khj/Desktop/hello_standalone/freedom-metal/src/drivers/sifive_uart0.c:191
    struct __metal_driver_sifive_gpio0 *pinmux =
        __metal_driver_sifive_uart0_pinmux(guart);
204061f0:	fcc42503          	lw	a0,-52(s0)
204061f4:	abfff0ef          	jal	ra,20405cb2 <__metal_driver_sifive_uart0_pinmux>
204061f8:	fea42223          	sw	a0,-28(s0)
/home/khj/Desktop/hello_standalone/freedom-metal/src/drivers/sifive_uart0.c:193

    if (clock != NULL) {
204061fc:	fe842783          	lw	a5,-24(s0)
20406200:	c7b9                	beqz	a5,2040624e <__metal_driver_sifive_uart0_init+0x82>
/home/khj/Desktop/hello_standalone/freedom-metal/src/drivers/sifive_uart0.c:194
        uart->pre_rate_change_callback.callback =
20406202:	fec42783          	lw	a5,-20(s0)
20406206:	20406737          	lui	a4,0x20406
2040620a:	0c470713          	addi	a4,a4,196 # 204060c4 <pre_rate_change_callback_func>
2040620e:	c798                	sw	a4,8(a5)
/home/khj/Desktop/hello_standalone/freedom-metal/src/drivers/sifive_uart0.c:196
            &pre_rate_change_callback_func;
        uart->pre_rate_change_callback.priv = guart;
20406210:	fec42783          	lw	a5,-20(s0)
20406214:	fcc42703          	lw	a4,-52(s0)
20406218:	c7d8                	sw	a4,12(a5)
/home/khj/Desktop/hello_standalone/freedom-metal/src/drivers/sifive_uart0.c:197
        metal_clock_register_pre_rate_change_callback(
2040621a:	fec42783          	lw	a5,-20(s0)
2040621e:	07a1                	addi	a5,a5,8
20406220:	85be                	mv	a1,a5
20406222:	fe842503          	lw	a0,-24(s0)
20406226:	2aad                	jal	204063a0 <metal_clock_register_pre_rate_change_callback>
/home/khj/Desktop/hello_standalone/freedom-metal/src/drivers/sifive_uart0.c:200
            clock, &(uart->pre_rate_change_callback));

        uart->post_rate_change_callback.callback =
20406228:	fec42783          	lw	a5,-20(s0)
2040622c:	20406737          	lui	a4,0x20406
20406230:	19c70713          	addi	a4,a4,412 # 2040619c <post_rate_change_callback_func>
20406234:	cbd8                	sw	a4,20(a5)
/home/khj/Desktop/hello_standalone/freedom-metal/src/drivers/sifive_uart0.c:202
            &post_rate_change_callback_func;
        uart->post_rate_change_callback.priv = guart;
20406236:	fec42783          	lw	a5,-20(s0)
2040623a:	fcc42703          	lw	a4,-52(s0)
2040623e:	cf98                	sw	a4,24(a5)
/home/khj/Desktop/hello_standalone/freedom-metal/src/drivers/sifive_uart0.c:203
        metal_clock_register_post_rate_change_callback(
20406240:	fec42783          	lw	a5,-20(s0)
20406244:	07d1                	addi	a5,a5,20
20406246:	85be                	mv	a1,a5
20406248:	fe842503          	lw	a0,-24(s0)
2040624c:	2251                	jal	204063d0 <metal_clock_register_post_rate_change_callback>
/home/khj/Desktop/hello_standalone/freedom-metal/src/drivers/sifive_uart0.c:207
            clock, &(uart->post_rate_change_callback));
    }

    metal_uart_set_baud_rate(&(uart->uart), baud_rate);
2040624e:	fec42783          	lw	a5,-20(s0)
20406252:	fc842583          	lw	a1,-56(s0)
20406256:	853e                	mv	a0,a5
20406258:	de3fb0ef          	jal	ra,2040203a <metal_uart_set_baud_rate>
/home/khj/Desktop/hello_standalone/freedom-metal/src/drivers/sifive_uart0.c:209

    if (pinmux != NULL) {
2040625c:	fe442783          	lw	a5,-28(s0)
20406260:	cb95                	beqz	a5,20406294 <__metal_driver_sifive_uart0_init+0xc8>
/home/khj/Desktop/hello_standalone/freedom-metal/src/drivers/sifive_uart0.c:211
        long pinmux_output_selector =
            __metal_driver_sifive_uart0_pinmux_output_selector(guart);
20406262:	fcc42503          	lw	a0,-52(s0)
20406266:	a77ff0ef          	jal	ra,20405cdc <__metal_driver_sifive_uart0_pinmux_output_selector>
2040626a:	87aa                	mv	a5,a0
/home/khj/Desktop/hello_standalone/freedom-metal/src/drivers/sifive_uart0.c:210
        long pinmux_output_selector =
2040626c:	fef42023          	sw	a5,-32(s0)
/home/khj/Desktop/hello_standalone/freedom-metal/src/drivers/sifive_uart0.c:213
        long pinmux_source_selector =
            __metal_driver_sifive_uart0_pinmux_source_selector(guart);
20406270:	fcc42503          	lw	a0,-52(s0)
20406274:	a91ff0ef          	jal	ra,20405d04 <__metal_driver_sifive_uart0_pinmux_source_selector>
20406278:	87aa                	mv	a5,a0
/home/khj/Desktop/hello_standalone/freedom-metal/src/drivers/sifive_uart0.c:212
        long pinmux_source_selector =
2040627a:	fcf42e23          	sw	a5,-36(s0)
/home/khj/Desktop/hello_standalone/freedom-metal/src/drivers/sifive_uart0.c:214
        pinmux->gpio.vtable->enable_io((struct metal_gpio *)pinmux,
2040627e:	fe442783          	lw	a5,-28(s0)
20406282:	439c                	lw	a5,0(a5)
20406284:	53dc                	lw	a5,36(a5)
20406286:	fdc42603          	lw	a2,-36(s0)
2040628a:	fe042583          	lw	a1,-32(s0)
2040628e:	fe442503          	lw	a0,-28(s0)
20406292:	9782                	jalr	a5
/home/khj/Desktop/hello_standalone/freedom-metal/src/drivers/sifive_uart0.c:218
                                       pinmux_output_selector,
                                       pinmux_source_selector);
    }
}
20406294:	0001                	nop
20406296:	50f2                	lw	ra,60(sp)
20406298:	5462                	lw	s0,56(sp)
2040629a:	6121                	addi	sp,sp,64
2040629c:	8082                	ret

2040629e <_metal_clock_call_all_callbacks>:
_metal_clock_call_all_callbacks():
/home/khj/Desktop/hello_standalone/freedom-metal/metal/clock.h:50

/*!
 * @brief Call all callbacks in the linked list, if any are registered
 */
__inline__ void
_metal_clock_call_all_callbacks(const metal_clock_callback *const list) {
2040629e:	7179                	addi	sp,sp,-48
204062a0:	d606                	sw	ra,44(sp)
204062a2:	d422                	sw	s0,40(sp)
204062a4:	1800                	addi	s0,sp,48
204062a6:	fca42e23          	sw	a0,-36(s0)
/home/khj/Desktop/hello_standalone/freedom-metal/metal/clock.h:51
    const metal_clock_callback *current = list;
204062aa:	fdc42783          	lw	a5,-36(s0)
204062ae:	fef42623          	sw	a5,-20(s0)
/home/khj/Desktop/hello_standalone/freedom-metal/metal/clock.h:52
    while (current) {
204062b2:	a831                	j	204062ce <_metal_clock_call_all_callbacks+0x30>
/home/khj/Desktop/hello_standalone/freedom-metal/metal/clock.h:53
        current->callback(current->priv);
204062b4:	fec42783          	lw	a5,-20(s0)
204062b8:	4398                	lw	a4,0(a5)
204062ba:	fec42783          	lw	a5,-20(s0)
204062be:	43dc                	lw	a5,4(a5)
204062c0:	853e                	mv	a0,a5
204062c2:	9702                	jalr	a4
/home/khj/Desktop/hello_standalone/freedom-metal/metal/clock.h:54
        current = current->_next;
204062c4:	fec42783          	lw	a5,-20(s0)
204062c8:	479c                	lw	a5,8(a5)
204062ca:	fef42623          	sw	a5,-20(s0)
/home/khj/Desktop/hello_standalone/freedom-metal/metal/clock.h:52
    while (current) {
204062ce:	fec42783          	lw	a5,-20(s0)
204062d2:	f3ed                	bnez	a5,204062b4 <_metal_clock_call_all_callbacks+0x16>
/home/khj/Desktop/hello_standalone/freedom-metal/metal/clock.h:56
    }
}
204062d4:	0001                	nop
204062d6:	50b2                	lw	ra,44(sp)
204062d8:	5422                	lw	s0,40(sp)
204062da:	6145                	addi	sp,sp,48
204062dc:	8082                	ret

204062de <_metal_clock_append_to_callbacks>:
_metal_clock_append_to_callbacks():
/home/khj/Desktop/hello_standalone/freedom-metal/metal/clock.h:63
/*!
 * @brief Append a callback to the linked list and return the head of the list
 */
__inline__ metal_clock_callback *
_metal_clock_append_to_callbacks(metal_clock_callback *list,
                                 metal_clock_callback *const cb) {
204062de:	7179                	addi	sp,sp,-48
204062e0:	d622                	sw	s0,44(sp)
204062e2:	1800                	addi	s0,sp,48
204062e4:	fca42e23          	sw	a0,-36(s0)
204062e8:	fcb42c23          	sw	a1,-40(s0)
/home/khj/Desktop/hello_standalone/freedom-metal/metal/clock.h:64
    cb->_next = NULL;
204062ec:	fd842783          	lw	a5,-40(s0)
204062f0:	0007a423          	sw	zero,8(a5) # 10008 <__heap_size+0xf808>
/home/khj/Desktop/hello_standalone/freedom-metal/metal/clock.h:66

    if (!list) {
204062f4:	fdc42783          	lw	a5,-36(s0)
204062f8:	e781                	bnez	a5,20406300 <_metal_clock_append_to_callbacks+0x22>
/home/khj/Desktop/hello_standalone/freedom-metal/metal/clock.h:67
        return cb;
204062fa:	fd842783          	lw	a5,-40(s0)
204062fe:	a035                	j	2040632a <_metal_clock_append_to_callbacks+0x4c>
/home/khj/Desktop/hello_standalone/freedom-metal/metal/clock.h:70
    }

    metal_clock_callback *current = list;
20406300:	fdc42783          	lw	a5,-36(s0)
20406304:	fef42623          	sw	a5,-20(s0)
/home/khj/Desktop/hello_standalone/freedom-metal/metal/clock.h:72

    while ((current->_next) != NULL) {
20406308:	a031                	j	20406314 <_metal_clock_append_to_callbacks+0x36>
/home/khj/Desktop/hello_standalone/freedom-metal/metal/clock.h:73
        current = current->_next;
2040630a:	fec42783          	lw	a5,-20(s0)
2040630e:	479c                	lw	a5,8(a5)
20406310:	fef42623          	sw	a5,-20(s0)
/home/khj/Desktop/hello_standalone/freedom-metal/metal/clock.h:72
    while ((current->_next) != NULL) {
20406314:	fec42783          	lw	a5,-20(s0)
20406318:	479c                	lw	a5,8(a5)
2040631a:	fbe5                	bnez	a5,2040630a <_metal_clock_append_to_callbacks+0x2c>
/home/khj/Desktop/hello_standalone/freedom-metal/metal/clock.h:76
    }

    current->_next = cb;
2040631c:	fec42783          	lw	a5,-20(s0)
20406320:	fd842703          	lw	a4,-40(s0)
20406324:	c798                	sw	a4,8(a5)
/home/khj/Desktop/hello_standalone/freedom-metal/metal/clock.h:78

    return list;
20406326:	fdc42783          	lw	a5,-36(s0)
/home/khj/Desktop/hello_standalone/freedom-metal/metal/clock.h:79
}
2040632a:	853e                	mv	a0,a5
2040632c:	5432                	lw	s0,44(sp)
2040632e:	6145                	addi	sp,sp,48
20406330:	8082                	ret

20406332 <metal_clock_get_rate_hz>:
metal_clock_get_rate_hz():
/home/khj/Desktop/hello_standalone/freedom-metal/metal/clock.h:110
 * @brief Returns the current rate of the given clock
 *
 * @param clk The handle for the clock
 * @return The current rate of the clock in Hz
 */
__inline__ long metal_clock_get_rate_hz(const struct metal_clock *clk) {
20406332:	1101                	addi	sp,sp,-32
20406334:	ce06                	sw	ra,28(sp)
20406336:	cc22                	sw	s0,24(sp)
20406338:	1000                	addi	s0,sp,32
2040633a:	fea42623          	sw	a0,-20(s0)
/home/khj/Desktop/hello_standalone/freedom-metal/metal/clock.h:111
    return clk->vtable->get_rate_hz(clk);
2040633e:	fec42783          	lw	a5,-20(s0)
20406342:	439c                	lw	a5,0(a5)
20406344:	439c                	lw	a5,0(a5)
20406346:	fec42503          	lw	a0,-20(s0)
2040634a:	9782                	jalr	a5
2040634c:	87aa                	mv	a5,a0
/home/khj/Desktop/hello_standalone/freedom-metal/metal/clock.h:112
}
2040634e:	853e                	mv	a0,a5
20406350:	40f2                	lw	ra,28(sp)
20406352:	4462                	lw	s0,24(sp)
20406354:	6105                	addi	sp,sp,32
20406356:	8082                	ret

20406358 <metal_clock_set_rate_hz>:
metal_clock_set_rate_hz():
/home/khj/Desktop/hello_standalone/freedom-metal/metal/clock.h:128
 * could be anything!
 *
 * Prior to and after the rate change of the clock, this will call the
 * registered pre- and post-rate change callbacks.
 */
__inline__ long metal_clock_set_rate_hz(struct metal_clock *clk, long hz) {
20406358:	7179                	addi	sp,sp,-48
2040635a:	d606                	sw	ra,44(sp)
2040635c:	d422                	sw	s0,40(sp)
2040635e:	1800                	addi	s0,sp,48
20406360:	fca42e23          	sw	a0,-36(s0)
20406364:	fcb42c23          	sw	a1,-40(s0)
/home/khj/Desktop/hello_standalone/freedom-metal/metal/clock.h:129
    _metal_clock_call_all_callbacks(clk->_pre_rate_change_callback);
20406368:	fdc42783          	lw	a5,-36(s0)
2040636c:	43dc                	lw	a5,4(a5)
2040636e:	853e                	mv	a0,a5
20406370:	373d                	jal	2040629e <_metal_clock_call_all_callbacks>
/home/khj/Desktop/hello_standalone/freedom-metal/metal/clock.h:131

    long out = clk->vtable->set_rate_hz(clk, hz);
20406372:	fdc42783          	lw	a5,-36(s0)
20406376:	439c                	lw	a5,0(a5)
20406378:	43dc                	lw	a5,4(a5)
2040637a:	fd842583          	lw	a1,-40(s0)
2040637e:	fdc42503          	lw	a0,-36(s0)
20406382:	9782                	jalr	a5
20406384:	fea42623          	sw	a0,-20(s0)
/home/khj/Desktop/hello_standalone/freedom-metal/metal/clock.h:133

    _metal_clock_call_all_callbacks(clk->_post_rate_change_callback);
20406388:	fdc42783          	lw	a5,-36(s0)
2040638c:	479c                	lw	a5,8(a5)
2040638e:	853e                	mv	a0,a5
20406390:	3739                	jal	2040629e <_metal_clock_call_all_callbacks>
/home/khj/Desktop/hello_standalone/freedom-metal/metal/clock.h:135

    return out;
20406392:	fec42783          	lw	a5,-20(s0)
/home/khj/Desktop/hello_standalone/freedom-metal/metal/clock.h:136
}
20406396:	853e                	mv	a0,a5
20406398:	50b2                	lw	ra,44(sp)
2040639a:	5422                	lw	s0,40(sp)
2040639c:	6145                	addi	sp,sp,48
2040639e:	8082                	ret

204063a0 <metal_clock_register_pre_rate_change_callback>:
metal_clock_register_pre_rate_change_callback():
/home/khj/Desktop/hello_standalone/freedom-metal/metal/clock.h:146
 * @param clk The handle for the clock
 * @param cb The callback to be registered
 */
__inline__ void
metal_clock_register_pre_rate_change_callback(struct metal_clock *clk,
                                              metal_clock_callback *cb) {
204063a0:	1101                	addi	sp,sp,-32
204063a2:	ce06                	sw	ra,28(sp)
204063a4:	cc22                	sw	s0,24(sp)
204063a6:	1000                	addi	s0,sp,32
204063a8:	fea42623          	sw	a0,-20(s0)
204063ac:	feb42423          	sw	a1,-24(s0)
/home/khj/Desktop/hello_standalone/freedom-metal/metal/clock.h:148
    clk->_pre_rate_change_callback =
        _metal_clock_append_to_callbacks(clk->_pre_rate_change_callback, cb);
204063b0:	fec42783          	lw	a5,-20(s0)
204063b4:	43dc                	lw	a5,4(a5)
204063b6:	fe842583          	lw	a1,-24(s0)
204063ba:	853e                	mv	a0,a5
204063bc:	370d                	jal	204062de <_metal_clock_append_to_callbacks>
204063be:	872a                	mv	a4,a0
/home/khj/Desktop/hello_standalone/freedom-metal/metal/clock.h:147
    clk->_pre_rate_change_callback =
204063c0:	fec42783          	lw	a5,-20(s0)
204063c4:	c3d8                	sw	a4,4(a5)
/home/khj/Desktop/hello_standalone/freedom-metal/metal/clock.h:149
}
204063c6:	0001                	nop
204063c8:	40f2                	lw	ra,28(sp)
204063ca:	4462                	lw	s0,24(sp)
204063cc:	6105                	addi	sp,sp,32
204063ce:	8082                	ret

204063d0 <metal_clock_register_post_rate_change_callback>:
metal_clock_register_post_rate_change_callback():
/home/khj/Desktop/hello_standalone/freedom-metal/metal/clock.h:159
 * @param clk The handle for the clock
 * @param cb The callback to be registered
 */
__inline__ void
metal_clock_register_post_rate_change_callback(struct metal_clock *clk,
                                               metal_clock_callback *cb) {
204063d0:	1101                	addi	sp,sp,-32
204063d2:	ce06                	sw	ra,28(sp)
204063d4:	cc22                	sw	s0,24(sp)
204063d6:	1000                	addi	s0,sp,32
204063d8:	fea42623          	sw	a0,-20(s0)
204063dc:	feb42423          	sw	a1,-24(s0)
/home/khj/Desktop/hello_standalone/freedom-metal/metal/clock.h:161
    clk->_post_rate_change_callback =
        _metal_clock_append_to_callbacks(clk->_post_rate_change_callback, cb);
204063e0:	fec42783          	lw	a5,-20(s0)
204063e4:	479c                	lw	a5,8(a5)
204063e6:	fe842583          	lw	a1,-24(s0)
204063ea:	853e                	mv	a0,a5
204063ec:	3dcd                	jal	204062de <_metal_clock_append_to_callbacks>
204063ee:	872a                	mv	a4,a0
/home/khj/Desktop/hello_standalone/freedom-metal/metal/clock.h:160
    clk->_post_rate_change_callback =
204063f0:	fec42783          	lw	a5,-20(s0)
204063f4:	c798                	sw	a4,8(a5)
/home/khj/Desktop/hello_standalone/freedom-metal/metal/clock.h:162
}
204063f6:	0001                	nop
204063f8:	40f2                	lw	ra,28(sp)
204063fa:	4462                	lw	s0,24(sp)
204063fc:	6105                	addi	sp,sp,32
204063fe:	8082                	ret

20406400 <metal_cpu_interrupt_controller>:
metal_cpu_interrupt_controller():
/home/khj/Desktop/hello_standalone/freedom-metal/metal/cpu.h:224
 *
 * @param cpu The CPU device handle
 * @return The handle for the CPU interrupt controller
 */
__inline__ struct metal_interrupt *
metal_cpu_interrupt_controller(struct metal_cpu *cpu) {
20406400:	1101                	addi	sp,sp,-32
20406402:	ce06                	sw	ra,28(sp)
20406404:	cc22                	sw	s0,24(sp)
20406406:	1000                	addi	s0,sp,32
20406408:	fea42623          	sw	a0,-20(s0)
/home/khj/Desktop/hello_standalone/freedom-metal/metal/cpu.h:225
    return cpu->vtable->controller_interrupt(cpu);
2040640c:	fec42783          	lw	a5,-20(s0)
20406410:	439c                	lw	a5,0(a5)
20406412:	57dc                	lw	a5,44(a5)
20406414:	fec42503          	lw	a0,-20(s0)
20406418:	9782                	jalr	a5
2040641a:	87aa                	mv	a5,a0
/home/khj/Desktop/hello_standalone/freedom-metal/metal/cpu.h:226
}
2040641c:	853e                	mv	a0,a5
2040641e:	40f2                	lw	ra,28(sp)
20406420:	4462                	lw	s0,24(sp)
20406422:	6105                	addi	sp,sp,32
20406424:	8082                	ret

20406426 <metal_cpu_get>:
metal_cpu_get():
/home/khj/Desktop/hello_standalone/freedom-metal/src/cpu.c:7
/* SPDX-License-Identifier: Apache-2.0 */

#include <metal/cpu.h>
#include <metal/machine.h>

struct metal_cpu *metal_cpu_get(unsigned int hartid) {
20406426:	1101                	addi	sp,sp,-32
20406428:	ce22                	sw	s0,28(sp)
2040642a:	1000                	addi	s0,sp,32
2040642c:	fea42623          	sw	a0,-20(s0)
/home/khj/Desktop/hello_standalone/freedom-metal/src/cpu.c:8
    if (hartid < __METAL_DT_MAX_HARTS) {
20406430:	fec42783          	lw	a5,-20(s0)
20406434:	eb89                	bnez	a5,20406446 <metal_cpu_get+0x20>
/home/khj/Desktop/hello_standalone/freedom-metal/src/cpu.c:9
        return (struct metal_cpu *)__metal_cpu_table[hartid];
20406436:	fec42703          	lw	a4,-20(s0)
2040643a:	070a                	slli	a4,a4,0x2
2040643c:	80c18793          	addi	a5,gp,-2036 # 800007ac <__metal_cpu_table>
20406440:	97ba                	add	a5,a5,a4
20406442:	439c                	lw	a5,0(a5)
20406444:	a011                	j	20406448 <metal_cpu_get+0x22>
/home/khj/Desktop/hello_standalone/freedom-metal/src/cpu.c:11
    }
    return NULL;
20406446:	4781                	li	a5,0
/home/khj/Desktop/hello_standalone/freedom-metal/src/cpu.c:12
}
20406448:	853e                	mv	a0,a5
2040644a:	4472                	lw	s0,28(sp)
2040644c:	6105                	addi	sp,sp,32
2040644e:	8082                	ret

20406450 <metal_cpu_get_current_hartid>:
metal_cpu_get_current_hartid():
/home/khj/Desktop/hello_standalone/freedom-metal/src/cpu.c:14

int metal_cpu_get_current_hartid() {
20406450:	1101                	addi	sp,sp,-32
20406452:	ce22                	sw	s0,28(sp)
20406454:	1000                	addi	s0,sp,32
/home/khj/Desktop/hello_standalone/freedom-metal/src/cpu.c:17
#ifdef __riscv
    int mhartid;
    __asm__ volatile("csrr %0, mhartid" : "=r"(mhartid));
20406456:	f14027f3          	csrr	a5,mhartid
2040645a:	fef42623          	sw	a5,-20(s0)
/home/khj/Desktop/hello_standalone/freedom-metal/src/cpu.c:18
    return mhartid;
2040645e:	fec42783          	lw	a5,-20(s0)
/home/khj/Desktop/hello_standalone/freedom-metal/src/cpu.c:20
#endif
}
20406462:	853e                	mv	a0,a5
20406464:	4472                	lw	s0,28(sp)
20406466:	6105                	addi	sp,sp,32
20406468:	8082                	ret

2040646a <__metal_shutdown_exit>:
__metal_shutdown_exit():
/home/khj/Desktop/hello_standalone/freedom-metal/metal/shutdown.h:26
};

__inline__ void __metal_shutdown_exit(const struct __metal_shutdown *sd,
                                      int code) __attribute__((noreturn));
__inline__ void __metal_shutdown_exit(const struct __metal_shutdown *sd,
                                      int code) {
2040646a:	1101                	addi	sp,sp,-32
2040646c:	ce06                	sw	ra,28(sp)
2040646e:	cc22                	sw	s0,24(sp)
20406470:	1000                	addi	s0,sp,32
20406472:	fea42623          	sw	a0,-20(s0)
20406476:	feb42423          	sw	a1,-24(s0)
/home/khj/Desktop/hello_standalone/freedom-metal/metal/shutdown.h:27
    sd->vtable->exit(sd, code);
2040647a:	fec42783          	lw	a5,-20(s0)
2040647e:	439c                	lw	a5,0(a5)
20406480:	439c                	lw	a5,0(a5)
20406482:	fe842583          	lw	a1,-24(s0)
20406486:	fec42503          	lw	a0,-20(s0)
2040648a:	9782                	jalr	a5

2040648c <metal_shutdown>:
metal_shutdown():
/home/khj/Desktop/hello_standalone/freedom-metal/src/shutdown.c:11

extern __inline__ void __metal_shutdown_exit(const struct __metal_shutdown *sd,
                                             int code);

#if defined(__METAL_DT_SHUTDOWN_HANDLE)
void metal_shutdown(int code) {
2040648c:	1101                	addi	sp,sp,-32
2040648e:	ce06                	sw	ra,28(sp)
20406490:	cc22                	sw	s0,24(sp)
20406492:	1000                	addi	s0,sp,32
20406494:	fea42623          	sw	a0,-20(s0)
/home/khj/Desktop/hello_standalone/freedom-metal/src/shutdown.c:12
    __metal_shutdown_exit(__METAL_DT_SHUTDOWN_HANDLE, code);
20406498:	fec42583          	lw	a1,-20(s0)
2040649c:	82418513          	addi	a0,gp,-2012 # 800007c4 <__metal_dt_test_100000>
204064a0:	37e9                	jal	2040646a <__metal_shutdown_exit>
	...

20406500 <__metal_vector_table>:
IRQ_0():
/home/khj/Desktop/hello_standalone/freedom-metal/src/vector.S:96
#endif
.option norvc
.global __metal_vector_table
__metal_vector_table:
IRQ_0:
        j metal_interrupt_vector_handler
20406500:	cb6fc06f          	j	204029b6 <metal_interrupt_vector_handler>

20406504 <IRQ_1>:
IRQ_1():
/home/khj/Desktop/hello_standalone/freedom-metal/src/vector.S:98
IRQ_1:
        j metal_interrupt_vector_handler
20406504:	cb2fc06f          	j	204029b6 <metal_interrupt_vector_handler>

20406508 <IRQ_2>:
IRQ_2():
/home/khj/Desktop/hello_standalone/freedom-metal/src/vector.S:100
IRQ_2:
        j metal_interrupt_vector_handler
20406508:	caefc06f          	j	204029b6 <metal_interrupt_vector_handler>

2040650c <IRQ_3>:
IRQ_3():
/home/khj/Desktop/hello_standalone/freedom-metal/src/vector.S:102
IRQ_3:
        j metal_software_interrupt_vector_handler
2040650c:	cd8fc06f          	j	204029e4 <metal_software_interrupt_vector_handler>

20406510 <IRQ_4>:
IRQ_4():
/home/khj/Desktop/hello_standalone/freedom-metal/src/vector.S:104
IRQ_4:
        j metal_interrupt_vector_handler
20406510:	ca6fc06f          	j	204029b6 <metal_interrupt_vector_handler>

20406514 <IRQ_5>:
IRQ_5():
/home/khj/Desktop/hello_standalone/freedom-metal/src/vector.S:106
IRQ_5:
        j metal_interrupt_vector_handler
20406514:	ca2fc06f          	j	204029b6 <metal_interrupt_vector_handler>

20406518 <IRQ_6>:
IRQ_6():
/home/khj/Desktop/hello_standalone/freedom-metal/src/vector.S:108
IRQ_6:
        j metal_interrupt_vector_handler
20406518:	c9efc06f          	j	204029b6 <metal_interrupt_vector_handler>

2040651c <IRQ_7>:
IRQ_7():
/home/khj/Desktop/hello_standalone/freedom-metal/src/vector.S:110
IRQ_7:
        j metal_timer_interrupt_vector_handler
2040651c:	dbafc06f          	j	20402ad6 <metal_timer_interrupt_vector_handler>

20406520 <IRQ_8>:
IRQ_8():
/home/khj/Desktop/hello_standalone/freedom-metal/src/vector.S:112
IRQ_8:
        j metal_interrupt_vector_handler
20406520:	c96fc06f          	j	204029b6 <metal_interrupt_vector_handler>

20406524 <IRQ_9>:
IRQ_9():
/home/khj/Desktop/hello_standalone/freedom-metal/src/vector.S:114
IRQ_9:
        j metal_interrupt_vector_handler
20406524:	c92fc06f          	j	204029b6 <metal_interrupt_vector_handler>

20406528 <IRQ_10>:
IRQ_10():
/home/khj/Desktop/hello_standalone/freedom-metal/src/vector.S:116
IRQ_10:
        j metal_interrupt_vector_handler
20406528:	c8efc06f          	j	204029b6 <metal_interrupt_vector_handler>

2040652c <IRQ_11>:
IRQ_11():
/home/khj/Desktop/hello_standalone/freedom-metal/src/vector.S:118
IRQ_11:
        j metal_interrupt_vector_handler
2040652c:	c8afc06f          	j	204029b6 <metal_interrupt_vector_handler>

20406530 <IRQ_12>:
IRQ_12():
/home/khj/Desktop/hello_standalone/freedom-metal/src/vector.S:120
IRQ_12:
        j metal_interrupt_vector_handler
20406530:	c86fc06f          	j	204029b6 <metal_interrupt_vector_handler>

20406534 <IRQ_13>:
IRQ_13():
/home/khj/Desktop/hello_standalone/freedom-metal/src/vector.S:122
IRQ_13:
        j metal_interrupt_vector_handler
20406534:	c82fc06f          	j	204029b6 <metal_interrupt_vector_handler>

20406538 <IRQ_14>:
IRQ_14():
/home/khj/Desktop/hello_standalone/freedom-metal/src/vector.S:124
IRQ_14:
        j metal_interrupt_vector_handler
20406538:	c7efc06f          	j	204029b6 <metal_interrupt_vector_handler>

2040653c <IRQ_15>:
IRQ_15():
/home/khj/Desktop/hello_standalone/freedom-metal/src/vector.S:126
IRQ_15:
        j metal_interrupt_vector_handler
2040653c:	c7afc06f          	j	204029b6 <metal_interrupt_vector_handler>

20406540 <IRQ_LC0>:
IRQ_LC0():
/home/khj/Desktop/hello_standalone/freedom-metal/src/vector.S:128
IRQ_LC0:
        j metal_lc0_interrupt_vector_handler
20406540:	8b3fc06f          	j	20402df2 <metal_lc0_interrupt_vector_handler>

20406544 <IRQ_LC1>:
IRQ_LC1():
/home/khj/Desktop/hello_standalone/freedom-metal/src/vector.S:130
IRQ_LC1:
        j metal_lc1_interrupt_vector_handler
20406544:	941fc06f          	j	20402e84 <metal_lc1_interrupt_vector_handler>

20406548 <IRQ_LC2>:
IRQ_LC2():
/home/khj/Desktop/hello_standalone/freedom-metal/src/vector.S:132
IRQ_LC2:
        j metal_lc2_interrupt_vector_handler
20406548:	9cffc06f          	j	20402f16 <metal_lc2_interrupt_vector_handler>

2040654c <IRQ_LC3>:
IRQ_LC3():
/home/khj/Desktop/hello_standalone/freedom-metal/src/vector.S:134
IRQ_LC3:
        j metal_lc3_interrupt_vector_handler
2040654c:	a5dfc06f          	j	20402fa8 <metal_lc3_interrupt_vector_handler>

20406550 <IRQ_LC4>:
IRQ_LC4():
/home/khj/Desktop/hello_standalone/freedom-metal/src/vector.S:136
IRQ_LC4:
        j metal_lc4_interrupt_vector_handler
20406550:	aebfc06f          	j	2040303a <metal_lc4_interrupt_vector_handler>

20406554 <IRQ_LC5>:
IRQ_LC5():
/home/khj/Desktop/hello_standalone/freedom-metal/src/vector.S:138
IRQ_LC5:
        j metal_lc5_interrupt_vector_handler
20406554:	b79fc06f          	j	204030cc <metal_lc5_interrupt_vector_handler>

20406558 <IRQ_LC6>:
IRQ_LC6():
/home/khj/Desktop/hello_standalone/freedom-metal/src/vector.S:140
IRQ_LC6:
        j metal_lc6_interrupt_vector_handler
20406558:	c07fc06f          	j	2040315e <metal_lc6_interrupt_vector_handler>

2040655c <IRQ_LC7>:
IRQ_LC7():
/home/khj/Desktop/hello_standalone/freedom-metal/src/vector.S:142
IRQ_LC7:
        j metal_lc7_interrupt_vector_handler
2040655c:	c95fc06f          	j	204031f0 <metal_lc7_interrupt_vector_handler>

20406560 <IRQ_LC8>:
IRQ_LC8():
/home/khj/Desktop/hello_standalone/freedom-metal/src/vector.S:144
IRQ_LC8:
        j metal_lc8_interrupt_vector_handler
20406560:	d23fc06f          	j	20403282 <metal_lc8_interrupt_vector_handler>

20406564 <IRQ_LC9>:
IRQ_LC9():
/home/khj/Desktop/hello_standalone/freedom-metal/src/vector.S:146
IRQ_LC9:
        j metal_lc9_interrupt_vector_handler
20406564:	db1fc06f          	j	20403314 <metal_lc9_interrupt_vector_handler>

20406568 <IRQ_LC10>:
IRQ_LC10():
/home/khj/Desktop/hello_standalone/freedom-metal/src/vector.S:148
IRQ_LC10:
        j metal_lc10_interrupt_vector_handler
20406568:	e3ffc06f          	j	204033a6 <metal_lc10_interrupt_vector_handler>

2040656c <IRQ_LC11>:
IRQ_LC11():
/home/khj/Desktop/hello_standalone/freedom-metal/src/vector.S:150
IRQ_LC11:
        j metal_lc11_interrupt_vector_handler
2040656c:	ecdfc06f          	j	20403438 <metal_lc11_interrupt_vector_handler>

20406570 <IRQ_LC12>:
IRQ_LC12():
/home/khj/Desktop/hello_standalone/freedom-metal/src/vector.S:152
IRQ_LC12:
        j metal_lc12_interrupt_vector_handler
20406570:	f5bfc06f          	j	204034ca <metal_lc12_interrupt_vector_handler>

20406574 <IRQ_LC13>:
IRQ_LC13():
/home/khj/Desktop/hello_standalone/freedom-metal/src/vector.S:154
IRQ_LC13:
        j metal_lc13_interrupt_vector_handler
20406574:	fe9fc06f          	j	2040355c <metal_lc13_interrupt_vector_handler>

20406578 <IRQ_LC14>:
IRQ_LC14():
/home/khj/Desktop/hello_standalone/freedom-metal/src/vector.S:156
IRQ_LC14:
        j metal_lc14_interrupt_vector_handler
20406578:	876fd06f          	j	204035ee <metal_lc14_interrupt_vector_handler>

2040657c <IRQ_LC15>:
IRQ_LC15():
/home/khj/Desktop/hello_standalone/freedom-metal/src/vector.S:158
IRQ_LC15:
        j metal_lc15_interrupt_vector_handler
2040657c:	904fd06f          	j	20403680 <metal_lc15_interrupt_vector_handler>

20406580 <__metal_driver_fixed_clock_rate>:
__metal_driver_fixed_clock_rate():
/home/khj/Desktop/hello_standalone/bsp/build/debug/./metal/machine.h:178
{
20406580:	1101                	addi	sp,sp,-32
20406582:	ce22                	sw	s0,28(sp)
20406584:	1000                	addi	s0,sp,32
20406586:	fea42623          	sw	a0,-20(s0)
/home/khj/Desktop/hello_standalone/bsp/build/debug/./metal/machine.h:179
	if ((uintptr_t)clock == (uintptr_t)&__metal_dt_clock_0) {
2040658a:	fec42703          	lw	a4,-20(s0)
2040658e:	800007b7          	lui	a5,0x80000
20406592:	06078793          	addi	a5,a5,96 # 80000060 <metal_dtim_0_memory_end+0xffff0060>
20406596:	00f71763          	bne	a4,a5,204065a4 <__metal_driver_fixed_clock_rate+0x24>
/home/khj/Desktop/hello_standalone/bsp/build/debug/./metal/machine.h:180
		return METAL_FIXED_CLOCK_0_CLOCK_FREQUENCY;
2040659a:	00f427b7          	lui	a5,0xf42
2040659e:	40078793          	addi	a5,a5,1024 # f42400 <__heap_size+0xf41c00>
204065a2:	a825                	j	204065da <__metal_driver_fixed_clock_rate+0x5a>
/home/khj/Desktop/hello_standalone/bsp/build/debug/./metal/machine.h:182
	else if ((uintptr_t)clock == (uintptr_t)&__metal_dt_clock_2) {
204065a4:	fec42703          	lw	a4,-20(s0)
204065a8:	800007b7          	lui	a5,0x80000
204065ac:	06c78793          	addi	a5,a5,108 # 8000006c <metal_dtim_0_memory_end+0xffff006c>
204065b0:	00f71763          	bne	a4,a5,204065be <__metal_driver_fixed_clock_rate+0x3e>
/home/khj/Desktop/hello_standalone/bsp/build/debug/./metal/machine.h:183
		return METAL_FIXED_CLOCK_2_CLOCK_FREQUENCY;
204065b4:	044aa7b7          	lui	a5,0x44aa
204065b8:	20078793          	addi	a5,a5,512 # 44aa200 <__heap_size+0x44a9a00>
204065bc:	a839                	j	204065da <__metal_driver_fixed_clock_rate+0x5a>
/home/khj/Desktop/hello_standalone/bsp/build/debug/./metal/machine.h:185
	else if ((uintptr_t)clock == (uintptr_t)&__metal_dt_clock_5) {
204065be:	fec42703          	lw	a4,-20(s0)
204065c2:	800007b7          	lui	a5,0x80000
204065c6:	07878793          	addi	a5,a5,120 # 80000078 <metal_dtim_0_memory_end+0xffff0078>
204065ca:	00f71763          	bne	a4,a5,204065d8 <__metal_driver_fixed_clock_rate+0x58>
/home/khj/Desktop/hello_standalone/bsp/build/debug/./metal/machine.h:186
		return METAL_FIXED_CLOCK_5_CLOCK_FREQUENCY;
204065ce:	01e857b7          	lui	a5,0x1e85
204065d2:	80078793          	addi	a5,a5,-2048 # 1e84800 <__heap_size+0x1e84000>
204065d6:	a011                	j	204065da <__metal_driver_fixed_clock_rate+0x5a>
/home/khj/Desktop/hello_standalone/bsp/build/debug/./metal/machine.h:189
		return 0;
204065d8:	4781                	li	a5,0
/home/khj/Desktop/hello_standalone/bsp/build/debug/./metal/machine.h:191
}
204065da:	853e                	mv	a0,a5
204065dc:	4472                	lw	s0,28(sp)
204065de:	6105                	addi	sp,sp,32
204065e0:	8082                	ret

204065e2 <__metal_driver_fixed_clock_get_rate_hz>:
__metal_driver_fixed_clock_get_rate_hz():
/home/khj/Desktop/hello_standalone/freedom-metal/src/drivers/fixed-clock.c:12

#include <metal/drivers/fixed-clock.h>
#include <metal/machine.h>
#include <stddef.h>

long __metal_driver_fixed_clock_get_rate_hz(const struct metal_clock *gclk) {
204065e2:	1101                	addi	sp,sp,-32
204065e4:	ce06                	sw	ra,28(sp)
204065e6:	cc22                	sw	s0,24(sp)
204065e8:	1000                	addi	s0,sp,32
204065ea:	fea42623          	sw	a0,-20(s0)
/home/khj/Desktop/hello_standalone/freedom-metal/src/drivers/fixed-clock.c:13
    return __metal_driver_fixed_clock_rate(gclk);
204065ee:	fec42503          	lw	a0,-20(s0)
204065f2:	3779                	jal	20406580 <__metal_driver_fixed_clock_rate>
204065f4:	87aa                	mv	a5,a0
/home/khj/Desktop/hello_standalone/freedom-metal/src/drivers/fixed-clock.c:14
}
204065f6:	853e                	mv	a0,a5
204065f8:	40f2                	lw	ra,28(sp)
204065fa:	4462                	lw	s0,24(sp)
204065fc:	6105                	addi	sp,sp,32
204065fe:	8082                	ret

20406600 <__metal_driver_fixed_clock_set_rate_hz>:
__metal_driver_fixed_clock_set_rate_hz():
/home/khj/Desktop/hello_standalone/freedom-metal/src/drivers/fixed-clock.c:17

long __metal_driver_fixed_clock_set_rate_hz(struct metal_clock *gclk,
                                            long target_hz) {
20406600:	1101                	addi	sp,sp,-32
20406602:	ce06                	sw	ra,28(sp)
20406604:	cc22                	sw	s0,24(sp)
20406606:	1000                	addi	s0,sp,32
20406608:	fea42623          	sw	a0,-20(s0)
2040660c:	feb42423          	sw	a1,-24(s0)
/home/khj/Desktop/hello_standalone/freedom-metal/src/drivers/fixed-clock.c:18
    return __metal_driver_fixed_clock_get_rate_hz(gclk);
20406610:	fec42503          	lw	a0,-20(s0)
20406614:	37f9                	jal	204065e2 <__metal_driver_fixed_clock_get_rate_hz>
20406616:	87aa                	mv	a5,a0
/home/khj/Desktop/hello_standalone/freedom-metal/src/drivers/fixed-clock.c:19
}
20406618:	853e                	mv	a0,a5
2040661a:	40f2                	lw	ra,28(sp)
2040661c:	4462                	lw	s0,24(sp)
2040661e:	6105                	addi	sp,sp,32
20406620:	8082                	ret

20406622 <_exit>:
_exit():
/home/khj/Desktop/hello_standalone/freedom-metal/gloss/sys_exit.c:3
#include <metal/shutdown.h>

void _exit(int exit_status) {
20406622:	1101                	addi	sp,sp,-32
20406624:	ce06                	sw	ra,28(sp)
20406626:	cc22                	sw	s0,24(sp)
20406628:	1000                	addi	s0,sp,32
2040662a:	fea42623          	sw	a0,-20(s0)
/home/khj/Desktop/hello_standalone/freedom-metal/gloss/sys_exit.c:4
    metal_shutdown(exit_status);
2040662e:	fec42503          	lw	a0,-20(s0)
20406632:	e5bff0ef          	jal	ra,2040648c <metal_shutdown>
